
_programs/TestUart/out/TestUart.elf:     file format elf32-littlearm
_programs/TestUart/out/TestUart.elf
architecture: arm, flags 0x00000112:
EXEC_P, HAS_SYMS, D_PAGED
start address 0x1a0008d9

Program Header:
0x70000001 off    0x0001db80 vaddr 0x1a00db80 paddr 0x1a00db80 align 2**2
         filesz 0x00000008 memsz 0x00000008 flags r--
    LOAD off    0x00000000 vaddr 0x10000000 paddr 0x10000000 align 2**16
         filesz 0x000000b4 memsz 0x00000a80 flags rw-
    LOAD off    0x00010000 vaddr 0x1a000000 paddr 0x1a000000 align 2**16
         filesz 0x0000db88 memsz 0x0000db88 flags rwx
    LOAD off    0x00020000 vaddr 0x10000000 paddr 0x1a00db88 align 2**16
         filesz 0x000009f4 memsz 0x000009f4 flags rw-
private flags = 5000400: [Version5 EABI] [hard-float ABI]

Sections:
Idx Name          Size      VMA       LMA       File off  Algn
  0 .text         0000db7c  1a000000  1a000000  00010000  2**6
                  CONTENTS, ALLOC, LOAD, READONLY, CODE
  1 .data         000009f4  10000000  1a00db88  00020000  2**3
                  CONTENTS, ALLOC, LOAD, DATA
  2 .data_RAM2    00000000  10080000  10080000  000209f4  2**2
                  CONTENTS
  3 .data_RAM3    00000000  20000000  20000000  000209f4  2**2
                  CONTENTS
  4 .data_RAM4    00000000  20008000  20008000  000209f4  2**2
                  CONTENTS
  5 .data_RAM5    00000000  2000c000  2000c000  000209f4  2**2
                  CONTENTS
  6 .bss          00000088  100009f8  100009f8  000009f8  2**3
                  ALLOC
  7 .bss_RAM2     00000000  10080000  10080000  000209f4  2**2
                  CONTENTS
  8 .bss_RAM3     00000000  20000000  20000000  000209f4  2**2
                  CONTENTS
  9 .bss_RAM4     00000000  20008000  20008000  000209f4  2**2
                  CONTENTS
 10 .bss_RAM5     00000000  2000c000  2000c000  000209f4  2**2
                  CONTENTS
 11 .init_array   00000004  1a00db7c  1a00db7c  0001db7c  2**2
                  CONTENTS, ALLOC, LOAD, DATA
 12 .ARM.exidx    00000008  1a00db80  1a00db80  0001db80  2**2
                  CONTENTS, ALLOC, LOAD, READONLY, DATA
 13 .uninit_RESERVED 00000000  10000000  10000000  000209f4  2**2
                  CONTENTS
 14 .noinit_RAM2  00000000  10080000  10080000  000209f4  2**2
                  CONTENTS
 15 .noinit_RAM3  00000000  20000000  20000000  000209f4  2**2
                  CONTENTS
 16 .noinit_RAM4  00000000  20008000  20008000  000209f4  2**2
                  CONTENTS
 17 .noinit_RAM5  00000000  2000c000  2000c000  000209f4  2**2
                  CONTENTS
 18 .noinit       00000000  10000a80  10000a80  000209f4  2**2
                  CONTENTS
 19 .debug_info   0001a293  00000000  00000000  000209f4  2**0
                  CONTENTS, READONLY, DEBUGGING
 20 .debug_abbrev 00003b11  00000000  00000000  0003ac87  2**0
                  CONTENTS, READONLY, DEBUGGING
 21 .debug_loc    0000700f  00000000  00000000  0003e798  2**0
                  CONTENTS, READONLY, DEBUGGING
 22 .debug_aranges 00000958  00000000  00000000  000457a7  2**0
                  CONTENTS, READONLY, DEBUGGING
 23 .debug_ranges 00000a10  00000000  00000000  000460ff  2**0
                  CONTENTS, READONLY, DEBUGGING
 24 .debug_macro  0000c090  00000000  00000000  00046b0f  2**0
                  CONTENTS, READONLY, DEBUGGING
 25 .debug_line   0000bff6  00000000  00000000  00052b9f  2**0
                  CONTENTS, READONLY, DEBUGGING
 26 .debug_str    000276c6  00000000  00000000  0005eb95  2**0
                  CONTENTS, READONLY, DEBUGGING
 27 .comment      0000007f  00000000  00000000  0008625b  2**0
                  CONTENTS, READONLY
 28 .ARM.attributes 00000037  00000000  00000000  000862da  2**0
                  CONTENTS, READONLY
 29 .debug_frame  00003138  00000000  00000000  00086314  2**2
                  CONTENTS, READONLY, DEBUGGING
SYMBOL TABLE:
1a000000 l    d  .text	00000000 .text
10000000 l    d  .data	00000000 .data
10080000 l    d  .data_RAM2	00000000 .data_RAM2
20000000 l    d  .data_RAM3	00000000 .data_RAM3
20008000 l    d  .data_RAM4	00000000 .data_RAM4
2000c000 l    d  .data_RAM5	00000000 .data_RAM5
100009f8 l    d  .bss	00000000 .bss
10080000 l    d  .bss_RAM2	00000000 .bss_RAM2
20000000 l    d  .bss_RAM3	00000000 .bss_RAM3
20008000 l    d  .bss_RAM4	00000000 .bss_RAM4
2000c000 l    d  .bss_RAM5	00000000 .bss_RAM5
1a00db7c l    d  .init_array	00000000 .init_array
1a00db80 l    d  .ARM.exidx	00000000 .ARM.exidx
10000000 l    d  .uninit_RESERVED	00000000 .uninit_RESERVED
10080000 l    d  .noinit_RAM2	00000000 .noinit_RAM2
20000000 l    d  .noinit_RAM3	00000000 .noinit_RAM3
20008000 l    d  .noinit_RAM4	00000000 .noinit_RAM4
2000c000 l    d  .noinit_RAM5	00000000 .noinit_RAM5
10000a80 l    d  .noinit	00000000 .noinit
00000000 l    d  .debug_info	00000000 .debug_info
00000000 l    d  .debug_abbrev	00000000 .debug_abbrev
00000000 l    d  .debug_loc	00000000 .debug_loc
00000000 l    d  .debug_aranges	00000000 .debug_aranges
00000000 l    d  .debug_ranges	00000000 .debug_ranges
00000000 l    d  .debug_macro	00000000 .debug_macro
00000000 l    d  .debug_line	00000000 .debug_line
00000000 l    d  .debug_str	00000000 .debug_str
00000000 l    d  .comment	00000000 .comment
00000000 l    d  .ARM.attributes	00000000 .ARM.attributes
00000000 l    d  .debug_frame	00000000 .debug_frame
00000000 l    df *ABS*	00000000 armv7m_startup.c
00000000 l    df *ABS*	00000000 vendor_interrupt.c
00000000 l    df *ABS*	00000000 crp.c
00000000 l    df *ABS*	00000000 TestUart.c
00000000 l    df *ABS*	00000000 system.c
100009f8 l     O .bss	00000004 heap_end.5778
00000000 l    df *ABS*	00000000 board.c
1a000a2c l     F .text	00000044 Board_LED_Init
1a000a70 l     F .text	00000040 Board_TEC_Init
1a000ab0 l     F .text	00000040 Board_GPIO_Init
1a000af0 l     F .text	00000030 Board_ADC_Init
1a000b20 l     F .text	00000038 Board_SPI_Init
1a000b58 l     F .text	00000024 Board_I2C_Init
1a00d49c l     O .text	00000008 GpioButtons
1a00d4a4 l     O .text	0000000c GpioLeds
1a00d4b0 l     O .text	00000012 GpioPorts
00000000 l    df *ABS*	00000000 board_sysinit.c
1a00d4c8 l     O .text	00000004 InitClkStates
1a00d4cc l     O .text	00000074 pinmuxing
00000000 l    df *ABS*	00000000 i2c_18xx_43xx.c
10000000 l     O .data	00000038 i2c
00000000 l    df *ABS*	00000000 uart_18xx_43xx.c
1a000d48 l     F .text	0000002c Chip_UART_GetIndex
1a00d540 l     O .text	00000008 UART_BClock
1a00d548 l     O .text	00000008 UART_PClock
00000000 l    df *ABS*	00000000 adc_18xx_43xx.c
1a000ef0 l     F .text	00000014 Chip_ADC_GetClockIndex
1a000f04 l     F .text	00000032 getClkDiv
00000000 l    df *ABS*	00000000 clock_18xx_43xx.c
1a000fb8 l     F .text	000000a4 pll_calc_divs
1a00105c l     F .text	0000010c pll_get_frac
1a001168 l     F .text	0000004c Chip_Clock_FindBaseClock
1a0013dc l     F .text	00000022 Chip_Clock_GetDivRate
100009fc l     O .bss	00000008 audio_usb_pll_freq
1a00d55c l     O .text	0000006c periph_to_base
00000000 l    df *ABS*	00000000 chip_18xx_43xx.c
00000000 l    df *ABS*	00000000 sysinit_18xx_43xx.c
1a00d5c8 l     O .text	00000048 InitClkStates
00000000 l    df *ABS*	00000000 gpio_18xx_43xx.c
00000000 l    df *ABS*	00000000 ssp_18xx_43xx.c
1a0016b4 l     F .text	00000014 Chip_SSP_GetClockIndex
1a0016c8 l     F .text	00000018 Chip_SSP_GetPeriphClockIndex
00000000 l    df *ABS*	00000000 sysinit.c
00000000 l    df *ABS*	00000000 sapi_cyclesCounter.c
10000038 l     O .data	00000004 ClockSpeed
00000000 l    df *ABS*	00000000 sapi_uart.c
10000a04 l     O .bss	00000004 i.11780
1a00d610 l     O .text	00000048 lpcUarts
00000000 l    df *ABS*	00000000 sapi_tick.c
10000a08 l     O .bss	00000004 callBackFuncParams
10000a10 l     O .bss	00000008 tickCounter
10000a18 l     O .bss	00000004 tickHookFunction
00000000 l    df *ABS*	00000000 sapi_gpio.c
1a001ac0 l     F .text	00000034 gpioObtainPinInit
00000000 l    df *ABS*	00000000 sapi_usb_device.c
10000a1c l     O .bss	00000004 g_hUsb
00000000 l    df *ABS*	00000000 sapi_board.c
00000000 l    df *ABS*	00000000 sapi_delay.c
00000000 l    df *ABS*	00000000 _arm_addsubdf3.o
00000000 l    df *ABS*	00000000 _arm_muldivdf3.o
00000000 l    df *ABS*	00000000 _arm_cmpdf2.o
00000000 l    df *ABS*	00000000 _arm_truncdfsf2.o
00000000 l    df *ABS*	00000000 _aeabi_uldivmod.o
00000000 l    df *ABS*	00000000 libgcc2.c
00000000 l    df *ABS*	00000000 _dvmd_tls.o
00000000 l    df *ABS*	00000000 init.c
00000000 l    df *ABS*	00000000 lib_a-memcpy.o
00000000 l    df *ABS*	00000000 memset.c
00000000 l    df *ABS*	00000000 printf.c
00000000 l    df *ABS*	00000000 puts.c
00000000 l    df *ABS*	00000000 scanf.c
00000000 l    df *ABS*	00000000 lib_a-strlen.o
00000000 l    df *ABS*	00000000 strtol.c
1a002edc l     F .text	00000124 _strtol_l.isra.0
00000000 l    df *ABS*	00000000 vfprintf.c
1a004acc l     F .text	00000084 __sbprintf
1a00d784 l     O .text	00000010 blanks.8605
1a00d794 l     O .text	00000010 zeroes.8606
00000000 l    df *ABS*	00000000 vfscanf.c
1a00d7ac l     O .text	00000022 basefix.8686
00000000 l    df *ABS*	00000000 wsetup.c
00000000 l    df *ABS*	00000000 dtoa.c
1a006204 l     F .text	00000124 quorem
00000000 l    df *ABS*	00000000 fflush.c
00000000 l    df *ABS*	00000000 findfp.c
1a00731c l     F .text	00000050 std
00000000 l    df *ABS*	00000000 fread.c
00000000 l    df *ABS*	00000000 mallocr.c
00000000 l    df *ABS*	00000000 fvwrite.c
00000000 l    df *ABS*	00000000 fwalk.c
00000000 l    df *ABS*	00000000 iswspace.c
00000000 l    df *ABS*	00000000 locale.c
00000000 l    df *ABS*	00000000 localeconv.c
00000000 l    df *ABS*	00000000 lock.c
00000000 l    df *ABS*	00000000 makebuf.c
00000000 l    df *ABS*	00000000 malloc.c
00000000 l    df *ABS*	00000000 mallocr.c
00000000 l    df *ABS*	00000000 mbrtowc.c
00000000 l    df *ABS*	00000000 mbtowc_r.c
00000000 l    df *ABS*	00000000 lib_a-memchr.o
00000000 l    df *ABS*	00000000 memmove.c
00000000 l    df *ABS*	00000000 mlock.c
00000000 l    df *ABS*	00000000 mprec.c
1a00d8e8 l     O .text	0000000c p05.7367
00000000 l    df *ABS*	00000000 realloc.c
00000000 l    df *ABS*	00000000 mallocr.c
00000000 l    df *ABS*	00000000 refill.c
1a0090d8 l     F .text	00000012 lflush
00000000 l    df *ABS*	00000000 s_frexp.c
00000000 l    df *ABS*	00000000 sccl.c
00000000 l    df *ABS*	00000000 sf_nan.c
00000000 l    df *ABS*	00000000 sprintf.c
00000000 l    df *ABS*	00000000 stdio.c
00000000 l    df *ABS*	00000000 strncpy.c
00000000 l    df *ABS*	00000000 strtod.c
1a009418 l     F .text	00000038 sulp
1a00d904 l     O .text	00000014 fpi.7447
1a00d918 l     O .text	00000014 fpinan.7483
1a00d930 l     O .text	00000028 tinytens
00000000 l    df *ABS*	00000000 strtoll.c
1a00a38c l     F .text	0000019a _strtoll_l.isra.0
00000000 l    df *ABS*	00000000 strtoul.c
1a00a54c l     F .text	0000014c _strtoul_l.isra.0
00000000 l    df *ABS*	00000000 strtoull.c
1a00a6bc l     F .text	000001cc _strtoull_l.isra.0
00000000 l    df *ABS*	00000000 vfprintf.c
1a00d958 l     O .text	00000010 blanks.8590
1a00d968 l     O .text	00000010 zeroes.8591
00000000 l    df *ABS*	00000000 ungetc.c
00000000 l    df *ABS*	00000000 vfprintf.c
1a00c424 l     F .text	00000076 __sprint_r.part.0
00000000 l    df *ABS*	00000000 wctomb_r.c
00000000 l    df *ABS*	00000000 mallocr.c
00000000 l    df *ABS*	00000000 fclose.c
00000000 l    df *ABS*	00000000 fputwc.c
00000000 l    df *ABS*	00000000 gdtoa-gethex.c
1a00c708 l     F .text	000000ae rshift
00000000 l    df *ABS*	00000000 gdtoa-hexnan.c
00000000 l    df *ABS*	00000000 strncmp.c
00000000 l    df *ABS*	00000000 vfprintf.c
00000000 l    df *ABS*	00000000 wbuf.c
00000000 l    df *ABS*	00000000 wcrtomb.c
00000000 l    df *ABS*	00000000 _arm_unorddf2.o
00000000 l    df *ABS*	00000000 _arm_fixdfsi.o
00000000 l    df *ABS*	00000000 _arm_fixunsdfsi.o
00000000 l    df *ABS*	00000000 impure.c
10000050 l     O .data	00000428 impure_data
00000000 l    df *ABS*	00000000 ctype_.c
00000000 l    df *ABS*	00000000 
1a00db80 l       .init_array	00000000 __init_array_end
1a00db7c l       .bss_RAM5	00000000 __preinit_array_end
1a00db7c l       .init_array	00000000 __init_array_start
1a00db7c l       .bss_RAM5	00000000 __preinit_array_start
1a00d134 g     F .text	0000002c .hidden __aeabi_dcmpun
1a001200 g     F .text	0000001c Chip_Clock_GetDividerSource
1a008d14 g     F .text	00000058 __any_on
1a000978 g     F .text	00000012 _isatty_r
1a0026e4 g     F .text	00000012 .hidden __aeabi_dcmple
1a0018b0 g     F .text	000000c8 receiveBytesUntilReceiveStringOrTimeout
1a002cf8 g     F .text	0000009c _puts_r
1a0001ba  w    F .text	00000002 TIMER2_IRQHandler
1a0017ec g     F .text	00000014 uartRxRead
1a002620 g     F .text	0000007a .hidden __cmpdf2
1a00098a g     F .text	0000000a _lseek_r
1a000184  w    F .text	00000002 DebugMon_Handler
1a0001ba  w    F .text	00000002 RIT_IRQHandler
1a080000 g       *ABS*	00000000 __top_MFlashA512
1a002620 g     F .text	0000007a .hidden __eqdf2
1a0001ba  w    F .text	00000002 ADCHS_IRQHandler
1a000114 g       .text	00000000 __section_table_start
1a0001ba  w    F .text	00000002 FLASH_EEPROM_IRQHandler
1a002190 g     F .text	0000005a .hidden __floatdidf
1a0001ba  w    F .text	00000002 I2C0_IRQHandler
1a001890 g     F .text	0000001e uartReadByte
1a002cd0 g     F .text	00000028 printf
1a000c12 g     F .text	00000008 __stdio_init
10000a5c g     O .bss	00000001 __lock___atexit_recursive_mutex
1a00d0e4 g     F .text	00000050 _wcrtomb_r
1a001e30 g     F .text	00000042 delayRead
1a00938c g     F .text	00000020 __sseek
1a007378 g     F .text	00000058 __sinit
1a00d034 g     F .text	000000b0 __swbuf_r
1a00017a  w    F .text	00000002 HardFault_Handler
1a000000 g       *ABS*	00000000 __vectors_start__
1a000faa g     F .text	0000000c Chip_ADC_SetResolution
1a0084a4 g     F .text	0000000c __malloc_unlock
1a00a36c g     F .text	00000020 _strtod_r
1a001a8c g     F .text	00000034 SysTick_Handler
1a000dc8 g     F .text	00000040 Chip_UART_SetBaud
10000a60 g     O .bss	00000001 __lock___arc4random_mutex
1a0008d4  w    F .text	00000002 initialise_monitor_handles
1a0001ba  w    F .text	00000002 SDIO_IRQHandler
1a000bb4 g     F .text	0000001c Board_UARTGetChar
1a0001ba  w    F .text	00000002 ATIMER_IRQHandler
1a0083d0 g     F .text	000000c6 memmove
1a000186  w    F .text	00000002 PendSV_Handler
1a007c00 g     F .text	0000001c __locale_ctype_ptr
1a000178  w    F .text	00000002 NMI_Handler
1a0084b0 g     F .text	0000004c _Balloc
1a00db88 g       .ARM.exidx	00000000 __exidx_end
1a000150 g       .text	00000000 __data_section_table_end
1a0001ba  w    F .text	00000002 I2C1_IRQHandler
1a0001ba  w    F .text	00000002 UART1_IRQHandler
1a002610 g     F .text	0000008a .hidden __gtdf2
1a0001ba  w    F .text	00000002 GPIO5_IRQHandler
1a0001ba  w    F .text	00000002 CAN1_IRQHandler
1a007c1c g     F .text	00000004 __localeconv_l
1a00096e g     F .text	0000000a _fstat_r
53ff6fb6 g       *ABS*	00000000 __valid_user_code_checksum
1a00db88 g       .ARM.exidx	00000000 _etext
1a0026ac g     F .text	00000010 .hidden __aeabi_cdcmple
1a0001ba  w    F .text	00000002 USB1_IRQHandler
1a0001ba  w    F .text	00000002 I2S0_IRQHandler
1a0001ba  w    F .text	00000002 TIMER3_IRQHandler
1a00147e g     F .text	0000000c Chip_Clock_GetBaseClocktHz
1a0001ba  w    F .text	00000002 UART0_IRQHandler
1a0001a8 g     F .text	00000012 bss_init
1a002b08 g     F .text	00000134 memcpy
1a00cd08 g     F .text	000001a0 __hexnan
1a00269c g     F .text	00000020 .hidden __aeabi_cdrcmple
1a0001ba  w    F .text	00000002 SGPIO_IRQHandler
1a00736c g     F .text	0000000c _cleanup_r
1a00a8b0 g     F .text	000019ca _svfprintf_r
1a002118 g     F .text	00000022 .hidden __floatsidf
1a002618 g     F .text	00000082 .hidden __ltdf2
1a0027c0 g     F .text	00000000 .hidden __aeabi_uldivmod
10000a80 g       .noinit	00000000 _noinit
1a002d94 g     F .text	00000010 puts
1a001978 g     F .text	00000040 receiveBytesUntilReceiveStringOrTimeoutBlocking
1a0019d2 g     F .text	00000018 uartWriteString
10000a54 g     O .bss	00000004 SystemCoreClock
1a006104 g     F .text	00000034 _vfscanf_r
1a008c6c g     F .text	00000060 __ratio
1a000d74 g     F .text	00000054 Chip_UART_Init
1a0001ba  w    F .text	00000002 ADC0_IRQHandler
1a007d3c g     F .text	00000010 malloc
1a007bc0 g     F .text	0000001a iswspace
1a00d820 g     O .text	000000c8 __mprec_tens
1a000180  w    F .text	00000002 UsageFault_Handler
1a0014fc g     F .text	0000004c Chip_Clock_GetRate
1a00d1b0 g     F .text	00000040 .hidden __fixunsdfsi
1a0001ba  w    F .text	00000002 GPIO6_IRQHandler
10000a50 g     O .bss	00000004 __malloc_top_pad
1a000c54 g     F .text	0000006c Board_SetupClocking
20008000 g       *ABS*	00000000 __top_RamAHB32
1a0020f8 g     F .text	0000001e .hidden __aeabi_ui2d
1a007c20 g     F .text	0000001c _localeconv_r
1a00a888 g     F .text	00000024 _strtoull_r
1a0086c8 g     F .text	00000012 __i2b
1a007824 g     F .text	000002fc __sfvwrite_r
1a0027f0 g     F .text	000002cc .hidden __udivmoddi4
1a001e74 g     F .text	00000000 .hidden __aeabi_drsub
1a000a0c g     F .text	00000020 _sbrk_r
1a00d498 g     O .text	00000004 ExtRateIn
1a0001ba  w    F .text	00000002 IntDefaultHandler
1a000300 g       .text	00000000 __CRP_WORD_END__
1a000994 g     F .text	0000004e _read_r
1a0026d0 g     F .text	00000012 .hidden __aeabi_dcmplt
1a00c534 g     F .text	000000d0 _fclose_r
1a0001ba  w    F .text	00000002 GPIO1_IRQHandler
1a0072f8 g     F .text	00000024 fflush
10000a48 g     O .bss	00000004 __malloc_max_sbrked_mem
1a00213c g     F .text	00000042 .hidden __extendsfdf2
1a002440 g     F .text	000001d0 .hidden __aeabi_ddiv
1a0001ba  w    F .text	00000002 SSP0_IRQHandler
1a001e80 g     F .text	00000276 .hidden __adddf3
1a0017bc g     F .text	00000018 uartRxReady
1a008aec g     F .text	000000bc __b2d
1a00db80 g       .ARM.exidx	00000000 __exidx_start
10000a64 g     O .bss	00000001 __lock___env_recursive_mutex
1a0021ec g     F .text	00000254 .hidden __aeabi_dmul
1a0002fc g     O .text	00000004 CRP_WORD
10000a68 g     O .bss	00000001 __lock___sinit_recursive_mutex
1a00d7e0 g     O .text	00000004 _global_impure_ptr
1a008d7c g     F .text	0000035c _realloc_r
1a002ac0 g     F .text	00000048 __libc_init_array
1a00da7c g     O .text	00000100 __hexdig
1a00c6a4 g     F .text	00000064 _fputwc_r
1a00d7f8 g     O .text	00000028 __mprec_bigtens
1a008590 g     F .text	00000098 __s2b
1a0020f8 g     F .text	0000001e .hidden __floatunsidf
1a0001ba  w    F .text	00000002 ADC1_IRQHandler
1a008974 g     F .text	00000036 __mcmp
1a000bd0 g     F .text	00000030 Board_Init
1a000962  w    F .text	00000002 _init
1a000114 g       .text	00000000 __data_section_table
1a003024 g     F .text	0000002c strtol
1a002720 g     F .text	0000009e .hidden __aeabi_d2f
1a0001ba  w    F .text	00000002 RTC_IRQHandler
1a009450 g     F .text	00000f1c _strtod_l
1a00ccd8 g     F .text	00000030 __match
10000a80 g       .bss	00000000 _ebss
1a0001ba  w    F .text	00000002 TIMER0_IRQHandler
1a0008d8 g     F .text	00000088 Reset_Handler
1a001a10 g     F .text	0000007c tickInit
20010000 g       *ABS*	00000000 __top_RamAHB_ETB16
1a0001ba  w    F .text	00000002 SPI_IRQHandler
1a008628 g     F .text	0000003e __hi0bits
1a000d10 g     F .text	00000038 Chip_I2C_SetClockRate
1a00d160 g     F .text	0000004e .hidden __fixdfsi
1a0001ba  w    F .text	00000002 LCD_IRQHandler
1a0011b4 g     F .text	0000004c Chip_Clock_EnableCrystal
10000a6c g     O .bss	00000001 __lock___malloc_recursive_mutex
10008000 g       *ABS*	00000000 __top_RamLoc32
1a001e80 g     F .text	00000276 .hidden __aeabi_dadd
1a00018a g     F .text	0000001e data_init
1a002618 g     F .text	00000082 .hidden __ledf2
1a008828 g     F .text	000000a0 __pow5mult
1a002180 g     F .text	0000006a .hidden __aeabi_ul2d
1a0001ba  w    F .text	00000002 TIMER1_IRQHandler
1a000cec g     F .text	00000024 Chip_I2C_Init
1a007c48 g     F .text	00000002 __retarget_lock_release_recursive
1a0001ba  w    F .text	00000002 UART2_IRQHandler
1a001370 g     F .text	0000006c Chip_Clock_GetMainPLLHz
1a00d658 g     O .text	000000e6 gpioPinsInit
1a0019b8 g     F .text	0000001a uartWriteByte
1a0016e0 g     F .text	00000012 Chip_SSP_SetClockRate
1a00270c g     F .text	00000012 .hidden __aeabi_dcmpgt
1a001d32 g     F .text	00000016 gpioToggle
1a0001ba  w    F .text	00000002 GPIO2_IRQHandler
1a0073d0 g     F .text	0000000c __sfp_lock_acquire
1a008330 g     F .text	00000000 memchr
1a00763c g     F .text	000001e8 _free_r
1a001458 g     F .text	00000026 Chip_Clock_GetBaseClock
1a007bdc g     F .text	0000001c __locale_mb_cur_max
1a0026f8 g     F .text	00000012 .hidden __aeabi_dcmpge
100009f8 g       .bss	00000000 _bss
1a000f78 g     F .text	00000032 Chip_ADC_SetSampleRate
1a001e7c g     F .text	0000027a .hidden __aeabi_dsub
100009ec g     O .data	00000004 __malloc_sbrk_base
1a00a528 g     F .text	00000024 _strtoll_r
1a001e10 g     F .text	00000020 delayInit
1a002180 g     F .text	0000006a .hidden __floatundidf
1a0088c8 g     F .text	000000ac __lshift
1a0001ba  w    F .text	00000002 I2S1_IRQHandler
1a00cf40 g     F .text	000000f4 __ssprint_r
1a0016f2 g     F .text	0000003e Chip_SSP_SetBitRate
1a0016b0 g     F .text	00000002 Chip_GPIO_Init
1a00cea8 g     F .text	00000096 strncmp
1a00d4c4 g     O .text	00000004 OscRateIn
1a001814 g     F .text	0000007c uartInit
1a0086dc g     F .text	0000014a __multiply
10000a80 g       .noinit	00000000 _end_noinit
10008000 g       *ABS*	00000000 _vStackTop
1a0093b4 g     F .text	00000064 strncpy
10000a20 g     O .bss	00000028 __malloc_current_mallinfo
1a008ba8 g     F .text	000000c2 __d2b
1a0001ba  w    F .text	00000002 SSP1_IRQHandler
1a008d6c g     F .text	00000010 realloc
1a00a698 g     F .text	00000024 _strtoul_r
1a000178 g       .text	00000000 __bss_section_table_end
1a000964 g     F .text	0000000a _close_r
1a002118 g     F .text	00000022 .hidden __aeabi_i2d
1a001af4 g     F .text	00000194 gpioInit
1a007c40 g     F .text	00000002 __retarget_lock_close_recursive
1a006138 g     F .text	000000cc __swsetup_r
1a002abc  w    F .text	00000002 .hidden __aeabi_ldiv0
1a002440 g     F .text	000001d0 .hidden __divdf3
1a008ccc g     F .text	00000046 __copybits
100005e4 g     O .data	00000408 __malloc_av_
1a0021ec g     F .text	00000254 .hidden __muldf3
1a00932c g     F .text	00000022 __sread
1a001d48 g     F .text	0000001c USB0_IRQHandler
1a0001ba  w    F .text	00000002 GPIO3_IRQHandler
1a008498 g     F .text	0000000c __malloc_lock
1a000ba0 g     F .text	00000014 Board_UARTPutChar
1a0001ba  w    F .text	00000002 SCT_IRQHandler
1a00729c g     F .text	0000005a _fflush_r
1a00c4cc g     F .text	00000068 _calloc_r
1a00121c g     F .text	0000001c Chip_Clock_GetDividerDivisor
1a0002fc g       .text	00000000 __CRP_WORD_START__
1a007c44 g     F .text	00000002 __retarget_lock_acquire_recursive
1a002c3c g     F .text	00000094 memset
1a00017c  w    F .text	00000002 MemManage_Handler
1a000300 g     F .text	000005d4 main
10000a4c g     O .bss	00000004 __malloc_max_total_mem
1a007c3c g     F .text	00000002 __retarget_lock_init_recursive
1a0001ba  w    F .text	00000002 WDT_IRQHandler
1a0073e8 g     F .text	000001b4 _fread_r
2000c000 g       *ABS*	00000000 __top_RamAHB16
1008a000 g       *ABS*	00000000 __top_RamLoc40
1a000182  w    F .text	00000002 SVC_Handler
1a0093ac g     F .text	00000008 __sclose
1a003000 g     F .text	00000024 _strtol_r
1a002720 g     F .text	0000009e .hidden __truncdfsf2
1a006328 g     F .text	00000e20 _dtoa_r
1a007d5c g     F .text	00000548 _malloc_r
1a00c4b0 g     F .text	0000001a __ascii_wctomb
1a002190 g     F .text	0000005a .hidden __aeabi_l2d
1a0017d4 g     F .text	00000018 uartTxReady
1a00c27c g     F .text	00000076 __submore
1a0001ba  w    F .text	00000002 GPIO7_IRQHandler
1a00148c g     F .text	0000003c Chip_Clock_EnableOpts
1a000c0a g     F .text	00000008 __stdio_getchar
1a007b20 g     F .text	0000004a _fwalk
1a00759c g     F .text	000000a0 _malloc_trim_r
1a001238 g     F .text	000000b8 Chip_Clock_GetClockInputHz
1a0012f0 g     F .text	00000080 Chip_Clock_CalcMainPLLValue
1a001768 g     F .text	00000038 SystemInit
1a0001ba  w    F .text	00000002 SPIFI_IRQHandler
1a001dd8 g     F .text	00000038 delay
1a0001ba  w    F .text	00000002 QEI_IRQHandler
1a000150 g       .text	00000000 __bss_section_table
1a002620 g     F .text	0000007a .hidden __nedf2
1a001c88 g     F .text	00000056 gpioWrite
1a000960  w    F .text	00000002 _fini
1a0092e8 g     F .text	00000044 sprintf
1a000f38 g     F .text	00000040 Chip_ADC_Init
10000a58 g     O .bss	00000004 g_pUsbApi
1a000c1c g     F .text	00000038 Board_SetupMuxing
1a000e08 g     F .text	000000e8 Chip_UART_SetBaudFDR
1a0019ec g     F .text	0000000c tickRead
1a0009e2 g     F .text	00000028 _write_r
10000040 g     O .data	00000008 tickRateMS
1a002da4 g     F .text	00000028 scanf
1a0001ba  w    F .text	00000002 ETH_IRQHandler
1a0092dc g     F .text	0000000c nanf
10000048 g     O .data	00000004 _impure_ptr
1a007148 g     F .text	00000154 __sflush_r
10000000 g       .uninit_RESERVED	00000000 _end_uninit_RESERVED
1a0082a4 g     F .text	0000005c _mbrtowc_r
1a001800 g     F .text	00000014 uartTxWrite
1a0090ec g     F .text	00000118 __srefill_r
1a0001ba  w    F .text	00000002 CAN0_IRQHandler
1a008300 g     F .text	0000002a __ascii_mbtowc
10000000 g       .data	00000000 _data
1a008a98 g     F .text	00000054 __ulp
10000a80 g       .bss	00000000 _pvHeapStart
1a000178 g       .text	00000000 __section_table_end
1a001730 g     F .text	00000038 Chip_SSP_Init
1a00d1b0 g     F .text	00000040 .hidden __aeabi_d2uiz
1a0001ba  w    F .text	00000002 GINT0_IRQHandler
1a007c4c g     F .text	0000005c __swhatbuf_r
1a0001ba  w    F .text	00000002 DAC_IRQHandler
1a000b7c g     F .text	00000024 Board_Debug_Init
1a0026bc g     F .text	00000012 .hidden __aeabi_dcmpeq
1a000c00 g     F .text	0000000a __stdio_putchar
100009f4 g       .data	00000000 _edata
1a000ccc g     F .text	00000020 Chip_I2C_EventHandler
1a0001ba  w    F .text	00000002 M0SUB_IRQHandler
1a00c604 g     F .text	0000009e __fputwc
10000a70 g     O .bss	00000001 __lock___at_quick_exit_mutex
1a00155c g     F .text	00000154 Chip_SetupCoreClock
1a009350 g     F .text	0000003c __swrite
1a0001ba  w    F .text	00000002 GPIO0_IRQHandler
100009f0 g     O .data	00000004 __malloc_trim_threshold
1a000000 g     O .text	00000040 g_pfnVectors
1a007b6c g     F .text	00000052 _fwalk_reent
1a001548 g     F .text	00000014 SystemCoreClockUpdate
1a0089ac g     F .text	000000ec __mdiff
1a00d160 g     F .text	0000004e .hidden __aeabi_d2iz
1a0001ba  w    F .text	00000002 DMA_IRQHandler
1a0001ba  w    F .text	00000002 EVRT_IRQHandler
1b080000 g       *ABS*	00000000 __top_MFlashB512
1a0073dc g     F .text	0000000c __sfp_lock_release
1a00926c g     F .text	0000006e __sccl
1a00d978 g     O .text	00000101 _ctype_
1a002abc  w    F .text	00000002 .hidden __aeabi_idiv0
1a00d134 g     F .text	0000002c .hidden __unorddf2
1a00017e  w    F .text	00000002 BusFault_Handler
10000a74 g     O .bss	00000001 __lock___dd_hash_mutex
1a007ca8 g     F .text	00000094 __smakebuf_r
10000a78 g     O .bss	00000001 __lock___tz_mutex
1a002e00 g     F .text	000000dc strlen
1a007bf8 g     F .text	00000006 __locale_ctype_ptr_l
1a0014c8 g     F .text	00000034 Chip_Clock_Enable
1a0026ac g     F .text	00000010 .hidden __aeabi_cdcmpeq
1a002610 g     F .text	0000008a .hidden __gedf2
1a0001ba  w    F .text	00000002 UART3_IRQHandler
1a00c7b8 g     F .text	00000520 __gethex
1a0001ba  w    F .text	00000002 MCPWM_IRQHandler
1a00c49c g     F .text	00000014 __sprint_r
1a0001ba  w    F .text	00000002 M0APP_IRQHandler
1a001cde g     F .text	00000054 gpioRead
1a00213c g     F .text	00000042 .hidden __aeabi_f2d
1a001d64 g     F .text	00000074 boardInit
1a000040 g     O .text	000000d4 g_pfnVendorVectors
1a001e7c g     F .text	0000027a .hidden __subdf3
1a003050 g     F .text	00001a7c _vfprintf_r
1a0001ba  w    F .text	00000002 GINT1_IRQHandler
1a008668 g     F .text	0000005e __lo0bits
1a004b50 g     F .text	000015b4 __svfscanf_r
1a00c2f4 g     F .text	0000012e _ungetc_r
1a0019f8 g     F .text	00000018 tickPowerSet
1a009204 g     F .text	00000068 frexp
10000478 g     O .data	0000016c __global_locale
1a001400 g     F .text	00000058 Chip_Clock_SetBaseClock
1a0017a0 g     F .text	0000001c cyclesCounterInit
1a0001ba  w    F .text	00000002 GPIO4_IRQHandler
10000a7c g     O .bss	00000001 __lock___sfp_recursive_mutex
1a007d4c g     F .text	00000010 free
1a000cc0 g     F .text	0000000c Board_SystemInit
1a008510 g     F .text	00000080 __multadd
1a0084fc g     F .text	00000012 _Bfree



Disassembly of section .text:

1a000000 <g_pfnVectors>:
1a000000:	00 80 00 10 d9 08 00 1a 79 01 00 1a 7b 01 00 1a     ........y...{...
1a000010:	7d 01 00 1a 7f 01 00 1a 81 01 00 1a b6 6f ff 53     }............o.S
	...
1a00002c:	83 01 00 1a 85 01 00 1a 00 00 00 00 87 01 00 1a     ................
1a00003c:	8d 1a 00 1a                                         ....

1a000040 <g_pfnVendorVectors>:
1a000040:	bb 01 00 1a bb 01 00 1a bb 01 00 1a 00 00 00 00     ................
1a000050:	bb 01 00 1a bb 01 00 1a bb 01 00 1a bb 01 00 1a     ................
1a000060:	49 1d 00 1a bb 01 00 1a bb 01 00 1a bb 01 00 1a     I...............
1a000070:	bb 01 00 1a bb 01 00 1a bb 01 00 1a bb 01 00 1a     ................
1a000080:	bb 01 00 1a bb 01 00 1a bb 01 00 1a bb 01 00 1a     ................
1a000090:	bb 01 00 1a bb 01 00 1a bb 01 00 1a bb 01 00 1a     ................
1a0000a0:	bb 01 00 1a bb 01 00 1a bb 01 00 1a bb 01 00 1a     ................
1a0000b0:	bb 01 00 1a bb 01 00 1a bb 01 00 1a bb 01 00 1a     ................
1a0000c0:	bb 01 00 1a bb 01 00 1a bb 01 00 1a bb 01 00 1a     ................
1a0000d0:	bb 01 00 1a bb 01 00 1a bb 01 00 1a bb 01 00 1a     ................
1a0000e0:	bb 01 00 1a bb 01 00 1a bb 01 00 1a bb 01 00 1a     ................
1a0000f0:	00 00 00 00 bb 01 00 1a bb 01 00 1a bb 01 00 1a     ................
1a000100:	00 00 00 00 bb 01 00 1a bb 01 00 1a bb 01 00 1a     ................
1a000110:	bb 01 00 1a                                         ....

1a000114 <__data_section_table>:
1a000114:	1a00db88 	.word	0x1a00db88
1a000118:	10000000 	.word	0x10000000
1a00011c:	000009f4 	.word	0x000009f4
1a000120:	1a00db88 	.word	0x1a00db88
1a000124:	10080000 	.word	0x10080000
1a000128:	00000000 	.word	0x00000000
1a00012c:	1a00db88 	.word	0x1a00db88
1a000130:	20000000 	.word	0x20000000
1a000134:	00000000 	.word	0x00000000
1a000138:	1a00db88 	.word	0x1a00db88
1a00013c:	20008000 	.word	0x20008000
1a000140:	00000000 	.word	0x00000000
1a000144:	1a00db88 	.word	0x1a00db88
1a000148:	2000c000 	.word	0x2000c000
1a00014c:	00000000 	.word	0x00000000

1a000150 <__bss_section_table>:
1a000150:	100009f8 	.word	0x100009f8
1a000154:	00000088 	.word	0x00000088
1a000158:	10080000 	.word	0x10080000
1a00015c:	00000000 	.word	0x00000000
1a000160:	20000000 	.word	0x20000000
1a000164:	00000000 	.word	0x00000000
1a000168:	20008000 	.word	0x20008000
1a00016c:	00000000 	.word	0x00000000
1a000170:	2000c000 	.word	0x2000c000
1a000174:	00000000 	.word	0x00000000

1a000178 <NMI_Handler>:
        __asm__ volatile("wfi");
    }
}

__attribute__ ((section(".after_vectors")))
void NMI_Handler(void) {
1a000178:	e7fe      	b.n	1a000178 <NMI_Handler>

1a00017a <HardFault_Handler>:
    while (1) {
    }
}
__attribute__ ((section(".after_vectors")))
void HardFault_Handler(void) {
1a00017a:	e7fe      	b.n	1a00017a <HardFault_Handler>

1a00017c <MemManage_Handler>:
    while (1) {
    }
}
__attribute__ ((section(".after_vectors")))
void MemManage_Handler(void) {
1a00017c:	e7fe      	b.n	1a00017c <MemManage_Handler>

1a00017e <BusFault_Handler>:
    while (1) {
    }
}
__attribute__ ((section(".after_vectors")))
void BusFault_Handler(void) {
1a00017e:	e7fe      	b.n	1a00017e <BusFault_Handler>

1a000180 <UsageFault_Handler>:
    while (1) {
    }
}
__attribute__ ((section(".after_vectors")))
void UsageFault_Handler(void) {
1a000180:	e7fe      	b.n	1a000180 <UsageFault_Handler>

1a000182 <SVC_Handler>:
    while (1) {
    }
}
__attribute__ ((section(".after_vectors")))
void SVC_Handler(void) {
1a000182:	e7fe      	b.n	1a000182 <SVC_Handler>

1a000184 <DebugMon_Handler>:
    while (1) {
    }
}
__attribute__ ((section(".after_vectors")))
void DebugMon_Handler(void) {
1a000184:	e7fe      	b.n	1a000184 <DebugMon_Handler>

1a000186 <PendSV_Handler>:
    while (1) {
    }
}
__attribute__ ((section(".after_vectors")))
void PendSV_Handler(void) {
1a000186:	e7fe      	b.n	1a000186 <PendSV_Handler>
    while (1) {
    }
}
__attribute__ ((section(".after_vectors")))
void SysTick_Handler(void) {
1a000188:	e7fe      	b.n	1a000188 <PendSV_Handler+0x2>

1a00018a <data_init>:
    for (loop = 0; loop < len; loop = loop + 4)
1a00018a:	2300      	movs	r3, #0
1a00018c:	4293      	cmp	r3, r2
1a00018e:	d20a      	bcs.n	1a0001a6 <data_init+0x1c>
void data_init(unsigned int romstart, unsigned int start, unsigned int len) {
1a000190:	b410      	push	{r4}
        *pulDest++ = *pulSrc++;
1a000192:	6804      	ldr	r4, [r0, #0]
1a000194:	600c      	str	r4, [r1, #0]
    for (loop = 0; loop < len; loop = loop + 4)
1a000196:	3304      	adds	r3, #4
        *pulDest++ = *pulSrc++;
1a000198:	3004      	adds	r0, #4
1a00019a:	3104      	adds	r1, #4
    for (loop = 0; loop < len; loop = loop + 4)
1a00019c:	4293      	cmp	r3, r2
1a00019e:	d3f8      	bcc.n	1a000192 <data_init+0x8>
}
1a0001a0:	f85d 4b04 	ldr.w	r4, [sp], #4
1a0001a4:	4770      	bx	lr
1a0001a6:	4770      	bx	lr

1a0001a8 <bss_init>:
    for (loop = 0; loop < len; loop = loop + 4)
1a0001a8:	2300      	movs	r3, #0
1a0001aa:	e003      	b.n	1a0001b4 <bss_init+0xc>
        *pulDest++ = 0;
1a0001ac:	2200      	movs	r2, #0
1a0001ae:	6002      	str	r2, [r0, #0]
    for (loop = 0; loop < len; loop = loop + 4)
1a0001b0:	3304      	adds	r3, #4
        *pulDest++ = 0;
1a0001b2:	3004      	adds	r0, #4
    for (loop = 0; loop < len; loop = loop + 4)
1a0001b4:	428b      	cmp	r3, r1
1a0001b6:	d3f9      	bcc.n	1a0001ac <bss_init+0x4>
}
1a0001b8:	4770      	bx	lr

1a0001ba <ADC0_IRQHandler>:
    CAN0_IRQHandler,          // 67
    QEI_IRQHandler,           // 68
};

__attribute__ ((section(".after_vectors")))
void IntDefaultHandler(void) {
1a0001ba:	e7fe      	b.n	1a0001ba <ADC0_IRQHandler>
1a0001bc:	ffff ffff 			; <UNDEFINED> instruction: 0xffffffff
1a0001c0:	ffff ffff 			; <UNDEFINED> instruction: 0xffffffff
1a0001c4:	ffff ffff 			; <UNDEFINED> instruction: 0xffffffff
1a0001c8:	ffff ffff 			; <UNDEFINED> instruction: 0xffffffff
1a0001cc:	ffff ffff 			; <UNDEFINED> instruction: 0xffffffff
1a0001d0:	ffff ffff 			; <UNDEFINED> instruction: 0xffffffff
1a0001d4:	ffff ffff 			; <UNDEFINED> instruction: 0xffffffff
1a0001d8:	ffff ffff 			; <UNDEFINED> instruction: 0xffffffff
1a0001dc:	ffff ffff 			; <UNDEFINED> instruction: 0xffffffff
1a0001e0:	ffff ffff 			; <UNDEFINED> instruction: 0xffffffff
1a0001e4:	ffff ffff 			; <UNDEFINED> instruction: 0xffffffff
1a0001e8:	ffff ffff 			; <UNDEFINED> instruction: 0xffffffff
1a0001ec:	ffff ffff 			; <UNDEFINED> instruction: 0xffffffff
1a0001f0:	ffff ffff 			; <UNDEFINED> instruction: 0xffffffff
1a0001f4:	ffff ffff 			; <UNDEFINED> instruction: 0xffffffff
1a0001f8:	ffff ffff 			; <UNDEFINED> instruction: 0xffffffff
1a0001fc:	ffff ffff 			; <UNDEFINED> instruction: 0xffffffff
1a000200:	ffff ffff 			; <UNDEFINED> instruction: 0xffffffff
1a000204:	ffff ffff 			; <UNDEFINED> instruction: 0xffffffff
1a000208:	ffff ffff 			; <UNDEFINED> instruction: 0xffffffff
1a00020c:	ffff ffff 			; <UNDEFINED> instruction: 0xffffffff
1a000210:	ffff ffff 			; <UNDEFINED> instruction: 0xffffffff
1a000214:	ffff ffff 			; <UNDEFINED> instruction: 0xffffffff
1a000218:	ffff ffff 			; <UNDEFINED> instruction: 0xffffffff
1a00021c:	ffff ffff 			; <UNDEFINED> instruction: 0xffffffff
1a000220:	ffff ffff 			; <UNDEFINED> instruction: 0xffffffff
1a000224:	ffff ffff 			; <UNDEFINED> instruction: 0xffffffff
1a000228:	ffff ffff 			; <UNDEFINED> instruction: 0xffffffff
1a00022c:	ffff ffff 			; <UNDEFINED> instruction: 0xffffffff
1a000230:	ffff ffff 			; <UNDEFINED> instruction: 0xffffffff
1a000234:	ffff ffff 			; <UNDEFINED> instruction: 0xffffffff
1a000238:	ffff ffff 			; <UNDEFINED> instruction: 0xffffffff
1a00023c:	ffff ffff 			; <UNDEFINED> instruction: 0xffffffff
1a000240:	ffff ffff 			; <UNDEFINED> instruction: 0xffffffff
1a000244:	ffff ffff 			; <UNDEFINED> instruction: 0xffffffff
1a000248:	ffff ffff 			; <UNDEFINED> instruction: 0xffffffff
1a00024c:	ffff ffff 			; <UNDEFINED> instruction: 0xffffffff
1a000250:	ffff ffff 			; <UNDEFINED> instruction: 0xffffffff
1a000254:	ffff ffff 			; <UNDEFINED> instruction: 0xffffffff
1a000258:	ffff ffff 			; <UNDEFINED> instruction: 0xffffffff
1a00025c:	ffff ffff 			; <UNDEFINED> instruction: 0xffffffff
1a000260:	ffff ffff 			; <UNDEFINED> instruction: 0xffffffff
1a000264:	ffff ffff 			; <UNDEFINED> instruction: 0xffffffff
1a000268:	ffff ffff 			; <UNDEFINED> instruction: 0xffffffff
1a00026c:	ffff ffff 			; <UNDEFINED> instruction: 0xffffffff
1a000270:	ffff ffff 			; <UNDEFINED> instruction: 0xffffffff
1a000274:	ffff ffff 			; <UNDEFINED> instruction: 0xffffffff
1a000278:	ffff ffff 			; <UNDEFINED> instruction: 0xffffffff
1a00027c:	ffff ffff 			; <UNDEFINED> instruction: 0xffffffff
1a000280:	ffff ffff 			; <UNDEFINED> instruction: 0xffffffff
1a000284:	ffff ffff 			; <UNDEFINED> instruction: 0xffffffff
1a000288:	ffff ffff 			; <UNDEFINED> instruction: 0xffffffff
1a00028c:	ffff ffff 			; <UNDEFINED> instruction: 0xffffffff
1a000290:	ffff ffff 			; <UNDEFINED> instruction: 0xffffffff
1a000294:	ffff ffff 			; <UNDEFINED> instruction: 0xffffffff
1a000298:	ffff ffff 			; <UNDEFINED> instruction: 0xffffffff
1a00029c:	ffff ffff 			; <UNDEFINED> instruction: 0xffffffff
1a0002a0:	ffff ffff 			; <UNDEFINED> instruction: 0xffffffff
1a0002a4:	ffff ffff 			; <UNDEFINED> instruction: 0xffffffff
1a0002a8:	ffff ffff 			; <UNDEFINED> instruction: 0xffffffff
1a0002ac:	ffff ffff 			; <UNDEFINED> instruction: 0xffffffff
1a0002b0:	ffff ffff 			; <UNDEFINED> instruction: 0xffffffff
1a0002b4:	ffff ffff 			; <UNDEFINED> instruction: 0xffffffff
1a0002b8:	ffff ffff 			; <UNDEFINED> instruction: 0xffffffff
1a0002bc:	ffff ffff 			; <UNDEFINED> instruction: 0xffffffff
1a0002c0:	ffff ffff 			; <UNDEFINED> instruction: 0xffffffff
1a0002c4:	ffff ffff 			; <UNDEFINED> instruction: 0xffffffff
1a0002c8:	ffff ffff 			; <UNDEFINED> instruction: 0xffffffff
1a0002cc:	ffff ffff 			; <UNDEFINED> instruction: 0xffffffff
1a0002d0:	ffff ffff 			; <UNDEFINED> instruction: 0xffffffff
1a0002d4:	ffff ffff 			; <UNDEFINED> instruction: 0xffffffff
1a0002d8:	ffff ffff 			; <UNDEFINED> instruction: 0xffffffff
1a0002dc:	ffff ffff 			; <UNDEFINED> instruction: 0xffffffff
1a0002e0:	ffff ffff 			; <UNDEFINED> instruction: 0xffffffff
1a0002e4:	ffff ffff 			; <UNDEFINED> instruction: 0xffffffff
1a0002e8:	ffff ffff 			; <UNDEFINED> instruction: 0xffffffff
1a0002ec:	ffff ffff 			; <UNDEFINED> instruction: 0xffffffff
1a0002f0:	ffff ffff 			; <UNDEFINED> instruction: 0xffffffff
1a0002f4:	ffff ffff 			; <UNDEFINED> instruction: 0xffffffff
1a0002f8:	ffff ffff 			; <UNDEFINED> instruction: 0xffffffff

1a0002fc <CRP_WORD>:
1a0002fc:	ffff ffff                                   ....

1a000300 <main>:
void clearbuffer(char* buffer, uint32_t longitud); // Funcion Clear buffer

/*=====[Main function, program entry point after power on or reset]==========*/

int main( void )
{
1a000300:	b5f0      	push	{r4, r5, r6, r7, lr}
1a000302:	ed2d 8b02 	vpush	{d8}
1a000306:	b0a9      	sub	sp, #164	; 0xa4

	 // ----- Variables -----------------------------------
	state_t state = Base;						//Estado inicial de la maquina.

	// ----- Variables -----------------------------------
	char opcion[] = "0";						//Opcion del Menu principal
1a000308:	2330      	movs	r3, #48	; 0x30
1a00030a:	f8ad 309c 	strh.w	r3, [sp, #156]	; 0x9c
	char date[50];								//Buffer para la respuestas de sonda.


	char auxC[] = "cc.cc";						//Variable Campo Compuesto
1a00030e:	4bc5      	ldr	r3, [pc, #788]	; (1a000624 <main+0x324>)
1a000310:	e893 0003 	ldmia.w	r3, {r0, r1}
1a000314:	9018      	str	r0, [sp, #96]	; 0x60
1a000316:	f8ad 1064 	strh.w	r1, [sp, #100]	; 0x64
	char auxR[] = "cccc";						//Variable Campo Compuesto
1a00031a:	4bc3      	ldr	r3, [pc, #780]	; (1a000628 <main+0x328>)
1a00031c:	e893 0003 	ldmia.w	r3, {r0, r1}
1a000320:	9016      	str	r0, [sp, #88]	; 0x58
1a000322:	f88d 105c 	strb.w	r1, [sp, #92]	; 0x5c
	uint8_t contador = 0;					//contador de mediciones correctar recibidas.
	float factor;


	 // ----- Setup -----------------------------------
	boardInit();
1a000326:	f001 fd1d 	bl	1a001d64 <boardInit>



	//-- configuracion UART
	uartConfig( UART_USB, 115200 ); // Inicializar UART_USB a 115200 baudios
1a00032a:	f44f 31e1 	mov.w	r1, #115200	; 0x1c200
1a00032e:	2003      	movs	r0, #3
1a000330:	f001 fa70 	bl	1a001814 <uartInit>
	uartConfig( UART_232, 115200); // Inicializar UART_232 a 115200 baudios
1a000334:	f44f 31e1 	mov.w	r1, #115200	; 0x1c200
1a000338:	2005      	movs	r0, #5
1a00033a:	f001 fa6b 	bl	1a001814 <uartInit>
	uint8_t contador = 0;					//contador de mediciones correctar recibidas.
1a00033e:	2600      	movs	r6, #0
	uint8_t escala = 4;							// factor de division para cc.cc
1a000340:	2704      	movs	r7, #4
	state_t state = Base;						//Estado inicial de la maquina.
1a000342:	4635      	mov	r5, r6
1a000344:	e014      	b.n	1a000370 <main+0x70>

		switch  (state) {

		case Base:					// Base inicial

			printf("MENU PRINCIPAL\r\n");
1a000346:	48b9      	ldr	r0, [pc, #740]	; (1a00062c <main+0x32c>)
1a000348:	f002 fd24 	bl	1a002d94 <puts>
			printf("(1) Medir Campo\r\n");
1a00034c:	48b8      	ldr	r0, [pc, #736]	; (1a000630 <main+0x330>)
1a00034e:	f002 fd21 	bl	1a002d94 <puts>
			printf("(2) ---\r\n");
1a000352:	48b8      	ldr	r0, [pc, #736]	; (1a000634 <main+0x334>)
1a000354:	f002 fd1e 	bl	1a002d94 <puts>
			printf("(3) --- \r\n");
1a000358:	48b7      	ldr	r0, [pc, #732]	; (1a000638 <main+0x338>)
1a00035a:	f002 fd1b 	bl	1a002d94 <puts>
			scanf("%s",opcion);
1a00035e:	a927      	add	r1, sp, #156	; 0x9c
1a000360:	48b6      	ldr	r0, [pc, #728]	; (1a00063c <main+0x33c>)
1a000362:	f002 fd1f 	bl	1a002da4 <scanf>
			printf("El valor ingresado: %s\r\n", opcion);
1a000366:	a927      	add	r1, sp, #156	; 0x9c
1a000368:	48b5      	ldr	r0, [pc, #724]	; (1a000640 <main+0x340>)
1a00036a:	f002 fcb1 	bl	1a002cd0 <printf>
			state = Opciones;
1a00036e:	2501      	movs	r5, #1
		switch  (state) {
1a000370:	2d05      	cmp	r5, #5
1a000372:	f200 8290 	bhi.w	1a000896 <main+0x596>
1a000376:	a301      	add	r3, pc, #4	; (adr r3, 1a00037c <main+0x7c>)
1a000378:	f853 f025 	ldr.w	pc, [r3, r5, lsl #2]
1a00037c:	1a000347 	.word	0x1a000347
1a000380:	1a000395 	.word	0x1a000395
1a000384:	1a0003cd 	.word	0x1a0003cd
1a000388:	1a00045b 	.word	0x1a00045b
1a00038c:	1a0004cb 	.word	0x1a0004cb
1a000390:	1a0007d3 	.word	0x1a0007d3
			break;

		case Opciones:				// Opciones de trabajo

			if (opcion[0] == '1'){
1a000394:	f89d 309c 	ldrb.w	r3, [sp, #156]	; 0x9c
1a000398:	2b31      	cmp	r3, #49	; 0x31
1a00039a:	d008      	beq.n	1a0003ae <main+0xae>
				opcion[0]= '0'; 		//clear opcion
				state = Conectar;
				break;
				}

			if (opcion[0] == '2'){
1a00039c:	2b32      	cmp	r3, #50	; 0x32
1a00039e:	d00b      	beq.n	1a0003b8 <main+0xb8>
				// Agregar opcion 2
				state = Base;
				break;
			}

			if (opcion[0] == '3'){
1a0003a0:	2b33      	cmp	r3, #51	; 0x33
1a0003a2:	d00e      	beq.n	1a0003c2 <main+0xc2>
				state = Base;
				break;
			}

			state = Base;
			opcion[0]= '0'; 			//clear opcion
1a0003a4:	2330      	movs	r3, #48	; 0x30
1a0003a6:	f88d 309c 	strb.w	r3, [sp, #156]	; 0x9c
			state = Base;
1a0003aa:	2500      	movs	r5, #0
			break;
1a0003ac:	e7e0      	b.n	1a000370 <main+0x70>
				opcion[0]= '0'; 		//clear opcion
1a0003ae:	2330      	movs	r3, #48	; 0x30
1a0003b0:	f88d 309c 	strb.w	r3, [sp, #156]	; 0x9c
				state = Conectar;
1a0003b4:	2502      	movs	r5, #2
				break;
1a0003b6:	e7db      	b.n	1a000370 <main+0x70>
				opcion[0]= '0'; 		//clear opcion
1a0003b8:	2330      	movs	r3, #48	; 0x30
1a0003ba:	f88d 309c 	strb.w	r3, [sp, #156]	; 0x9c
				state = Base;
1a0003be:	2500      	movs	r5, #0
				break;
1a0003c0:	e7d6      	b.n	1a000370 <main+0x70>
				opcion[0]= '0'; 		//clear opcion
1a0003c2:	2330      	movs	r3, #48	; 0x30
1a0003c4:	f88d 309c 	strb.w	r3, [sp, #156]	; 0x9c
				state = Base;
1a0003c8:	2500      	movs	r5, #0
				break;
1a0003ca:	e7d1      	b.n	1a000370 <main+0x70>

		case Conectar:								// Conectar SONDA

			printf("ENCENDER SONDA... \r\n");
1a0003cc:	489d      	ldr	r0, [pc, #628]	; (1a000644 <main+0x344>)
1a0003ce:	f002 fce1 	bl	1a002d94 <puts>

			delay(100);
1a0003d2:	2064      	movs	r0, #100	; 0x64
1a0003d4:	2100      	movs	r1, #0
1a0003d6:	f001 fcff 	bl	1a001dd8 <delay>

			uartTxWrite(UART_232, 'r');				// Comando encender sonda "r" -SONDA ON-
1a0003da:	2172      	movs	r1, #114	; 0x72
1a0003dc:	2005      	movs	r0, #5
1a0003de:	f001 fa0f 	bl	1a001800 <uartTxWrite>
			uartTxWrite(UART_232, '\r');
1a0003e2:	210d      	movs	r1, #13
1a0003e4:	2005      	movs	r0, #5
1a0003e6:	f001 fa0b 	bl	1a001800 <uartTxWrite>
			uartTxWrite(UART_232, '\n');
1a0003ea:	210a      	movs	r1, #10
1a0003ec:	2005      	movs	r0, #5
1a0003ee:	f001 fa07 	bl	1a001800 <uartTxWrite>

			date [0] = 0;							//clear respuesta de sonda
1a0003f2:	2300      	movs	r3, #0
1a0003f4:	f88d 3068 	strb.w	r3, [sp, #104]	; 0x68


			while (uartRxReady(UART_232)) { 		//Hay datos no leidos?
1a0003f8:	e00a      	b.n	1a000410 <main+0x110>
				for (uint8_t i = 0; i < 50; i++){
					date[i]= uartRxRead(UART_232);  //leo la respuesta de sonda
1a0003fa:	2005      	movs	r0, #5
1a0003fc:	f001 f9f6 	bl	1a0017ec <uartRxRead>
1a000400:	ab28      	add	r3, sp, #160	; 0xa0
1a000402:	4423      	add	r3, r4
1a000404:	f803 0c38 	strb.w	r0, [r3, #-56]
				for (uint8_t i = 0; i < 50; i++){
1a000408:	3401      	adds	r4, #1
1a00040a:	b2e4      	uxtb	r4, r4
1a00040c:	2c31      	cmp	r4, #49	; 0x31
1a00040e:	d9f4      	bls.n	1a0003fa <main+0xfa>
			while (uartRxReady(UART_232)) { 		//Hay datos no leidos?
1a000410:	2005      	movs	r0, #5
1a000412:	f001 f9d3 	bl	1a0017bc <uartRxReady>
1a000416:	b108      	cbz	r0, 1a00041c <main+0x11c>
				for (uint8_t i = 0; i < 50; i++){
1a000418:	2400      	movs	r4, #0
1a00041a:	e7f7      	b.n	1a00040c <main+0x10c>
					}
				}

			if ((date[0] == ':') && (date[1] == 'r')){  // Se verifica la respuesta de la sonda ":r" -SONDA OK-
1a00041c:	f89d 3068 	ldrb.w	r3, [sp, #104]	; 0x68
1a000420:	2b3a      	cmp	r3, #58	; 0x3a
1a000422:	d1a5      	bne.n	1a000370 <main+0x70>
1a000424:	f89d 3069 	ldrb.w	r3, [sp, #105]	; 0x69
1a000428:	2b72      	cmp	r3, #114	; 0x72
1a00042a:	d1a1      	bne.n	1a000370 <main+0x70>
				printf("ESTADO DE SONDA: ON\r\n");
1a00042c:	4886      	ldr	r0, [pc, #536]	; (1a000648 <main+0x348>)
1a00042e:	f002 fcb1 	bl	1a002d94 <puts>
				for (uint8_t i = 0; date[i] != '\0'; i++) {
1a000432:	2400      	movs	r4, #0
1a000434:	e004      	b.n	1a000440 <main+0x140>
					uartTxWrite(UART_USB, date[i]);
1a000436:	2003      	movs	r0, #3
1a000438:	f001 f9e2 	bl	1a001800 <uartTxWrite>
				for (uint8_t i = 0; date[i] != '\0'; i++) {
1a00043c:	3401      	adds	r4, #1
1a00043e:	b2e4      	uxtb	r4, r4
1a000440:	ab28      	add	r3, sp, #160	; 0xa0
1a000442:	4423      	add	r3, r4
1a000444:	f813 1c38 	ldrb.w	r1, [r3, #-56]
1a000448:	2900      	cmp	r1, #0
1a00044a:	d1f4      	bne.n	1a000436 <main+0x136>
					}
				delay(1000); // Debo esperar al menos unos segundos hasta que se inicie la sonda
1a00044c:	f44f 707a 	mov.w	r0, #1000	; 0x3e8
1a000450:	2100      	movs	r1, #0
1a000452:	f001 fcc1 	bl	1a001dd8 <delay>
				state = Medir;
1a000456:	2503      	movs	r5, #3
1a000458:	e78a      	b.n	1a000370 <main+0x70>
				}
			break;

		case Medir:							// Medicion SONDA

			printf("MEDIR CAMPO... \r\n");
1a00045a:	487c      	ldr	r0, [pc, #496]	; (1a00064c <main+0x34c>)
1a00045c:	f002 fc9a 	bl	1a002d94 <puts>

			char patron[] = "N";						//Patron fin del string.
1a000460:	234e      	movs	r3, #78	; 0x4e
1a000462:	f8ad 3014 	strh.w	r3, [sp, #20]
			uint16_t patronSize = sizeof(patron);

			char buffer[] = ":Dxx.xxyy.yyzz.zzcc.ccN";  //Buffer recepcion de caracteres. 23caracteres + '/0' = longitud 24
1a000466:	ac06      	add	r4, sp, #24
1a000468:	4d79      	ldr	r5, [pc, #484]	; (1a000650 <main+0x350>)
1a00046a:	cd0f      	ldmia	r5!, {r0, r1, r2, r3}
1a00046c:	c40f      	stmia	r4!, {r0, r1, r2, r3}
1a00046e:	e895 0003 	ldmia.w	r5, {r0, r1}
1a000472:	e884 0003 	stmia.w	r4, {r0, r1}
			uint32_t longitud = sizeof(buffer);
1a000476:	2318      	movs	r3, #24
1a000478:	9304      	str	r3, [sp, #16]
			char* receiveBuffer = buffer;				// es lo mismo que: *receiveBuffer = &buffer[0]; asigno al puntero (* receiveBuffer) la direccion del primer valor del buffer.
			uint32_t* receiveBufferSize = &longitud;	//  asigno al puntero (* receiveBufferSize) la direccion del valor longitud.

			tick_t timeout = 5000;  					//tiempo en miliseg de espera. 5Seg.

			uartTxWrite(UART_232, 'D');         //Comando D5 -> Medir Campo
1a00047a:	2144      	movs	r1, #68	; 0x44
1a00047c:	2005      	movs	r0, #5
1a00047e:	f001 f9bf 	bl	1a001800 <uartTxWrite>
			uartTxWrite(UART_232, '5');
1a000482:	2135      	movs	r1, #53	; 0x35
1a000484:	2005      	movs	r0, #5
1a000486:	f001 f9bb 	bl	1a001800 <uartTxWrite>
			uartTxWrite(UART_232, '\r');
1a00048a:	210d      	movs	r1, #13
1a00048c:	2005      	movs	r0, #5
1a00048e:	f001 f9b7 	bl	1a001800 <uartTxWrite>
			uartTxWrite(UART_232, '\n');
1a000492:	210a      	movs	r1, #10
1a000494:	2005      	movs	r0, #5
1a000496:	f001 f9b3 	bl	1a001800 <uartTxWrite>



			//Recibo y guardo caracteres hasta que llegue el caracter patron o finaliza por tiempoout.
			if (receiveBytesUntilReceiveStringOrTimeoutBlocking(UART_232,patron,patronSize,receiveBuffer,receiveBufferSize,timeout)){
1a00049a:	f241 3288 	movw	r2, #5000	; 0x1388
1a00049e:	2300      	movs	r3, #0
1a0004a0:	e9cd 2302 	strd	r2, r3, [sp, #8]
1a0004a4:	ab04      	add	r3, sp, #16
1a0004a6:	9300      	str	r3, [sp, #0]
1a0004a8:	ab06      	add	r3, sp, #24
1a0004aa:	2202      	movs	r2, #2
1a0004ac:	a905      	add	r1, sp, #20
1a0004ae:	2005      	movs	r0, #5
1a0004b0:	f001 fa62 	bl	1a001978 <receiveBytesUntilReceiveStringOrTimeoutBlocking>
1a0004b4:	b120      	cbz	r0, 1a0004c0 <main+0x1c0>
				gpioToggle(LED1);
1a0004b6:	202b      	movs	r0, #43	; 0x2b
1a0004b8:	f001 fc3b 	bl	1a001d32 <gpioToggle>
				state = Procesar;
1a0004bc:	2504      	movs	r5, #4
1a0004be:	e757      	b.n	1a000370 <main+0x70>
				}
				else{												//Error por timeout o sin patron final
					gpioToggle(LED2);
1a0004c0:	202c      	movs	r0, #44	; 0x2c
1a0004c2:	f001 fc36 	bl	1a001d32 <gpioToggle>
					state = Error;
1a0004c6:	2505      	movs	r5, #5
1a0004c8:	e752      	b.n	1a000370 <main+0x70>
					}
			break;

		case Procesar:

			if(buffer[0]== ':' && buffer[1]== 'D'){				//Verificacion de recepcion ":D"
1a0004ca:	f89d 3018 	ldrb.w	r3, [sp, #24]
1a0004ce:	2b3a      	cmp	r3, #58	; 0x3a
1a0004d0:	d001      	beq.n	1a0004d6 <main+0x1d6>
					state = Base;
					}

			}
			else{											//Error en verificacion de recepcion ":D"
				state = Error;
1a0004d2:	2505      	movs	r5, #5
1a0004d4:	e74c      	b.n	1a000370 <main+0x70>
			if(buffer[0]== ':' && buffer[1]== 'D'){				//Verificacion de recepcion ":D"
1a0004d6:	f89d 3019 	ldrb.w	r3, [sp, #25]
1a0004da:	2b44      	cmp	r3, #68	; 0x44
1a0004dc:	d001      	beq.n	1a0004e2 <main+0x1e2>
				state = Error;
1a0004de:	2505      	movs	r5, #5
		switch  (state) {
1a0004e0:	e746      	b.n	1a000370 <main+0x70>
				gpioToggle(LED3);
1a0004e2:	202d      	movs	r0, #45	; 0x2d
1a0004e4:	f001 fc25 	bl	1a001d32 <gpioToggle>
				for(uint32_t i=17 ; i<(longitud-1) ; i++ ){		//Conservo solo los caracteres del tipo "cc.cc" o ".cccc"
1a0004e8:	2311      	movs	r3, #17
1a0004ea:	e00a      	b.n	1a000502 <main+0x202>
					auxC[i-17]=buffer[i];
1a0004ec:	f1a3 0211 	sub.w	r2, r3, #17
1a0004f0:	a928      	add	r1, sp, #160	; 0xa0
1a0004f2:	4419      	add	r1, r3
1a0004f4:	f811 1c88 	ldrb.w	r1, [r1, #-136]
1a0004f8:	a828      	add	r0, sp, #160	; 0xa0
1a0004fa:	4402      	add	r2, r0
1a0004fc:	f802 1c40 	strb.w	r1, [r2, #-64]
				for(uint32_t i=17 ; i<(longitud-1) ; i++ ){		//Conservo solo los caracteres del tipo "cc.cc" o ".cccc"
1a000500:	3301      	adds	r3, #1
1a000502:	9a04      	ldr	r2, [sp, #16]
1a000504:	3a01      	subs	r2, #1
1a000506:	429a      	cmp	r2, r3
1a000508:	d8f0      	bhi.n	1a0004ec <main+0x1ec>
				for (uint8_t i = 0;i<longitudC;i++){
1a00050a:	2300      	movs	r3, #0
1a00050c:	e001      	b.n	1a000512 <main+0x212>
1a00050e:	3301      	adds	r3, #1
1a000510:	b2db      	uxtb	r3, r3
1a000512:	2b05      	cmp	r3, #5
1a000514:	d807      	bhi.n	1a000526 <main+0x226>
					if(auxC[i] == '.'){							//  i=1 -> /1000 | i=2 -> /100 | i=3 -> /10 |i=4 -> /1
1a000516:	aa28      	add	r2, sp, #160	; 0xa0
1a000518:	441a      	add	r2, r3
1a00051a:	f812 2c40 	ldrb.w	r2, [r2, #-64]
1a00051e:	2a2e      	cmp	r2, #46	; 0x2e
1a000520:	d1f5      	bne.n	1a00050e <main+0x20e>
						escala = i;
1a000522:	461f      	mov	r7, r3
1a000524:	e7f3      	b.n	1a00050e <main+0x20e>
				switch (escala){
1a000526:	2f04      	cmp	r7, #4
1a000528:	d830      	bhi.n	1a00058c <main+0x28c>
1a00052a:	e8df f017 	tbh	[pc, r7, lsl #1]
1a00052e:	0034      	.short	0x0034
1a000530:	009d0042 	.word	0x009d0042
1a000534:	012700e3 	.word	0x012700e3
									auxR[i-1]=auxC[i];
1a000538:	1e5a      	subs	r2, r3, #1
1a00053a:	a928      	add	r1, sp, #160	; 0xa0
1a00053c:	4419      	add	r1, r3
1a00053e:	f811 1c40 	ldrb.w	r1, [r1, #-64]
1a000542:	a828      	add	r0, sp, #160	; 0xa0
1a000544:	4402      	add	r2, r0
1a000546:	f802 1c48 	strb.w	r1, [r2, #-72]
								for(uint8_t i = 1;i<longitudC;i++){
1a00054a:	3301      	adds	r3, #1
1a00054c:	b2db      	uxtb	r3, r3
1a00054e:	2b05      	cmp	r3, #5
1a000550:	d9f2      	bls.n	1a000538 <main+0x238>
								ret = strtol(auxR, &ptr, 10);				// de char a int.
1a000552:	220a      	movs	r2, #10
1a000554:	a905      	add	r1, sp, #20
1a000556:	a816      	add	r0, sp, #88	; 0x58
1a000558:	f002 fd64 	bl	1a003024 <strtol>
								listvalor[contador]= ((float)ret)/(float)10000; // int a float ajustado a su escala
1a00055c:	ee07 0a90 	vmov	s15, r0
1a000560:	eef8 6ae7 	vcvt.f32.s32	s13, s15
1a000564:	ed9f 7a3b 	vldr	s14, [pc, #236]	; 1a000654 <main+0x354>
1a000568:	eec6 7a87 	vdiv.f32	s15, s13, s14
1a00056c:	ab28      	add	r3, sp, #160	; 0xa0
1a00056e:	eb03 0386 	add.w	r3, r3, r6, lsl #2
1a000572:	ed43 7a1c 	vstr	s15, [r3, #-112]	; 0xffffff90
								printf("El valor ingresado caso 0: %.4f\r\n", listvalor[contador]);
1a000576:	ee17 0a90 	vmov	r0, s15
1a00057a:	f001 fddf 	bl	1a00213c <__aeabi_f2d>
1a00057e:	4602      	mov	r2, r0
1a000580:	460b      	mov	r3, r1
1a000582:	4835      	ldr	r0, [pc, #212]	; (1a000658 <main+0x358>)
1a000584:	f002 fba4 	bl	1a002cd0 <printf>
								contador++;
1a000588:	3601      	adds	r6, #1
1a00058a:	b2f6      	uxtb	r6, r6
				if(contador == 10){
1a00058c:	2e0a      	cmp	r6, #10
1a00058e:	f000 80f7 	beq.w	1a000780 <main+0x480>
				state = Medir;
1a000592:	2503      	movs	r5, #3
			if(buffer[0]== ':' && buffer[1]== 'D'){				//Verificacion de recepcion ":D"
1a000594:	e6ec      	b.n	1a000370 <main+0x70>
								for(uint8_t i = 1;i<longitudC;i++){
1a000596:	2301      	movs	r3, #1
1a000598:	e7d9      	b.n	1a00054e <main+0x24e>
									auxR[i]=auxC[i];
1a00059a:	aa28      	add	r2, sp, #160	; 0xa0
1a00059c:	441a      	add	r2, r3
1a00059e:	f812 1c40 	ldrb.w	r1, [r2, #-64]
1a0005a2:	f802 1c48 	strb.w	r1, [r2, #-72]
								for(uint8_t i = 0;i<escala;i++){
1a0005a6:	3301      	adds	r3, #1
1a0005a8:	b2db      	uxtb	r3, r3
1a0005aa:	429f      	cmp	r7, r3
1a0005ac:	d8f5      	bhi.n	1a00059a <main+0x29a>
								for(uint8_t i = 2;i<longitudC;i++){
1a0005ae:	2302      	movs	r3, #2
1a0005b0:	e00c      	b.n	1a0005cc <main+0x2cc>
								for(uint8_t i = 0;i<escala;i++){
1a0005b2:	2300      	movs	r3, #0
1a0005b4:	e7f9      	b.n	1a0005aa <main+0x2aa>
									auxR[i-1]=auxC[i];
1a0005b6:	1e5a      	subs	r2, r3, #1
1a0005b8:	a928      	add	r1, sp, #160	; 0xa0
1a0005ba:	4419      	add	r1, r3
1a0005bc:	f811 1c40 	ldrb.w	r1, [r1, #-64]
1a0005c0:	a828      	add	r0, sp, #160	; 0xa0
1a0005c2:	4402      	add	r2, r0
1a0005c4:	f802 1c48 	strb.w	r1, [r2, #-72]
								for(uint8_t i = 2;i<longitudC;i++){
1a0005c8:	3301      	adds	r3, #1
1a0005ca:	b2db      	uxtb	r3, r3
1a0005cc:	2b05      	cmp	r3, #5
1a0005ce:	d9f2      	bls.n	1a0005b6 <main+0x2b6>
								ret = strtol(auxR, &ptr, 10);  					// de char a int.
1a0005d0:	220a      	movs	r2, #10
1a0005d2:	a905      	add	r1, sp, #20
1a0005d4:	a816      	add	r0, sp, #88	; 0x58
1a0005d6:	f002 fd25 	bl	1a003024 <strtol>
								listvalor[contador]= ((float)ret)/(float)1000;; // int a float ajustado a su escala
1a0005da:	ee07 0a90 	vmov	s15, r0
1a0005de:	eef8 6ae7 	vcvt.f32.s32	s13, s15
1a0005e2:	ed9f 7a1e 	vldr	s14, [pc, #120]	; 1a00065c <main+0x35c>
1a0005e6:	eec6 7a87 	vdiv.f32	s15, s13, s14
1a0005ea:	ab28      	add	r3, sp, #160	; 0xa0
1a0005ec:	eb03 0386 	add.w	r3, r3, r6, lsl #2
1a0005f0:	ed43 7a1c 	vstr	s15, [r3, #-112]	; 0xffffff90
								printf("El valor ingresado caso 1: %.4f\r\n", listvalor[contador]);
1a0005f4:	ee17 0a90 	vmov	r0, s15
1a0005f8:	f001 fda0 	bl	1a00213c <__aeabi_f2d>
1a0005fc:	4602      	mov	r2, r0
1a0005fe:	460b      	mov	r3, r1
1a000600:	4817      	ldr	r0, [pc, #92]	; (1a000660 <main+0x360>)
1a000602:	f002 fb65 	bl	1a002cd0 <printf>
								contador++;
1a000606:	3601      	adds	r6, #1
1a000608:	b2f6      	uxtb	r6, r6
								break;
1a00060a:	e7bf      	b.n	1a00058c <main+0x28c>
									auxR[i]=auxC[i];
1a00060c:	aa28      	add	r2, sp, #160	; 0xa0
1a00060e:	441a      	add	r2, r3
1a000610:	f812 1c40 	ldrb.w	r1, [r2, #-64]
1a000614:	f802 1c48 	strb.w	r1, [r2, #-72]
								for(uint8_t i = 0;i<escala;i++){
1a000618:	3301      	adds	r3, #1
1a00061a:	b2db      	uxtb	r3, r3
1a00061c:	429f      	cmp	r7, r3
1a00061e:	d8f5      	bhi.n	1a00060c <main+0x30c>
								for(uint8_t i = 3;i<longitudC;i++){
1a000620:	2303      	movs	r3, #3
1a000622:	e02e      	b.n	1a000682 <main+0x382>
1a000624:	1a00d470 	.word	0x1a00d470
1a000628:	1a00d478 	.word	0x1a00d478
1a00062c:	1a00d1f0 	.word	0x1a00d1f0
1a000630:	1a00d200 	.word	0x1a00d200
1a000634:	1a00d214 	.word	0x1a00d214
1a000638:	1a00d220 	.word	0x1a00d220
1a00063c:	1a00d22c 	.word	0x1a00d22c
1a000640:	1a00d230 	.word	0x1a00d230
1a000644:	1a00d24c 	.word	0x1a00d24c
1a000648:	1a00d260 	.word	0x1a00d260
1a00064c:	1a00d278 	.word	0x1a00d278
1a000650:	1a00d480 	.word	0x1a00d480
1a000654:	461c4000 	.word	0x461c4000
1a000658:	1a00d28c 	.word	0x1a00d28c
1a00065c:	447a0000 	.word	0x447a0000
1a000660:	1a00d2b0 	.word	0x1a00d2b0
1a000664:	42c80000 	.word	0x42c80000
								for(uint8_t i = 0;i<escala;i++){
1a000668:	2300      	movs	r3, #0
1a00066a:	e7d7      	b.n	1a00061c <main+0x31c>
									auxR[i-1]=auxC[i];
1a00066c:	1e5a      	subs	r2, r3, #1
1a00066e:	a928      	add	r1, sp, #160	; 0xa0
1a000670:	4419      	add	r1, r3
1a000672:	f811 1c40 	ldrb.w	r1, [r1, #-64]
1a000676:	a828      	add	r0, sp, #160	; 0xa0
1a000678:	4402      	add	r2, r0
1a00067a:	f802 1c48 	strb.w	r1, [r2, #-72]
								for(uint8_t i = 3;i<longitudC;i++){
1a00067e:	3301      	adds	r3, #1
1a000680:	b2db      	uxtb	r3, r3
1a000682:	2b05      	cmp	r3, #5
1a000684:	d9f2      	bls.n	1a00066c <main+0x36c>
								ret = strtol(auxR, &ptr, 10);
1a000686:	220a      	movs	r2, #10
1a000688:	a905      	add	r1, sp, #20
1a00068a:	a816      	add	r0, sp, #88	; 0x58
1a00068c:	f002 fcca 	bl	1a003024 <strtol>
								listvalor[contador]= (float)ret/(float)100; //
1a000690:	ee07 0a90 	vmov	s15, r0
1a000694:	eef8 6ae7 	vcvt.f32.s32	s13, s15
1a000698:	ed1f 7a0e 	vldr	s14, [pc, #-56]	; 1a000664 <main+0x364>
1a00069c:	eec6 7a87 	vdiv.f32	s15, s13, s14
1a0006a0:	ab28      	add	r3, sp, #160	; 0xa0
1a0006a2:	eb03 0386 	add.w	r3, r3, r6, lsl #2
1a0006a6:	ed43 7a1c 	vstr	s15, [r3, #-112]	; 0xffffff90
								printf("El valor ingresado caso 2 float: %.4f\r\n",listvalor[contador]);
1a0006aa:	ee17 0a90 	vmov	r0, s15
1a0006ae:	f001 fd45 	bl	1a00213c <__aeabi_f2d>
1a0006b2:	4602      	mov	r2, r0
1a0006b4:	460b      	mov	r3, r1
1a0006b6:	4879      	ldr	r0, [pc, #484]	; (1a00089c <main+0x59c>)
1a0006b8:	f002 fb0a 	bl	1a002cd0 <printf>
								contador++;
1a0006bc:	3601      	adds	r6, #1
1a0006be:	b2f6      	uxtb	r6, r6
								break;
1a0006c0:	e764      	b.n	1a00058c <main+0x28c>
									auxR[i]=auxC[i];
1a0006c2:	aa28      	add	r2, sp, #160	; 0xa0
1a0006c4:	441a      	add	r2, r3
1a0006c6:	f812 1c40 	ldrb.w	r1, [r2, #-64]
1a0006ca:	f802 1c48 	strb.w	r1, [r2, #-72]
								for(uint8_t i = 0;i<escala;i++){
1a0006ce:	3301      	adds	r3, #1
1a0006d0:	b2db      	uxtb	r3, r3
1a0006d2:	429f      	cmp	r7, r3
1a0006d4:	d8f5      	bhi.n	1a0006c2 <main+0x3c2>
								for(uint8_t i = 4;i<longitudC;i++){
1a0006d6:	2304      	movs	r3, #4
1a0006d8:	2b05      	cmp	r3, #5
1a0006da:	d80d      	bhi.n	1a0006f8 <main+0x3f8>
									auxR[i-1]=auxC[i];
1a0006dc:	1e5a      	subs	r2, r3, #1
1a0006de:	a928      	add	r1, sp, #160	; 0xa0
1a0006e0:	4419      	add	r1, r3
1a0006e2:	f811 1c40 	ldrb.w	r1, [r1, #-64]
1a0006e6:	a828      	add	r0, sp, #160	; 0xa0
1a0006e8:	4402      	add	r2, r0
1a0006ea:	f802 1c48 	strb.w	r1, [r2, #-72]
								for(uint8_t i = 4;i<longitudC;i++){
1a0006ee:	3301      	adds	r3, #1
1a0006f0:	b2db      	uxtb	r3, r3
1a0006f2:	e7f1      	b.n	1a0006d8 <main+0x3d8>
								for(uint8_t i = 0;i<escala;i++){
1a0006f4:	2300      	movs	r3, #0
1a0006f6:	e7ec      	b.n	1a0006d2 <main+0x3d2>
								ret = strtol(auxR, &ptr, 10);
1a0006f8:	220a      	movs	r2, #10
1a0006fa:	a905      	add	r1, sp, #20
1a0006fc:	a816      	add	r0, sp, #88	; 0x58
1a0006fe:	f002 fc91 	bl	1a003024 <strtol>
								listvalor[contador]= ((float)ret)/(float)10;
1a000702:	ee07 0a90 	vmov	s15, r0
1a000706:	eef8 6ae7 	vcvt.f32.s32	s13, s15
1a00070a:	eeb2 7a04 	vmov.f32	s14, #36	; 0x41200000  10.0
1a00070e:	eec6 7a87 	vdiv.f32	s15, s13, s14
1a000712:	ab28      	add	r3, sp, #160	; 0xa0
1a000714:	eb03 0386 	add.w	r3, r3, r6, lsl #2
1a000718:	ed43 7a1c 	vstr	s15, [r3, #-112]	; 0xffffff90
								printf("El valor ingresado caso 3: %.4f\r\n",listvalor[contador]);
1a00071c:	ee17 0a90 	vmov	r0, s15
1a000720:	f001 fd0c 	bl	1a00213c <__aeabi_f2d>
1a000724:	4602      	mov	r2, r0
1a000726:	460b      	mov	r3, r1
1a000728:	485d      	ldr	r0, [pc, #372]	; (1a0008a0 <main+0x5a0>)
1a00072a:	f002 fad1 	bl	1a002cd0 <printf>
								contador++;
1a00072e:	3601      	adds	r6, #1
1a000730:	b2f6      	uxtb	r6, r6
								break;
1a000732:	e72b      	b.n	1a00058c <main+0x28c>
									auxR[i]=auxC[i];
1a000734:	aa28      	add	r2, sp, #160	; 0xa0
1a000736:	441a      	add	r2, r3
1a000738:	f812 1c40 	ldrb.w	r1, [r2, #-64]
1a00073c:	f802 1c48 	strb.w	r1, [r2, #-72]
								for(uint8_t i = 0;i<longitudC-1;i++){
1a000740:	3301      	adds	r3, #1
1a000742:	b2db      	uxtb	r3, r3
1a000744:	2b04      	cmp	r3, #4
1a000746:	d9f5      	bls.n	1a000734 <main+0x434>
								ret = strtol(auxR, &ptr, 10);
1a000748:	220a      	movs	r2, #10
1a00074a:	a905      	add	r1, sp, #20
1a00074c:	a816      	add	r0, sp, #88	; 0x58
1a00074e:	f002 fc69 	bl	1a003024 <strtol>
								listvalor[contador]= ((float)ret)/(float)1;
1a000752:	ee07 0a90 	vmov	s15, r0
1a000756:	eef8 7ae7 	vcvt.f32.s32	s15, s15
1a00075a:	ab28      	add	r3, sp, #160	; 0xa0
1a00075c:	eb03 0386 	add.w	r3, r3, r6, lsl #2
1a000760:	ed43 7a1c 	vstr	s15, [r3, #-112]	; 0xffffff90
								printf("El valor ingresado caso 4: %.4f\r\n", listvalor[contador]);
1a000764:	ee17 0a90 	vmov	r0, s15
1a000768:	f001 fce8 	bl	1a00213c <__aeabi_f2d>
1a00076c:	4602      	mov	r2, r0
1a00076e:	460b      	mov	r3, r1
1a000770:	484c      	ldr	r0, [pc, #304]	; (1a0008a4 <main+0x5a4>)
1a000772:	f002 faad 	bl	1a002cd0 <printf>
								contador++;
1a000776:	3601      	adds	r6, #1
1a000778:	b2f6      	uxtb	r6, r6
								break;
1a00077a:	e707      	b.n	1a00058c <main+0x28c>
								for(uint8_t i = 0;i<longitudC-1;i++){
1a00077c:	2300      	movs	r3, #0
1a00077e:	e7e1      	b.n	1a000744 <main+0x444>
					float suma = listvalor[0];
1a000780:	ed9d 8a0c 	vldr	s16, [sp, #48]	; 0x30
					for(uint8_t i=1;i<10;i++){
1a000784:	2301      	movs	r3, #1
1a000786:	e008      	b.n	1a00079a <main+0x49a>
						suma = (suma + listvalor[i]);
1a000788:	aa28      	add	r2, sp, #160	; 0xa0
1a00078a:	eb02 0283 	add.w	r2, r2, r3, lsl #2
1a00078e:	ed52 7a1c 	vldr	s15, [r2, #-112]	; 0xffffff90
1a000792:	ee38 8a27 	vadd.f32	s16, s16, s15
					for(uint8_t i=1;i<10;i++){
1a000796:	3301      	adds	r3, #1
1a000798:	b2db      	uxtb	r3, r3
1a00079a:	2b09      	cmp	r3, #9
1a00079c:	d9f4      	bls.n	1a000788 <main+0x488>
					printf("El lista de valores: %.4f\r\n", suma);
1a00079e:	ee18 0a10 	vmov	r0, s16
1a0007a2:	f001 fccb 	bl	1a00213c <__aeabi_f2d>
1a0007a6:	4c40      	ldr	r4, [pc, #256]	; (1a0008a8 <main+0x5a8>)
1a0007a8:	4602      	mov	r2, r0
1a0007aa:	460b      	mov	r3, r1
1a0007ac:	4620      	mov	r0, r4
1a0007ae:	f002 fa8f 	bl	1a002cd0 <printf>
					printf("El lista de valores: %.4f\r\n", suma/(float)10);
1a0007b2:	eef2 7a04 	vmov.f32	s15, #36	; 0x41200000  10.0
1a0007b6:	eec8 7a27 	vdiv.f32	s15, s16, s15
1a0007ba:	ee17 0a90 	vmov	r0, s15
1a0007be:	f001 fcbd 	bl	1a00213c <__aeabi_f2d>
1a0007c2:	4602      	mov	r2, r0
1a0007c4:	460b      	mov	r3, r1
1a0007c6:	4620      	mov	r0, r4
1a0007c8:	f002 fa82 	bl	1a002cd0 <printf>
					contador =0;
1a0007cc:	2600      	movs	r6, #0
					state = Base;
1a0007ce:	4635      	mov	r5, r6
1a0007d0:	e5ce      	b.n	1a000370 <main+0x70>
				}

			break;

		case Error:
			gpioToggle(LEDB);
1a0007d2:	202a      	movs	r0, #42	; 0x2a
1a0007d4:	f001 faad 	bl	1a001d32 <gpioToggle>
			if(buffer[0]== 'E'){
1a0007d8:	f89d 3018 	ldrb.w	r3, [sp, #24]
1a0007dc:	2b45      	cmp	r3, #69	; 0x45
1a0007de:	d149      	bne.n	1a000874 <main+0x574>
			switch(buffer[1]){
1a0007e0:	f89d 3019 	ldrb.w	r3, [sp, #25]
1a0007e4:	3b31      	subs	r3, #49	; 0x31
1a0007e6:	2b08      	cmp	r3, #8
1a0007e8:	d833      	bhi.n	1a000852 <main+0x552>
1a0007ea:	e8df f003 	tbb	[pc, r3]
1a0007ee:	0a05      	.short	0x0a05
1a0007f0:	1e19140f 	.word	0x1e19140f
1a0007f4:	2823      	.short	0x2823
1a0007f6:	2d          	.byte	0x2d
1a0007f7:	00          	.byte	0x00
				case '1':
					printf("ERROR DE COMUNICACION E1\r\n");
1a0007f8:	482c      	ldr	r0, [pc, #176]	; (1a0008ac <main+0x5ac>)
1a0007fa:	f002 facb 	bl	1a002d94 <puts>
				printf("TIEMPO OUT..\r\n");
				uartWriteString( UART_USB, buffer );
				uartTxWrite(UART_USB,'\r');
				uartTxWrite(UART_USB,'\n');
				}
			state = Medir;
1a0007fe:	2503      	movs	r5, #3
					break;
1a000800:	e5b6      	b.n	1a000370 <main+0x70>
					printf("ERROR DE BUFFER E2\r\n");
1a000802:	482b      	ldr	r0, [pc, #172]	; (1a0008b0 <main+0x5b0>)
1a000804:	f002 fac6 	bl	1a002d94 <puts>
			state = Medir;
1a000808:	2503      	movs	r5, #3
					break;
1a00080a:	e5b1      	b.n	1a000370 <main+0x70>
					printf("COMANDO RECIBIDO NO VALIDO E3\r\n");
1a00080c:	4829      	ldr	r0, [pc, #164]	; (1a0008b4 <main+0x5b4>)
1a00080e:	f002 fac1 	bl	1a002d94 <puts>
			state = Medir;
1a000812:	2503      	movs	r5, #3
					break;
1a000814:	e5ac      	b.n	1a000370 <main+0x70>
					printf("PARAMETRO RECIBIDO NO VALIDO E4\r\n");
1a000816:	4828      	ldr	r0, [pc, #160]	; (1a0008b8 <main+0x5b8>)
1a000818:	f002 fabc 	bl	1a002d94 <puts>
			state = Medir;
1a00081c:	2503      	movs	r5, #3
					break;
1a00081e:	e5a7      	b.n	1a000370 <main+0x70>
					printf("ERROR DE HARDWARE E5\r\n");
1a000820:	4826      	ldr	r0, [pc, #152]	; (1a0008bc <main+0x5bc>)
1a000822:	f002 fab7 	bl	1a002d94 <puts>
			state = Medir;
1a000826:	2503      	movs	r5, #3
					break;
1a000828:	e5a2      	b.n	1a000370 <main+0x70>
					printf("ERROR DE PARIDAD E6\r\n");
1a00082a:	4825      	ldr	r0, [pc, #148]	; (1a0008c0 <main+0x5c0>)
1a00082c:	f002 fab2 	bl	1a002d94 <puts>
			state = Medir;
1a000830:	2503      	movs	r5, #3
					break;
1a000832:	e59d      	b.n	1a000370 <main+0x70>
					printf("COMANDO RECIBIDO INCORRECTO E7\r\n");
1a000834:	4823      	ldr	r0, [pc, #140]	; (1a0008c4 <main+0x5c4>)
1a000836:	f002 faad 	bl	1a002d94 <puts>
			state = Medir;
1a00083a:	2503      	movs	r5, #3
					break;
1a00083c:	e598      	b.n	1a000370 <main+0x70>
					printf("COMANDO NO DISPONIBLE E8\r\n");
1a00083e:	4822      	ldr	r0, [pc, #136]	; (1a0008c8 <main+0x5c8>)
1a000840:	f002 faa8 	bl	1a002d94 <puts>
			state = Medir;
1a000844:	2503      	movs	r5, #3
					break;
1a000846:	e593      	b.n	1a000370 <main+0x70>
					printf("COMANDO RECIBIDO INCORRECTO E9\r\n");
1a000848:	4820      	ldr	r0, [pc, #128]	; (1a0008cc <main+0x5cc>)
1a00084a:	f002 faa3 	bl	1a002d94 <puts>
			state = Medir;
1a00084e:	2503      	movs	r5, #3
					break;
1a000850:	e58e      	b.n	1a000370 <main+0x70>
					printf("TIEMPO OUT..\r\n");
1a000852:	481f      	ldr	r0, [pc, #124]	; (1a0008d0 <main+0x5d0>)
1a000854:	f002 fa9e 	bl	1a002d94 <puts>
					uartWriteString( UART_USB, buffer );
1a000858:	a906      	add	r1, sp, #24
1a00085a:	2003      	movs	r0, #3
1a00085c:	f001 f8b9 	bl	1a0019d2 <uartWriteString>
					uartTxWrite(UART_USB,'\r');
1a000860:	210d      	movs	r1, #13
1a000862:	2003      	movs	r0, #3
1a000864:	f000 ffcc 	bl	1a001800 <uartTxWrite>
					uartTxWrite(UART_USB,'\n');
1a000868:	210a      	movs	r1, #10
1a00086a:	2003      	movs	r0, #3
1a00086c:	f000 ffc8 	bl	1a001800 <uartTxWrite>
			state = Medir;
1a000870:	2503      	movs	r5, #3
					break;
1a000872:	e57d      	b.n	1a000370 <main+0x70>
				printf("TIEMPO OUT..\r\n");
1a000874:	4816      	ldr	r0, [pc, #88]	; (1a0008d0 <main+0x5d0>)
1a000876:	f002 fa8d 	bl	1a002d94 <puts>
				uartWriteString( UART_USB, buffer );
1a00087a:	a906      	add	r1, sp, #24
1a00087c:	2003      	movs	r0, #3
1a00087e:	f001 f8a8 	bl	1a0019d2 <uartWriteString>
				uartTxWrite(UART_USB,'\r');
1a000882:	210d      	movs	r1, #13
1a000884:	2003      	movs	r0, #3
1a000886:	f000 ffbb 	bl	1a001800 <uartTxWrite>
				uartTxWrite(UART_USB,'\n');
1a00088a:	210a      	movs	r1, #10
1a00088c:	2003      	movs	r0, #3
1a00088e:	f000 ffb7 	bl	1a001800 <uartTxWrite>
			state = Medir;
1a000892:	2503      	movs	r5, #3
1a000894:	e56c      	b.n	1a000370 <main+0x70>
			break;

		default:
			state = Base;
1a000896:	2500      	movs	r5, #0
1a000898:	e56a      	b.n	1a000370 <main+0x70>
1a00089a:	bf00      	nop
1a00089c:	1a00d2d4 	.word	0x1a00d2d4
1a0008a0:	1a00d2fc 	.word	0x1a00d2fc
1a0008a4:	1a00d320 	.word	0x1a00d320
1a0008a8:	1a00d344 	.word	0x1a00d344
1a0008ac:	1a00d360 	.word	0x1a00d360
1a0008b0:	1a00d37c 	.word	0x1a00d37c
1a0008b4:	1a00d390 	.word	0x1a00d390
1a0008b8:	1a00d3b0 	.word	0x1a00d3b0
1a0008bc:	1a00d3d4 	.word	0x1a00d3d4
1a0008c0:	1a00d3ec 	.word	0x1a00d3ec
1a0008c4:	1a00d404 	.word	0x1a00d404
1a0008c8:	1a00d424 	.word	0x1a00d424
1a0008cc:	1a00d440 	.word	0x1a00d440
1a0008d0:	1a00d460 	.word	0x1a00d460

1a0008d4 <initialise_monitor_handles>:
}
1a0008d4:	4770      	bx	lr
1a0008d6:	Address 0x000000001a0008d6 is out of bounds.


1a0008d8 <Reset_Handler>:
void Reset_Handler(void) {
1a0008d8:	b510      	push	{r4, lr}
    __asm__ volatile("cpsid i");
1a0008da:	b672      	cpsid	i
    *(RESET_CONTROL + 0) = 0x10DF1000;
1a0008dc:	4b19      	ldr	r3, [pc, #100]	; (1a000944 <Reset_Handler+0x6c>)
1a0008de:	4a1a      	ldr	r2, [pc, #104]	; (1a000948 <Reset_Handler+0x70>)
1a0008e0:	601a      	str	r2, [r3, #0]
    *(RESET_CONTROL + 1) = 0x01DFF7FF;
1a0008e2:	3304      	adds	r3, #4
1a0008e4:	4a19      	ldr	r2, [pc, #100]	; (1a00094c <Reset_Handler+0x74>)
1a0008e6:	601a      	str	r2, [r3, #0]
    for (irqpendloop = 0; irqpendloop < 8; irqpendloop++) {
1a0008e8:	2300      	movs	r3, #0
1a0008ea:	e005      	b.n	1a0008f8 <Reset_Handler+0x20>
        *(NVIC_ICPR + irqpendloop) = 0xFFFFFFFF;
1a0008ec:	4a18      	ldr	r2, [pc, #96]	; (1a000950 <Reset_Handler+0x78>)
1a0008ee:	f04f 31ff 	mov.w	r1, #4294967295	; 0xffffffff
1a0008f2:	f842 1023 	str.w	r1, [r2, r3, lsl #2]
    for (irqpendloop = 0; irqpendloop < 8; irqpendloop++) {
1a0008f6:	3301      	adds	r3, #1
1a0008f8:	2b07      	cmp	r3, #7
1a0008fa:	d9f7      	bls.n	1a0008ec <Reset_Handler+0x14>
    __asm__ volatile("cpsie i");
1a0008fc:	b662      	cpsie	i
    SectionTableAddr = &__data_section_table;
1a0008fe:	4b15      	ldr	r3, [pc, #84]	; (1a000954 <Reset_Handler+0x7c>)
    while (SectionTableAddr < &__data_section_table_end) {
1a000900:	e007      	b.n	1a000912 <Reset_Handler+0x3a>
        SectionLen = *SectionTableAddr++;
1a000902:	f103 040c 	add.w	r4, r3, #12
        data_init(LoadAddr, ExeAddr, SectionLen);
1a000906:	689a      	ldr	r2, [r3, #8]
1a000908:	6859      	ldr	r1, [r3, #4]
1a00090a:	6818      	ldr	r0, [r3, #0]
1a00090c:	f7ff fc3d 	bl	1a00018a <data_init>
        SectionLen = *SectionTableAddr++;
1a000910:	4623      	mov	r3, r4
    while (SectionTableAddr < &__data_section_table_end) {
1a000912:	4a11      	ldr	r2, [pc, #68]	; (1a000958 <Reset_Handler+0x80>)
1a000914:	4293      	cmp	r3, r2
1a000916:	d3f4      	bcc.n	1a000902 <Reset_Handler+0x2a>
1a000918:	e006      	b.n	1a000928 <Reset_Handler+0x50>
        ExeAddr = *SectionTableAddr++;
1a00091a:	461c      	mov	r4, r3
        bss_init(ExeAddr, SectionLen);
1a00091c:	6859      	ldr	r1, [r3, #4]
1a00091e:	f854 0b08 	ldr.w	r0, [r4], #8
1a000922:	f7ff fc41 	bl	1a0001a8 <bss_init>
        SectionLen = *SectionTableAddr++;
1a000926:	4623      	mov	r3, r4
    while (SectionTableAddr < &__bss_section_table_end) {
1a000928:	4a0c      	ldr	r2, [pc, #48]	; (1a00095c <Reset_Handler+0x84>)
1a00092a:	4293      	cmp	r3, r2
1a00092c:	d3f5      	bcc.n	1a00091a <Reset_Handler+0x42>
    SystemInit();
1a00092e:	f000 ff1b 	bl	1a001768 <SystemInit>
    __libc_init_array();
1a000932:	f002 f8c5 	bl	1a002ac0 <__libc_init_array>
    initialise_monitor_handles();
1a000936:	f7ff ffcd 	bl	1a0008d4 <initialise_monitor_handles>
    main();
1a00093a:	f7ff fce1 	bl	1a000300 <main>
        __asm__ volatile("wfi");
1a00093e:	bf30      	wfi
1a000940:	e7fd      	b.n	1a00093e <Reset_Handler+0x66>
1a000942:	bf00      	nop
1a000944:	40053100 	.word	0x40053100
1a000948:	10df1000 	.word	0x10df1000
1a00094c:	01dff7ff 	.word	0x01dff7ff
1a000950:	e000e280 	.word	0xe000e280
1a000954:	1a000114 	.word	0x1a000114
1a000958:	1a000150 	.word	0x1a000150
1a00095c:	1a000178 	.word	0x1a000178

1a000960 <_fini>:
void _fini(void) {}
1a000960:	4770      	bx	lr

1a000962 <_init>:
void _init(void) {}
1a000962:	4770      	bx	lr

1a000964 <_close_r>:
   (void) __params__;
}

int _close_r(struct _reent *r, int fd) {
   UNUSED(fd);
   SET_ERR(EBADF);
1a000964:	2309      	movs	r3, #9
1a000966:	6003      	str	r3, [r0, #0]
   return -1;
}
1a000968:	f04f 30ff 	mov.w	r0, #4294967295	; 0xffffffff
1a00096c:	4770      	bx	lr

1a00096e <_fstat_r>:
}

int _fstat_r(struct _reent *r, int fd, struct stat *st) {
   UNUSED(fd);
   UNUSED(st);
   SET_ERR(ENOSYS);
1a00096e:	2358      	movs	r3, #88	; 0x58
1a000970:	6003      	str	r3, [r0, #0]
   return -1;
}
1a000972:	f04f 30ff 	mov.w	r0, #4294967295	; 0xffffffff
1a000976:	4770      	bx	lr

1a000978 <_isatty_r>:
   UNUSED(r);
   return 1;
}

int _isatty_r(struct _reent *r, int fd) {
   switch (fd) {
1a000978:	2902      	cmp	r1, #2
1a00097a:	d801      	bhi.n	1a000980 <_isatty_r+0x8>
   case 0:
   case 1:
   case 2:
       return 1;
1a00097c:	2001      	movs	r0, #1
   default:
       SET_ERR(EBADF);
       return -1;
   }
}
1a00097e:	4770      	bx	lr
       SET_ERR(EBADF);
1a000980:	2309      	movs	r3, #9
1a000982:	6003      	str	r3, [r0, #0]
       return -1;
1a000984:	f04f 30ff 	mov.w	r0, #4294967295	; 0xffffffff
1a000988:	4770      	bx	lr

1a00098a <_lseek_r>:

_off_t _lseek_r(struct _reent *r, int fd, _off_t off, int w) {
   UNUSED(fd);
   UNUSED(off);
   UNUSED(w);
   SET_ERR(ENOSYS);
1a00098a:	2358      	movs	r3, #88	; 0x58
1a00098c:	6003      	str	r3, [r0, #0]
   return -1;
}
1a00098e:	f04f 30ff 	mov.w	r0, #4294967295	; 0xffffffff
1a000992:	4770      	bx	lr

1a000994 <_read_r>:
   }
}
*/
_ssize_t _read_r(struct _reent *r, int fd, void *b, size_t n) {
  size_t i = 0;
  switch (fd) {
1a000994:	2902      	cmp	r1, #2
1a000996:	d81f      	bhi.n	1a0009d8 <_read_r+0x44>
_ssize_t _read_r(struct _reent *r, int fd, void *b, size_t n) {
1a000998:	e92d 41f0 	stmdb	sp!, {r4, r5, r6, r7, r8, lr}
1a00099c:	461d      	mov	r5, r3
1a00099e:	4617      	mov	r7, r2
1a0009a0:	4606      	mov	r6, r0
  size_t i = 0;
1a0009a2:	2400      	movs	r4, #0
  case 0:
  case 1:
  case 2:
      while( i < n ){
1a0009a4:	42ac      	cmp	r4, r5
1a0009a6:	d211      	bcs.n	1a0009cc <_read_r+0x38>
         int c = __stdio_getchar();
1a0009a8:	f000 f92f 	bl	1a000c0a <__stdio_getchar>
         if( c != -1 ){
1a0009ac:	f1b0 3fff 	cmp.w	r0, #4294967295	; 0xffffffff
1a0009b0:	d0f8      	beq.n	1a0009a4 <_read_r+0x10>
            ((char*) b)[i++] = (char) c;
1a0009b2:	f104 0801 	add.w	r8, r4, #1
1a0009b6:	5538      	strb	r0, [r7, r4]
            if( c == '\r' || c == '\n' ){
1a0009b8:	280d      	cmp	r0, #13
1a0009ba:	d003      	beq.n	1a0009c4 <_read_r+0x30>
1a0009bc:	280a      	cmp	r0, #10
1a0009be:	d001      	beq.n	1a0009c4 <_read_r+0x30>
            ((char*) b)[i++] = (char) c;
1a0009c0:	4644      	mov	r4, r8
1a0009c2:	e7ef      	b.n	1a0009a4 <_read_r+0x10>
               // read anotherone to prevent \r\n
               (void) __stdio_getchar();
1a0009c4:	f000 f921 	bl	1a000c0a <__stdio_getchar>
               return i;
1a0009c8:	4640      	mov	r0, r8
1a0009ca:	e003      	b.n	1a0009d4 <_read_r+0x40>
            }
         }
      }
      SET_ERR(ENODEV);
1a0009cc:	2313      	movs	r3, #19
1a0009ce:	6033      	str	r3, [r6, #0]
      return -1;
1a0009d0:	f04f 30ff 	mov.w	r0, #4294967295	; 0xffffffff
  default:
      SET_ERR(ENODEV);
      return -1;
  }
}
1a0009d4:	e8bd 81f0 	ldmia.w	sp!, {r4, r5, r6, r7, r8, pc}
      SET_ERR(ENODEV);
1a0009d8:	2313      	movs	r3, #19
1a0009da:	6003      	str	r3, [r0, #0]
      return -1;
1a0009dc:	f04f 30ff 	mov.w	r0, #4294967295	; 0xffffffff
}
1a0009e0:	4770      	bx	lr

1a0009e2 <_write_r>:
   return -1;
}

_ssize_t _write_r(struct _reent *r, int fd, const void *b, size_t n) {
   size_t i;
   switch (fd) {
1a0009e2:	2902      	cmp	r1, #2
1a0009e4:	d80c      	bhi.n	1a000a00 <_write_r+0x1e>
_ssize_t _write_r(struct _reent *r, int fd, const void *b, size_t n) {
1a0009e6:	b570      	push	{r4, r5, r6, lr}
1a0009e8:	461d      	mov	r5, r3
1a0009ea:	4616      	mov	r6, r2
   case 0:
   case 1:
   case 2:
       for (i = 0; i < n; i++)
1a0009ec:	2400      	movs	r4, #0
1a0009ee:	e003      	b.n	1a0009f8 <_write_r+0x16>
           __stdio_putchar(((char*) b)[i]);
1a0009f0:	5d30      	ldrb	r0, [r6, r4]
1a0009f2:	f000 f905 	bl	1a000c00 <__stdio_putchar>
       for (i = 0; i < n; i++)
1a0009f6:	3401      	adds	r4, #1
1a0009f8:	42ac      	cmp	r4, r5
1a0009fa:	d3f9      	bcc.n	1a0009f0 <_write_r+0xe>
       return n;
1a0009fc:	4628      	mov	r0, r5
   default:
       SET_ERR(ENODEV);
       return -1;
   }
}
1a0009fe:	bd70      	pop	{r4, r5, r6, pc}
       SET_ERR(ENODEV);
1a000a00:	2313      	movs	r3, #19
1a000a02:	6003      	str	r3, [r0, #0]
       return -1;
1a000a04:	f04f 30ff 	mov.w	r0, #4294967295	; 0xffffffff
}
1a000a08:	4770      	bx	lr
1a000a0a:	Address 0x000000001a000a0a is out of bounds.


1a000a0c <_sbrk_r>:

void *_sbrk_r(struct _reent *r, ptrdiff_t incr) {
   extern int _pvHeapStart;
   static void *heap_end;
   void *prev_heap_end;
   if (heap_end == 0) {
1a000a0c:	4b05      	ldr	r3, [pc, #20]	; (1a000a24 <_sbrk_r+0x18>)
1a000a0e:	681b      	ldr	r3, [r3, #0]
1a000a10:	b123      	cbz	r3, 1a000a1c <_sbrk_r+0x10>
       heap_end = &_pvHeapStart;
   }
   prev_heap_end = heap_end;
1a000a12:	4b04      	ldr	r3, [pc, #16]	; (1a000a24 <_sbrk_r+0x18>)
1a000a14:	6818      	ldr	r0, [r3, #0]
   heap_end += incr;
1a000a16:	4401      	add	r1, r0
1a000a18:	6019      	str	r1, [r3, #0]
   return prev_heap_end;
}
1a000a1a:	4770      	bx	lr
       heap_end = &_pvHeapStart;
1a000a1c:	4b01      	ldr	r3, [pc, #4]	; (1a000a24 <_sbrk_r+0x18>)
1a000a1e:	4a02      	ldr	r2, [pc, #8]	; (1a000a28 <_sbrk_r+0x1c>)
1a000a20:	601a      	str	r2, [r3, #0]
1a000a22:	e7f6      	b.n	1a000a12 <_sbrk_r+0x6>
1a000a24:	100009f8 	.word	0x100009f8
1a000a28:	10000a80 	.word	0x10000a80

1a000a2c <Board_LED_Init>:
#define GPIO_PORTS_SIZE     (sizeof(GpioPorts) / sizeof(struct gpio_t))


static void Board_LED_Init()
{
   for (uint32_t i = 0; i < GPIO_LEDS_SIZE; ++i) {
1a000a2c:	2200      	movs	r2, #0
1a000a2e:	2a05      	cmp	r2, #5
1a000a30:	d819      	bhi.n	1a000a66 <Board_LED_Init+0x3a>
{
1a000a32:	b470      	push	{r4, r5, r6}
      const struct gpio_t *io = &GpioLeds[i];
      Chip_GPIO_SetPinDIROutput(LPC_GPIO_PORT, io->port, io->pin);
1a000a34:	490c      	ldr	r1, [pc, #48]	; (1a000a68 <Board_LED_Init+0x3c>)
1a000a36:	f811 5012 	ldrb.w	r5, [r1, r2, lsl #1]
1a000a3a:	eb01 0142 	add.w	r1, r1, r2, lsl #1
1a000a3e:	784c      	ldrb	r4, [r1, #1]
 * @param	pin		: GPIO pin to set direction on as output
 * @return	Nothing
 */
STATIC INLINE void Chip_GPIO_SetPinDIROutput(LPC_GPIO_T *pGPIO, uint8_t port, uint8_t pin)
{
	pGPIO->DIR[port] |= 1UL << pin;
1a000a40:	4b0a      	ldr	r3, [pc, #40]	; (1a000a6c <Board_LED_Init+0x40>)
1a000a42:	f505 6600 	add.w	r6, r5, #2048	; 0x800
1a000a46:	f853 1026 	ldr.w	r1, [r3, r6, lsl #2]
1a000a4a:	2001      	movs	r0, #1
1a000a4c:	40a0      	lsls	r0, r4
1a000a4e:	4301      	orrs	r1, r0
1a000a50:	f843 1026 	str.w	r1, [r3, r6, lsl #2]
	pGPIO->B[port][pin] = setting;
1a000a54:	eb03 1345 	add.w	r3, r3, r5, lsl #5
1a000a58:	2100      	movs	r1, #0
1a000a5a:	5519      	strb	r1, [r3, r4]
   for (uint32_t i = 0; i < GPIO_LEDS_SIZE; ++i) {
1a000a5c:	3201      	adds	r2, #1
1a000a5e:	2a05      	cmp	r2, #5
1a000a60:	d9e8      	bls.n	1a000a34 <Board_LED_Init+0x8>
      Chip_GPIO_SetPinState(LPC_GPIO_PORT, io->port, io->pin, false);
   }
}
1a000a62:	bc70      	pop	{r4, r5, r6}
1a000a64:	4770      	bx	lr
1a000a66:	4770      	bx	lr
1a000a68:	1a00d4a4 	.word	0x1a00d4a4
1a000a6c:	400f4000 	.word	0x400f4000

1a000a70 <Board_TEC_Init>:


static void Board_TEC_Init()
{
   for (uint32_t i = 0; i < GPIO_BUTTONS_SIZE; ++i) {
1a000a70:	2300      	movs	r3, #0
1a000a72:	2b03      	cmp	r3, #3
1a000a74:	d816      	bhi.n	1a000aa4 <Board_TEC_Init+0x34>
{
1a000a76:	b430      	push	{r4, r5}
      const struct gpio_t *io = &GpioButtons[i];
      Chip_GPIO_SetPinDIRInput(LPC_GPIO_PORT, io->port, io->pin);
1a000a78:	490b      	ldr	r1, [pc, #44]	; (1a000aa8 <Board_TEC_Init+0x38>)
1a000a7a:	f811 2013 	ldrb.w	r2, [r1, r3, lsl #1]
1a000a7e:	eb01 0143 	add.w	r1, r1, r3, lsl #1
1a000a82:	784d      	ldrb	r5, [r1, #1]
 * @param	pin		: GPIO pin to set direction on as input
 * @return	Nothing
 */
STATIC INLINE void Chip_GPIO_SetPinDIRInput(LPC_GPIO_T *pGPIO, uint8_t port, uint8_t pin)
{
	pGPIO->DIR[port] &= ~(1UL << pin);
1a000a84:	4c09      	ldr	r4, [pc, #36]	; (1a000aac <Board_TEC_Init+0x3c>)
1a000a86:	f502 6200 	add.w	r2, r2, #2048	; 0x800
1a000a8a:	f854 1022 	ldr.w	r1, [r4, r2, lsl #2]
1a000a8e:	2001      	movs	r0, #1
1a000a90:	40a8      	lsls	r0, r5
1a000a92:	ea21 0100 	bic.w	r1, r1, r0
1a000a96:	f844 1022 	str.w	r1, [r4, r2, lsl #2]
   for (uint32_t i = 0; i < GPIO_BUTTONS_SIZE; ++i) {
1a000a9a:	3301      	adds	r3, #1
1a000a9c:	2b03      	cmp	r3, #3
1a000a9e:	d9eb      	bls.n	1a000a78 <Board_TEC_Init+0x8>
   }
}
1a000aa0:	bc30      	pop	{r4, r5}
1a000aa2:	4770      	bx	lr
1a000aa4:	4770      	bx	lr
1a000aa6:	bf00      	nop
1a000aa8:	1a00d49c 	.word	0x1a00d49c
1a000aac:	400f4000 	.word	0x400f4000

1a000ab0 <Board_GPIO_Init>:


static void Board_GPIO_Init()
{
   for (uint32_t i = 0; i < GPIO_PORTS_SIZE; ++i) {
1a000ab0:	2300      	movs	r3, #0
1a000ab2:	2b08      	cmp	r3, #8
1a000ab4:	d816      	bhi.n	1a000ae4 <Board_GPIO_Init+0x34>
{
1a000ab6:	b430      	push	{r4, r5}
      const struct gpio_t *io = &GpioPorts[i];
      Chip_GPIO_SetPinDIRInput(LPC_GPIO_PORT, io->port, io->pin);
1a000ab8:	490b      	ldr	r1, [pc, #44]	; (1a000ae8 <Board_GPIO_Init+0x38>)
1a000aba:	f811 2013 	ldrb.w	r2, [r1, r3, lsl #1]
1a000abe:	eb01 0143 	add.w	r1, r1, r3, lsl #1
1a000ac2:	784d      	ldrb	r5, [r1, #1]
1a000ac4:	4c09      	ldr	r4, [pc, #36]	; (1a000aec <Board_GPIO_Init+0x3c>)
1a000ac6:	f502 6200 	add.w	r2, r2, #2048	; 0x800
1a000aca:	f854 1022 	ldr.w	r1, [r4, r2, lsl #2]
1a000ace:	2001      	movs	r0, #1
1a000ad0:	40a8      	lsls	r0, r5
1a000ad2:	ea21 0100 	bic.w	r1, r1, r0
1a000ad6:	f844 1022 	str.w	r1, [r4, r2, lsl #2]
   for (uint32_t i = 0; i < GPIO_PORTS_SIZE; ++i) {
1a000ada:	3301      	adds	r3, #1
1a000adc:	2b08      	cmp	r3, #8
1a000ade:	d9eb      	bls.n	1a000ab8 <Board_GPIO_Init+0x8>
   }
}
1a000ae0:	bc30      	pop	{r4, r5}
1a000ae2:	4770      	bx	lr
1a000ae4:	4770      	bx	lr
1a000ae6:	bf00      	nop
1a000ae8:	1a00d4b0 	.word	0x1a00d4b0
1a000aec:	400f4000 	.word	0x400f4000

1a000af0 <Board_ADC_Init>:
   Chip_SSP_Enable(LPC_SSP1);
}


static void Board_ADC_Init()
{
1a000af0:	b510      	push	{r4, lr}
1a000af2:	b082      	sub	sp, #8
   ADC_CLOCK_SETUP_T cs;

   Chip_ADC_Init(LPC_ADC0, &cs);
1a000af4:	4c08      	ldr	r4, [pc, #32]	; (1a000b18 <Board_ADC_Init+0x28>)
1a000af6:	4669      	mov	r1, sp
1a000af8:	4620      	mov	r0, r4
1a000afa:	f000 fa1d 	bl	1a000f38 <Chip_ADC_Init>
   Chip_ADC_SetSampleRate(LPC_ADC0, &cs, BOARD_ADC_SAMPLE_RATE);
1a000afe:	4a07      	ldr	r2, [pc, #28]	; (1a000b1c <Board_ADC_Init+0x2c>)
1a000b00:	4669      	mov	r1, sp
1a000b02:	4620      	mov	r0, r4
1a000b04:	f000 fa38 	bl	1a000f78 <Chip_ADC_SetSampleRate>
   Chip_ADC_SetResolution(LPC_ADC0, &cs, BOARD_ADC_RESOLUTION);
1a000b08:	2200      	movs	r2, #0
1a000b0a:	4669      	mov	r1, sp
1a000b0c:	4620      	mov	r0, r4
1a000b0e:	f000 fa4c 	bl	1a000faa <Chip_ADC_SetResolution>
}
1a000b12:	b002      	add	sp, #8
1a000b14:	bd10      	pop	{r4, pc}
1a000b16:	bf00      	nop
1a000b18:	400e3000 	.word	0x400e3000
1a000b1c:	00061a80 	.word	0x00061a80

1a000b20 <Board_SPI_Init>:
{
1a000b20:	b510      	push	{r4, lr}
   Chip_SSP_Init(LPC_SSP1);
1a000b22:	4c0b      	ldr	r4, [pc, #44]	; (1a000b50 <Board_SPI_Init+0x30>)
1a000b24:	4620      	mov	r0, r4
1a000b26:	f000 fe03 	bl	1a001730 <Chip_SSP_Init>
 *						- SSP_MODE_SLAVE
 * @return	 Nothing
 */
STATIC INLINE void Chip_SSP_Set_Mode(LPC_SSP_T *pSSP, uint32_t mode)
{
	pSSP->CR1 = (pSSP->CR1 & ~(1 << 2)) | mode;
1a000b2a:	6863      	ldr	r3, [r4, #4]
1a000b2c:	f023 0304 	bic.w	r3, r3, #4
1a000b30:	6063      	str	r3, [r4, #4]
	pSSP->CR0 = (pSSP->CR0 & ~0xFF) | bits | frameFormat | clockMode;
1a000b32:	6823      	ldr	r3, [r4, #0]
1a000b34:	f023 03ff 	bic.w	r3, r3, #255	; 0xff
1a000b38:	f043 0307 	orr.w	r3, r3, #7
1a000b3c:	6023      	str	r3, [r4, #0]
   Chip_SSP_SetBitRate(LPC_SSP1, BOARD_SPI_SPEED);
1a000b3e:	4905      	ldr	r1, [pc, #20]	; (1a000b54 <Board_SPI_Init+0x34>)
1a000b40:	4620      	mov	r0, r4
1a000b42:	f000 fdd6 	bl	1a0016f2 <Chip_SSP_SetBitRate>
	pSSP->CR1 |= SSP_CR1_SSP_EN;
1a000b46:	6863      	ldr	r3, [r4, #4]
1a000b48:	f043 0302 	orr.w	r3, r3, #2
1a000b4c:	6063      	str	r3, [r4, #4]
}
1a000b4e:	bd10      	pop	{r4, pc}
1a000b50:	400c5000 	.word	0x400c5000
1a000b54:	000186a0 	.word	0x000186a0

1a000b58 <Board_I2C_Init>:
{
1a000b58:	b508      	push	{r3, lr}
   Chip_I2C_Init(I2C0);
1a000b5a:	2000      	movs	r0, #0
1a000b5c:	f000 f8c6 	bl	1a000cec <Chip_I2C_Init>
 *                  - I2C0_FAST_MODE_PLUS: Fast-mode Plus transmit
 * @return	Nothing
 */
STATIC INLINE void Chip_SCU_I2C0PinConfig(uint32_t I2C0Mode)
{
	LPC_SCU->SFSI2C0 = I2C0Mode;
1a000b60:	4b04      	ldr	r3, [pc, #16]	; (1a000b74 <Board_I2C_Init+0x1c>)
1a000b62:	f640 0208 	movw	r2, #2056	; 0x808
1a000b66:	f8c3 2c84 	str.w	r2, [r3, #3204]	; 0xc84
   Chip_I2C_SetClockRate(I2C0, BOARD_I2C_SPEED);
1a000b6a:	4903      	ldr	r1, [pc, #12]	; (1a000b78 <Board_I2C_Init+0x20>)
1a000b6c:	2000      	movs	r0, #0
1a000b6e:	f000 f8cf 	bl	1a000d10 <Chip_I2C_SetClockRate>
}
1a000b72:	bd08      	pop	{r3, pc}
1a000b74:	40086000 	.word	0x40086000
1a000b78:	000f4240 	.word	0x000f4240

1a000b7c <Board_Debug_Init>:


void Board_Debug_Init(void)
{
1a000b7c:	b510      	push	{r4, lr}
   Chip_UART_Init(DEBUG_UART);
1a000b7e:	4c07      	ldr	r4, [pc, #28]	; (1a000b9c <Board_Debug_Init+0x20>)
1a000b80:	4620      	mov	r0, r4
1a000b82:	f000 f8f7 	bl	1a000d74 <Chip_UART_Init>
   Chip_UART_SetBaudFDR(DEBUG_UART, DEBUG_UART_BAUD_RATE);
1a000b86:	f44f 31e1 	mov.w	r1, #115200	; 0x1c200
1a000b8a:	4620      	mov	r0, r4
1a000b8c:	f000 f93c 	bl	1a000e08 <Chip_UART_SetBaudFDR>
 *			stop bit, and even (enabled) parity would be
 *			(UART_LCR_WLEN8 | UART_LCR_SBS_1BIT | UART_LCR_PARITY_EN | UART_LCR_PARITY_EVEN)
 */
STATIC INLINE void Chip_UART_ConfigData(LPC_USART_T *pUART, uint32_t config)
{
	pUART->LCR = config;
1a000b90:	2303      	movs	r3, #3
1a000b92:	60e3      	str	r3, [r4, #12]
    pUART->TER2 = UART_TER2_TXEN;
1a000b94:	2301      	movs	r3, #1
1a000b96:	65e3      	str	r3, [r4, #92]	; 0x5c
   Chip_UART_ConfigData(DEBUG_UART, DEBUG_UART_CONFIG);
   Chip_UART_TXEnable(DEBUG_UART);
}
1a000b98:	bd10      	pop	{r4, pc}
1a000b9a:	bf00      	nop
1a000b9c:	400c1000 	.word	0x400c1000

1a000ba0 <Board_UARTPutChar>:
 * @note	Mask bits of the returned status value with UART_LSR_*
 *			definitions for specific statuses.
 */
STATIC INLINE uint32_t Chip_UART_ReadLineStatus(LPC_USART_T *pUART)
{
	return pUART->LSR;
1a000ba0:	4b03      	ldr	r3, [pc, #12]	; (1a000bb0 <Board_UARTPutChar+0x10>)
1a000ba2:	695b      	ldr	r3, [r3, #20]


void Board_UARTPutChar(char ch)
{
   while ( !(Chip_UART_ReadLineStatus(DEBUG_UART) & UART_LSR_THRE));
1a000ba4:	f013 0f20 	tst.w	r3, #32
1a000ba8:	d0fa      	beq.n	1a000ba0 <Board_UARTPutChar>
	pUART->THR = (uint32_t) data;
1a000baa:	4b01      	ldr	r3, [pc, #4]	; (1a000bb0 <Board_UARTPutChar+0x10>)
1a000bac:	6018      	str	r0, [r3, #0]
   Chip_UART_SendByte(DEBUG_UART, (uint8_t) ch);
}
1a000bae:	4770      	bx	lr
1a000bb0:	400c1000 	.word	0x400c1000

1a000bb4 <Board_UARTGetChar>:
	return pUART->LSR;
1a000bb4:	4b05      	ldr	r3, [pc, #20]	; (1a000bcc <Board_UARTGetChar+0x18>)
1a000bb6:	695b      	ldr	r3, [r3, #20]


int Board_UARTGetChar(void)
{
   if (Chip_UART_ReadLineStatus(DEBUG_UART) & UART_LSR_RDR) {
1a000bb8:	f013 0f01 	tst.w	r3, #1
1a000bbc:	d003      	beq.n	1a000bc6 <Board_UARTGetChar+0x12>
	return (uint8_t) (pUART->RBR & UART_RBR_MASKBIT);         //uint8_t
1a000bbe:	4b03      	ldr	r3, [pc, #12]	; (1a000bcc <Board_UARTGetChar+0x18>)
1a000bc0:	6818      	ldr	r0, [r3, #0]
      return (int) Chip_UART_ReadByte(DEBUG_UART);
1a000bc2:	b2c0      	uxtb	r0, r0
1a000bc4:	4770      	bx	lr
   }
   return EOF;
1a000bc6:	f04f 30ff 	mov.w	r0, #4294967295	; 0xffffffff
}
1a000bca:	4770      	bx	lr
1a000bcc:	400c1000 	.word	0x400c1000

1a000bd0 <Board_Init>:
   Board_LED_Set(LEDNumber, !Board_LED_Test(LEDNumber));
}


void Board_Init(void)
{
1a000bd0:	b508      	push	{r3, lr}
   DEBUGINIT();
1a000bd2:	f7ff ffd3 	bl	1a000b7c <Board_Debug_Init>
   Chip_GPIO_Init (LPC_GPIO_PORT);
1a000bd6:	4809      	ldr	r0, [pc, #36]	; (1a000bfc <Board_Init+0x2c>)
1a000bd8:	f000 fd6a 	bl	1a0016b0 <Chip_GPIO_Init>

   Board_GPIO_Init();
1a000bdc:	f7ff ff68 	bl	1a000ab0 <Board_GPIO_Init>
   Board_ADC_Init();
1a000be0:	f7ff ff86 	bl	1a000af0 <Board_ADC_Init>
   Board_SPI_Init();
1a000be4:	f7ff ff9c 	bl	1a000b20 <Board_SPI_Init>
   Board_I2C_Init();
1a000be8:	f7ff ffb6 	bl	1a000b58 <Board_I2C_Init>

   Board_LED_Init();
1a000bec:	f7ff ff1e 	bl	1a000a2c <Board_LED_Init>
   Board_TEC_Init();
1a000bf0:	f7ff ff3e 	bl	1a000a70 <Board_TEC_Init>
#ifdef USE_RMII
   Chip_ENET_RMIIEnable(LPC_ETHERNET);
#endif

   // Read clock settings and update SystemCoreClock variable
   SystemCoreClockUpdate(); // @Eric
1a000bf4:	f000 fca8 	bl	1a001548 <SystemCoreClockUpdate>
}
1a000bf8:	bd08      	pop	{r3, pc}
1a000bfa:	bf00      	nop
1a000bfc:	400f4000 	.word	0x400f4000

1a000c00 <__stdio_putchar>:
   curADCChannel = 0xFF;
   return data;
}

void __stdio_putchar(int c)
{
1a000c00:	b508      	push	{r3, lr}
   Board_UARTPutChar(c);
1a000c02:	b2c0      	uxtb	r0, r0
1a000c04:	f7ff ffcc 	bl	1a000ba0 <Board_UARTPutChar>
}
1a000c08:	bd08      	pop	{r3, pc}

1a000c0a <__stdio_getchar>:

int __stdio_getchar()
{
1a000c0a:	b508      	push	{r3, lr}
   return Board_UARTGetChar();;
1a000c0c:	f7ff ffd2 	bl	1a000bb4 <Board_UARTGetChar>
}
1a000c10:	bd08      	pop	{r3, pc}

1a000c12 <__stdio_init>:

void __stdio_init()
{
1a000c12:	b508      	push	{r3, lr}
   Board_Debug_Init();
1a000c14:	f7ff ffb2 	bl	1a000b7c <Board_Debug_Init>
1a000c18:	bd08      	pop	{r3, pc}
1a000c1a:	Address 0x000000001a000c1a is out of bounds.


1a000c1c <Board_SetupMuxing>:
 * @return	Nothing
 */
STATIC INLINE void Chip_SCU_SetPinMuxing(const PINMUX_GRP_T *pinArray, uint32_t arrayLength)
{
	uint32_t ix;
	for (ix = 0; ix < arrayLength; ix++ ) {
1a000c1c:	2300      	movs	r3, #0
1a000c1e:	2b1c      	cmp	r3, #28
1a000c20:	d812      	bhi.n	1a000c48 <Board_SetupMuxing+0x2c>
    #endif
};


void Board_SetupMuxing(void)
{
1a000c22:	b410      	push	{r4}
		Chip_SCU_PinMuxSet(pinArray[ix].pingrp, pinArray[ix].pinnum, pinArray[ix].modefunc);
1a000c24:	4a09      	ldr	r2, [pc, #36]	; (1a000c4c <Board_SetupMuxing+0x30>)
1a000c26:	eb02 0183 	add.w	r1, r2, r3, lsl #2
1a000c2a:	f812 4023 	ldrb.w	r4, [r2, r3, lsl #2]
1a000c2e:	784a      	ldrb	r2, [r1, #1]
1a000c30:	8848      	ldrh	r0, [r1, #2]
	LPC_SCU->SFSP[port][pin] = modefunc;
1a000c32:	eb02 1244 	add.w	r2, r2, r4, lsl #5
1a000c36:	4906      	ldr	r1, [pc, #24]	; (1a000c50 <Board_SetupMuxing+0x34>)
1a000c38:	f841 0022 	str.w	r0, [r1, r2, lsl #2]
	for (ix = 0; ix < arrayLength; ix++ ) {
1a000c3c:	3301      	adds	r3, #1
1a000c3e:	2b1c      	cmp	r3, #28
1a000c40:	d9f0      	bls.n	1a000c24 <Board_SetupMuxing+0x8>
    Chip_SCU_SetPinMuxing(pinmuxing, sizeof(pinmuxing) / sizeof(PINMUX_GRP_T));
}
1a000c42:	f85d 4b04 	ldr.w	r4, [sp], #4
1a000c46:	4770      	bx	lr
1a000c48:	4770      	bx	lr
1a000c4a:	bf00      	nop
1a000c4c:	1a00d4cc 	.word	0x1a00d4cc
1a000c50:	40086000 	.word	0x40086000

1a000c54 <Board_SetupClocking>:


void Board_SetupClocking(void)
{
1a000c54:	b510      	push	{r4, lr}
 */
STATIC INLINE void Chip_CREG_SetFlashAcceleration(uint32_t Hz)
{
	uint32_t FAValue = Hz / 21510000;

	LPC_CREG->FLASHCFGA = (LPC_CREG->FLASHCFGA & (~(0xF << 12))) | (FAValue << 12);
1a000c56:	4a17      	ldr	r2, [pc, #92]	; (1a000cb4 <Board_SetupClocking+0x60>)
1a000c58:	f8d2 3120 	ldr.w	r3, [r2, #288]	; 0x120
1a000c5c:	f423 4370 	bic.w	r3, r3, #61440	; 0xf000
1a000c60:	f443 4310 	orr.w	r3, r3, #36864	; 0x9000
1a000c64:	f8c2 3120 	str.w	r3, [r2, #288]	; 0x120
	LPC_CREG->FLASHCFGB = (LPC_CREG->FLASHCFGB & (~(0xF << 12))) | (FAValue << 12);
1a000c68:	f8d2 3124 	ldr.w	r3, [r2, #292]	; 0x124
1a000c6c:	f423 4370 	bic.w	r3, r3, #61440	; 0xf000
1a000c70:	f443 4310 	orr.w	r3, r3, #36864	; 0x9000
1a000c74:	f8c2 3124 	str.w	r3, [r2, #292]	; 0x124
    Chip_CREG_SetFlashAcceleration(MAX_CLOCK_FREQ);
    Chip_SetupCoreClock(CLKIN_CRYSTAL, MAX_CLOCK_FREQ, true);
1a000c78:	2201      	movs	r2, #1
1a000c7a:	490f      	ldr	r1, [pc, #60]	; (1a000cb8 <Board_SetupClocking+0x64>)
1a000c7c:	2006      	movs	r0, #6
1a000c7e:	f000 fc6d 	bl	1a00155c <Chip_SetupCoreClock>

    /* Setup system base clocks and initial states. This won't enable and
       disable individual clocks, but sets up the base clock sources for
       each individual peripheral clock. */
    for (uint32_t i = 0; i < (sizeof(InitClkStates) / sizeof(InitClkStates[0])); ++i)
1a000c82:	2400      	movs	r4, #0
1a000c84:	b14c      	cbz	r4, 1a000c9a <Board_SetupClocking+0x46>
        Chip_Clock_SetBaseClock (c->clk, c->clkin, c->autoblock_enab,
                                c->powerdn);
    }

    /* Reset and enable 32Khz oscillator */
    LPC_CREG->CREG0 &= ~((1 << 3) | (1 << 2));
1a000c86:	4b0b      	ldr	r3, [pc, #44]	; (1a000cb4 <Board_SetupClocking+0x60>)
1a000c88:	685a      	ldr	r2, [r3, #4]
1a000c8a:	f022 020c 	bic.w	r2, r2, #12
1a000c8e:	605a      	str	r2, [r3, #4]
    LPC_CREG->CREG0 |= (1 << 1) | (1 << 0);
1a000c90:	685a      	ldr	r2, [r3, #4]
1a000c92:	f042 0203 	orr.w	r2, r2, #3
1a000c96:	605a      	str	r2, [r3, #4]
}
1a000c98:	bd10      	pop	{r4, pc}
        Chip_Clock_SetBaseClock (c->clk, c->clkin, c->autoblock_enab,
1a000c9a:	4808      	ldr	r0, [pc, #32]	; (1a000cbc <Board_SetupClocking+0x68>)
1a000c9c:	eb00 0184 	add.w	r1, r0, r4, lsl #2
1a000ca0:	2301      	movs	r3, #1
1a000ca2:	788a      	ldrb	r2, [r1, #2]
1a000ca4:	7849      	ldrb	r1, [r1, #1]
1a000ca6:	f810 0024 	ldrb.w	r0, [r0, r4, lsl #2]
1a000caa:	f000 fba9 	bl	1a001400 <Chip_Clock_SetBaseClock>
    for (uint32_t i = 0; i < (sizeof(InitClkStates) / sizeof(InitClkStates[0])); ++i)
1a000cae:	3401      	adds	r4, #1
1a000cb0:	e7e8      	b.n	1a000c84 <Board_SetupClocking+0x30>
1a000cb2:	bf00      	nop
1a000cb4:	40043000 	.word	0x40043000
1a000cb8:	0c28cb00 	.word	0x0c28cb00
1a000cbc:	1a00d4c8 	.word	0x1a00d4c8

1a000cc0 <Board_SystemInit>:


/* Set up and initialize hardware prior to call to main */
void Board_SystemInit(void)
{
1a000cc0:	b508      	push	{r3, lr}
    /* Setup system clocking and memory. This is done early to allow the
       application and tools to clear memory and use scatter loading to
       external memory. */
    Board_SetupMuxing();
1a000cc2:	f7ff ffab 	bl	1a000c1c <Board_SetupMuxing>
    Board_SetupClocking();
1a000cc6:	f7ff ffc5 	bl	1a000c54 <Board_SetupClocking>
}
1a000cca:	bd08      	pop	{r3, pc}

1a000ccc <Chip_I2C_EventHandler>:
{
	struct i2c_interface *iic = &i2c[id];
	volatile I2C_STATUS_T *stat;

	/* Only WAIT event needs to be handled */
	if (event != I2C_EVENT_WAIT) {
1a000ccc:	2901      	cmp	r1, #1
1a000cce:	d000      	beq.n	1a000cd2 <Chip_I2C_EventHandler+0x6>
	}

	stat = &iic->mXfer->status;
	/* Wait for the status to change */
	while (*stat == I2C_STATUS_BUSY) {}
}
1a000cd0:	4770      	bx	lr
	stat = &iic->mXfer->status;
1a000cd2:	ebc0 00c0 	rsb	r0, r0, r0, lsl #3
1a000cd6:	0082      	lsls	r2, r0, #2
1a000cd8:	4b03      	ldr	r3, [pc, #12]	; (1a000ce8 <Chip_I2C_EventHandler+0x1c>)
1a000cda:	4413      	add	r3, r2
1a000cdc:	691a      	ldr	r2, [r3, #16]
	while (*stat == I2C_STATUS_BUSY) {}
1a000cde:	7d13      	ldrb	r3, [r2, #20]
1a000ce0:	b2db      	uxtb	r3, r3
1a000ce2:	2b04      	cmp	r3, #4
1a000ce4:	d0fb      	beq.n	1a000cde <Chip_I2C_EventHandler+0x12>
1a000ce6:	e7f3      	b.n	1a000cd0 <Chip_I2C_EventHandler+0x4>
1a000ce8:	10000000 	.word	0x10000000

1a000cec <Chip_I2C_Init>:
	}
}

/* Initializes the LPC_I2C peripheral with specified parameter */
void Chip_I2C_Init(I2C_ID_T id)
{
1a000cec:	b570      	push	{r4, r5, r6, lr}
1a000cee:	4605      	mov	r5, r0
	Chip_Clock_Enable(i2c[id].clk);
1a000cf0:	4e06      	ldr	r6, [pc, #24]	; (1a000d0c <Chip_I2C_Init+0x20>)
1a000cf2:	00c4      	lsls	r4, r0, #3
1a000cf4:	1a22      	subs	r2, r4, r0
1a000cf6:	0093      	lsls	r3, r2, #2
1a000cf8:	4433      	add	r3, r6
1a000cfa:	8898      	ldrh	r0, [r3, #4]
1a000cfc:	f000 fbe4 	bl	1a0014c8 <Chip_Clock_Enable>
	enableClk(id);

	/* Set I2C operation to default */
	LPC_I2Cx(id)->CONCLR = (I2C_CON_AA | I2C_CON_SI | I2C_CON_STA | I2C_CON_I2EN);
1a000d00:	1b64      	subs	r4, r4, r5
1a000d02:	00a3      	lsls	r3, r4, #2
1a000d04:	58f3      	ldr	r3, [r6, r3]
1a000d06:	226c      	movs	r2, #108	; 0x6c
1a000d08:	619a      	str	r2, [r3, #24]
}
1a000d0a:	bd70      	pop	{r4, r5, r6, pc}
1a000d0c:	10000000 	.word	0x10000000

1a000d10 <Chip_I2C_SetClockRate>:
	disableClk(id);
}

/* Set up clock rate for LPC_I2C peripheral */
void Chip_I2C_SetClockRate(I2C_ID_T id, uint32_t clockrate)
{
1a000d10:	e92d 41f0 	stmdb	sp!, {r4, r5, r6, r7, r8, lr}
1a000d14:	460c      	mov	r4, r1
	return Chip_Clock_GetRate(i2c[id].clk);
1a000d16:	4e0b      	ldr	r6, [pc, #44]	; (1a000d44 <Chip_I2C_SetClockRate+0x34>)
1a000d18:	00c5      	lsls	r5, r0, #3
1a000d1a:	1a2b      	subs	r3, r5, r0
1a000d1c:	ea4f 0883 	mov.w	r8, r3, lsl #2
1a000d20:	eb06 0308 	add.w	r3, r6, r8
1a000d24:	8898      	ldrh	r0, [r3, #4]
1a000d26:	f000 fbe9 	bl	1a0014fc <Chip_Clock_GetRate>
	uint32_t SCLValue;

	SCLValue = (getClkRate(id) / clockrate);
1a000d2a:	fbb0 f0f4 	udiv	r0, r0, r4
	LPC_I2Cx(id)->SCLH = (uint32_t) (SCLValue >> 1);
1a000d2e:	f856 3008 	ldr.w	r3, [r6, r8]
1a000d32:	0842      	lsrs	r2, r0, #1
1a000d34:	611a      	str	r2, [r3, #16]
	LPC_I2Cx(id)->SCLL = (uint32_t) (SCLValue - LPC_I2Cx(id)->SCLH);
1a000d36:	f856 3008 	ldr.w	r3, [r6, r8]
1a000d3a:	691a      	ldr	r2, [r3, #16]
1a000d3c:	1a80      	subs	r0, r0, r2
1a000d3e:	6158      	str	r0, [r3, #20]
}
1a000d40:	e8bd 81f0 	ldmia.w	sp!, {r4, r5, r6, r7, r8, pc}
1a000d44:	10000000 	.word	0x10000000

1a000d48 <Chip_UART_GetIndex>:

/* Returns clock index for the peripheral block */
static int Chip_UART_GetIndex(LPC_USART_T *pUART)
{
	uint32_t base = (uint32_t) pUART;
	switch(base) {
1a000d48:	4b09      	ldr	r3, [pc, #36]	; (1a000d70 <Chip_UART_GetIndex+0x28>)
1a000d4a:	4298      	cmp	r0, r3
1a000d4c:	d009      	beq.n	1a000d62 <Chip_UART_GetIndex+0x1a>
1a000d4e:	f503 5380 	add.w	r3, r3, #4096	; 0x1000
1a000d52:	4298      	cmp	r0, r3
1a000d54:	d007      	beq.n	1a000d66 <Chip_UART_GetIndex+0x1e>
1a000d56:	f5a3 2380 	sub.w	r3, r3, #262144	; 0x40000
1a000d5a:	4298      	cmp	r0, r3
1a000d5c:	d005      	beq.n	1a000d6a <Chip_UART_GetIndex+0x22>
		case LPC_USART0_BASE:
			return 0;
1a000d5e:	2000      	movs	r0, #0
1a000d60:	4770      	bx	lr
		case LPC_UART1_BASE:
			return 1;
		case LPC_USART2_BASE:
			return 2;
1a000d62:	2002      	movs	r0, #2
1a000d64:	4770      	bx	lr
		case LPC_USART3_BASE:
			return 3;
1a000d66:	2003      	movs	r0, #3
1a000d68:	4770      	bx	lr
			return 1;
1a000d6a:	2001      	movs	r0, #1
		default:
			return 0; /* Should never come here */
	}
}
1a000d6c:	4770      	bx	lr
1a000d6e:	bf00      	nop
1a000d70:	400c1000 	.word	0x400c1000

1a000d74 <Chip_UART_Init>:
 * Public functions
 ****************************************************************************/

/* Initializes the pUART peripheral */
void Chip_UART_Init(LPC_USART_T *pUART)
{
1a000d74:	b530      	push	{r4, r5, lr}
1a000d76:	b083      	sub	sp, #12
1a000d78:	4604      	mov	r4, r0
    volatile uint32_t tmp;

	/* Enable UART clocking. UART base clock(s) must already be enabled */
	Chip_Clock_EnableOpts(UART_PClock[Chip_UART_GetIndex(pUART)], true, true, 1);
1a000d7a:	f7ff ffe5 	bl	1a000d48 <Chip_UART_GetIndex>
1a000d7e:	2301      	movs	r3, #1
1a000d80:	461a      	mov	r2, r3
1a000d82:	4619      	mov	r1, r3
1a000d84:	4d0e      	ldr	r5, [pc, #56]	; (1a000dc0 <Chip_UART_Init+0x4c>)
1a000d86:	f835 0010 	ldrh.w	r0, [r5, r0, lsl #1]
1a000d8a:	f000 fb7f 	bl	1a00148c <Chip_Clock_EnableOpts>
	pUART->FCR = fcr;
1a000d8e:	2307      	movs	r3, #7
1a000d90:	60a3      	str	r3, [r4, #8]
    pUART->TER2 = 0;
1a000d92:	2300      	movs	r3, #0
1a000d94:	65e3      	str	r3, [r4, #92]	; 0x5c

    /* Disable Tx */
    Chip_UART_TXDisable(pUART);

    /* Disable interrupts */
	pUART->IER = 0;
1a000d96:	6063      	str	r3, [r4, #4]
	/* Set LCR to default state */
	pUART->LCR = 0;
1a000d98:	60e3      	str	r3, [r4, #12]
	/* Set ACR to default state */
	pUART->ACR = 0;
1a000d9a:	6223      	str	r3, [r4, #32]
    /* Set RS485 control to default state */
	pUART->RS485CTRL = 0;
1a000d9c:	64e3      	str	r3, [r4, #76]	; 0x4c
	/* Set RS485 delay timer to default state */
	pUART->RS485DLY = 0;
1a000d9e:	6563      	str	r3, [r4, #84]	; 0x54
	/* Set RS485 addr match to default state */
	pUART->RS485ADRMATCH = 0;
1a000da0:	6523      	str	r3, [r4, #80]	; 0x50

    /* Clear MCR */
    if (pUART == LPC_UART1) {
1a000da2:	4b08      	ldr	r3, [pc, #32]	; (1a000dc4 <Chip_UART_Init+0x50>)
1a000da4:	429c      	cmp	r4, r3
1a000da6:	d006      	beq.n	1a000db6 <Chip_UART_Init+0x42>
	pUART->LCR = config;
1a000da8:	2303      	movs	r3, #3
1a000daa:	60e3      	str	r3, [r4, #12]

	/* Default 8N1, with DLAB disabled */
	Chip_UART_ConfigData(pUART, (UART_LCR_WLEN8 | UART_LCR_SBS_1BIT | UART_LCR_PARITY_DIS));

	/* Disable fractional divider */
	pUART->FDR = 0x10;
1a000dac:	2310      	movs	r3, #16
1a000dae:	62a3      	str	r3, [r4, #40]	; 0x28

    (void) tmp;
1a000db0:	9b01      	ldr	r3, [sp, #4]
}
1a000db2:	b003      	add	sp, #12
1a000db4:	bd30      	pop	{r4, r5, pc}
		pUART->MCR = 0;
1a000db6:	2300      	movs	r3, #0
1a000db8:	6123      	str	r3, [r4, #16]
		tmp = pUART->MSR;
1a000dba:	69a3      	ldr	r3, [r4, #24]
1a000dbc:	9301      	str	r3, [sp, #4]
1a000dbe:	e7f3      	b.n	1a000da8 <Chip_UART_Init+0x34>
1a000dc0:	1a00d548 	.word	0x1a00d548
1a000dc4:	40082000 	.word	0x40082000

1a000dc8 <Chip_UART_SetBaud>:
	return readBytes;
}

/* Determines and sets best dividers to get a target bit rate */
uint32_t Chip_UART_SetBaud(LPC_USART_T *pUART, uint32_t baudrate)
{
1a000dc8:	b538      	push	{r3, r4, r5, lr}
1a000dca:	4605      	mov	r5, r0
1a000dcc:	460c      	mov	r4, r1
	uint32_t div, divh, divl, clkin;

	/* Determine UART clock in rate without FDR */
	clkin = Chip_Clock_GetRate(UART_BClock[Chip_UART_GetIndex(pUART)]);
1a000dce:	f7ff ffbb 	bl	1a000d48 <Chip_UART_GetIndex>
1a000dd2:	4b0c      	ldr	r3, [pc, #48]	; (1a000e04 <Chip_UART_SetBaud+0x3c>)
1a000dd4:	f833 0010 	ldrh.w	r0, [r3, r0, lsl #1]
1a000dd8:	f000 fb90 	bl	1a0014fc <Chip_Clock_GetRate>
	div = clkin / (baudrate * 16);
1a000ddc:	0123      	lsls	r3, r4, #4
1a000dde:	fbb0 f3f3 	udiv	r3, r0, r3
1a000de2:	b2d9      	uxtb	r1, r3
	pUART->LCR |= UART_LCR_DLAB_EN;
1a000de4:	68ea      	ldr	r2, [r5, #12]
1a000de6:	f042 0280 	orr.w	r2, r2, #128	; 0x80
1a000dea:	60ea      	str	r2, [r5, #12]
	pUART->DLL = (uint32_t) dll;
1a000dec:	6029      	str	r1, [r5, #0]
1a000dee:	f3c3 2207 	ubfx	r2, r3, #8, #8
	pUART->DLM = (uint32_t) dlm;
1a000df2:	606a      	str	r2, [r5, #4]
	pUART->LCR &= ~UART_LCR_DLAB_EN;
1a000df4:	68ea      	ldr	r2, [r5, #12]
1a000df6:	f022 0280 	bic.w	r2, r2, #128	; 0x80
1a000dfa:	60ea      	str	r2, [r5, #12]
	Chip_UART_SetDivisorLatches(pUART, divl, divh);
	Chip_UART_DisableDivisorAccess(pUART);

	/* Fractional FDR alreadt setup for 1 in UART init */

	return (clkin / div) >> 4;
1a000dfc:	fbb0 f0f3 	udiv	r0, r0, r3
}
1a000e00:	0900      	lsrs	r0, r0, #4
1a000e02:	bd38      	pop	{r3, r4, r5, pc}
1a000e04:	1a00d540 	.word	0x1a00d540

1a000e08 <Chip_UART_SetBaudFDR>:
    Chip_UART_ABIntHandler(pUART);
}

/* Determines and sets best dividers to get a target baud rate */
uint32_t Chip_UART_SetBaudFDR(LPC_USART_T *pUART, uint32_t baud)
{
1a000e08:	e92d 4ff0 	stmdb	sp!, {r4, r5, r6, r7, r8, r9, sl, fp, lr}
1a000e0c:	b083      	sub	sp, #12
1a000e0e:	4683      	mov	fp, r0
1a000e10:	4688      	mov	r8, r1
	uint32_t sdiv = 0, sm = 1, sd = 0;
	uint32_t pclk, m, d;
	uint32_t odiff = -1UL; /* old best diff */

	/* Get base clock for the corresponding UART */
	pclk = Chip_Clock_GetRate(UART_BClock[Chip_UART_GetIndex(pUART)]);
1a000e12:	f7ff ff99 	bl	1a000d48 <Chip_UART_GetIndex>
1a000e16:	4b35      	ldr	r3, [pc, #212]	; (1a000eec <Chip_UART_SetBaudFDR+0xe4>)
1a000e18:	f833 0010 	ldrh.w	r0, [r3, r0, lsl #1]
1a000e1c:	f000 fb6e 	bl	1a0014fc <Chip_Clock_GetRate>
1a000e20:	4606      	mov	r6, r0
	uint32_t odiff = -1UL; /* old best diff */
1a000e22:	f04f 37ff 	mov.w	r7, #4294967295	; 0xffffffff

	/* Loop through all possible fractional divider values */
	for (m = 1; odiff && m < 16; m++) {
1a000e26:	2401      	movs	r4, #1
	uint32_t sdiv = 0, sm = 1, sd = 0;
1a000e28:	2300      	movs	r3, #0
1a000e2a:	9301      	str	r3, [sp, #4]
1a000e2c:	46a2      	mov	sl, r4
1a000e2e:	4699      	mov	r9, r3
	for (m = 1; odiff && m < 16; m++) {
1a000e30:	e02a      	b.n	1a000e88 <Chip_UART_SetBaudFDR+0x80>
			/* Upper 32-bit of dval has div */
			div = (uint32_t) (dval >> 32);

			/* Closer to next div */
			if ((int)diff < 0) {
				diff = -diff;
1a000e32:	4242      	negs	r2, r0
				div ++;
1a000e34:	1c4b      	adds	r3, r1, #1
1a000e36:	e017      	b.n	1a000e68 <Chip_UART_SetBaudFDR+0x60>
			sd = d;
			sm = m;
			odiff = diff;

			/* On perfect match, break loop */
			if(!diff) {
1a000e38:	b30a      	cbz	r2, 1a000e7e <Chip_UART_SetBaudFDR+0x76>
			odiff = diff;
1a000e3a:	4617      	mov	r7, r2
			sd = d;
1a000e3c:	9501      	str	r5, [sp, #4]
			sm = m;
1a000e3e:	46a2      	mov	sl, r4
			sdiv = div;
1a000e40:	4699      	mov	r9, r3
		for (d = 0; d < m; d++) {
1a000e42:	3501      	adds	r5, #1
1a000e44:	42ac      	cmp	r4, r5
1a000e46:	d91e      	bls.n	1a000e86 <Chip_UART_SetBaudFDR+0x7e>
			uint64_t dval = (((uint64_t) pclk << 28) * m) / (baud * (m + d));
1a000e48:	0933      	lsrs	r3, r6, #4
1a000e4a:	0730      	lsls	r0, r6, #28
1a000e4c:	fba4 0100 	umull	r0, r1, r4, r0
1a000e50:	fb04 1103 	mla	r1, r4, r3, r1
1a000e54:	1962      	adds	r2, r4, r5
1a000e56:	fb08 f202 	mul.w	r2, r8, r2
1a000e5a:	2300      	movs	r3, #0
1a000e5c:	f001 fcb0 	bl	1a0027c0 <__aeabi_uldivmod>
			diff = (uint32_t) dval;
1a000e60:	4602      	mov	r2, r0
			div = (uint32_t) (dval >> 32);
1a000e62:	460b      	mov	r3, r1
			if ((int)diff < 0) {
1a000e64:	2800      	cmp	r0, #0
1a000e66:	dbe4      	blt.n	1a000e32 <Chip_UART_SetBaudFDR+0x2a>
			if (odiff < diff || !div || (div >> 16) || (div < 3 && d)) {
1a000e68:	4297      	cmp	r7, r2
1a000e6a:	d3ea      	bcc.n	1a000e42 <Chip_UART_SetBaudFDR+0x3a>
1a000e6c:	2b00      	cmp	r3, #0
1a000e6e:	d0e8      	beq.n	1a000e42 <Chip_UART_SetBaudFDR+0x3a>
1a000e70:	0c19      	lsrs	r1, r3, #16
1a000e72:	d1e6      	bne.n	1a000e42 <Chip_UART_SetBaudFDR+0x3a>
1a000e74:	2b02      	cmp	r3, #2
1a000e76:	d8df      	bhi.n	1a000e38 <Chip_UART_SetBaudFDR+0x30>
1a000e78:	2d00      	cmp	r5, #0
1a000e7a:	d0dd      	beq.n	1a000e38 <Chip_UART_SetBaudFDR+0x30>
1a000e7c:	e7e1      	b.n	1a000e42 <Chip_UART_SetBaudFDR+0x3a>
			odiff = diff;
1a000e7e:	4617      	mov	r7, r2
			sd = d;
1a000e80:	9501      	str	r5, [sp, #4]
			sm = m;
1a000e82:	46a2      	mov	sl, r4
			sdiv = div;
1a000e84:	4699      	mov	r9, r3
	for (m = 1; odiff && m < 16; m++) {
1a000e86:	3401      	adds	r4, #1
1a000e88:	b11f      	cbz	r7, 1a000e92 <Chip_UART_SetBaudFDR+0x8a>
1a000e8a:	2c0f      	cmp	r4, #15
1a000e8c:	d801      	bhi.n	1a000e92 <Chip_UART_SetBaudFDR+0x8a>
		for (d = 0; d < m; d++) {
1a000e8e:	2500      	movs	r5, #0
1a000e90:	e7d8      	b.n	1a000e44 <Chip_UART_SetBaudFDR+0x3c>
			}
		}
	}

	/* Return 0 if a vaild divisor is not possible */
	if (!sdiv) {
1a000e92:	f1b9 0f00 	cmp.w	r9, #0
1a000e96:	d024      	beq.n	1a000ee2 <Chip_UART_SetBaudFDR+0xda>
	pUART->LCR |= UART_LCR_DLAB_EN;
1a000e98:	f8db 300c 	ldr.w	r3, [fp, #12]
1a000e9c:	f043 0380 	orr.w	r3, r3, #128	; 0x80
1a000ea0:	f8cb 300c 	str.w	r3, [fp, #12]
1a000ea4:	fa5f f389 	uxtb.w	r3, r9
	pUART->DLL = (uint32_t) dll;
1a000ea8:	f8cb 3000 	str.w	r3, [fp]
1a000eac:	f3c9 2307 	ubfx	r3, r9, #8, #8
	pUART->DLM = (uint32_t) dlm;
1a000eb0:	f8cb 3004 	str.w	r3, [fp, #4]
	pUART->LCR &= ~UART_LCR_DLAB_EN;
1a000eb4:	f8db 300c 	ldr.w	r3, [fp, #12]
1a000eb8:	f023 0380 	bic.w	r3, r3, #128	; 0x80
1a000ebc:	f8cb 300c 	str.w	r3, [fp, #12]
	Chip_UART_EnableDivisorAccess(pUART);
	Chip_UART_SetDivisorLatches(pUART, UART_LOAD_DLL(sdiv), UART_LOAD_DLM(sdiv));
	Chip_UART_DisableDivisorAccess(pUART);

	/* Set best fractional divider */
	pUART->FDR = (UART_FDR_MULVAL(sm) | UART_FDR_DIVADDVAL(sd));
1a000ec0:	ea4f 130a 	mov.w	r3, sl, lsl #4
1a000ec4:	b2db      	uxtb	r3, r3
1a000ec6:	9901      	ldr	r1, [sp, #4]
1a000ec8:	f001 020f 	and.w	r2, r1, #15
1a000ecc:	4313      	orrs	r3, r2
1a000ece:	f8cb 3028 	str.w	r3, [fp, #40]	; 0x28

	/* Return actual baud rate */
	return (pclk >> 4) * sm / (sdiv * (sm + sd));
1a000ed2:	0933      	lsrs	r3, r6, #4
1a000ed4:	fb0a f303 	mul.w	r3, sl, r3
1a000ed8:	448a      	add	sl, r1
1a000eda:	fb09 f90a 	mul.w	r9, r9, sl
1a000ede:	fbb3 f9f9 	udiv	r9, r3, r9
}
1a000ee2:	4648      	mov	r0, r9
1a000ee4:	b003      	add	sp, #12
1a000ee6:	e8bd 8ff0 	ldmia.w	sp!, {r4, r5, r6, r7, r8, r9, sl, fp, pc}
1a000eea:	bf00      	nop
1a000eec:	1a00d540 	.word	0x1a00d540

1a000ef0 <Chip_ADC_GetClockIndex>:
/* Returns clock index for the peripheral block */
STATIC CHIP_CCU_CLK_T Chip_ADC_GetClockIndex(LPC_ADC_T *pADC)
{
	CHIP_CCU_CLK_T clkADC;

	if (pADC == LPC_ADC1) {
1a000ef0:	4b03      	ldr	r3, [pc, #12]	; (1a000f00 <Chip_ADC_GetClockIndex+0x10>)
1a000ef2:	4298      	cmp	r0, r3
1a000ef4:	d001      	beq.n	1a000efa <Chip_ADC_GetClockIndex+0xa>
		clkADC = CLK_APB3_ADC1;
	}
	else {
		clkADC = CLK_APB3_ADC0;
1a000ef6:	2003      	movs	r0, #3
	}

	return clkADC;
}
1a000ef8:	4770      	bx	lr
		clkADC = CLK_APB3_ADC1;
1a000efa:	2004      	movs	r0, #4
1a000efc:	4770      	bx	lr
1a000efe:	bf00      	nop
1a000f00:	400e4000 	.word	0x400e4000

1a000f04 <getClkDiv>:

/* Get divider value */
STATIC uint8_t getClkDiv(LPC_ADC_T *pADC, bool burstMode, uint32_t adcRate, uint8_t clks)
{
1a000f04:	b570      	push	{r4, r5, r6, lr}
1a000f06:	460d      	mov	r5, r1
1a000f08:	4614      	mov	r4, r2
1a000f0a:	461e      	mov	r6, r3
	   A/D converter, which should be less than or equal to 4.5MHz.
	   A fully conversion requires (bits_accuracy+1) of these clocks.
	   ADC Clock = PCLK_ADC0 / (CLKDIV + 1);
	   ADC rate = ADC clock / (the number of clocks required for each conversion);
	 */
	adcBlockFreq = Chip_Clock_GetRate(Chip_ADC_GetClockIndex(pADC));
1a000f0c:	f7ff fff0 	bl	1a000ef0 <Chip_ADC_GetClockIndex>
1a000f10:	f000 faf4 	bl	1a0014fc <Chip_Clock_GetRate>
	if (burstMode) {
1a000f14:	b965      	cbnz	r5, 1a000f30 <getClkDiv+0x2c>
		fullAdcRate = adcRate * clks;
	}
	else {
		fullAdcRate = adcRate * getFullConvClk();
1a000f16:	eb04 0384 	add.w	r3, r4, r4, lsl #2
1a000f1a:	eb04 0443 	add.w	r4, r4, r3, lsl #1
	}

	/* Get the round value by fomular: (2*A + B)/(2*B) */
	div = ((adcBlockFreq * 2 + fullAdcRate) / (fullAdcRate * 2)) - 1;
1a000f1e:	eb04 0040 	add.w	r0, r4, r0, lsl #1
1a000f22:	0064      	lsls	r4, r4, #1
1a000f24:	fbb0 f0f4 	udiv	r0, r0, r4
1a000f28:	b2c0      	uxtb	r0, r0
1a000f2a:	3801      	subs	r0, #1
	return div;
}
1a000f2c:	b2c0      	uxtb	r0, r0
1a000f2e:	bd70      	pop	{r4, r5, r6, pc}
		fullAdcRate = adcRate * clks;
1a000f30:	fb04 f406 	mul.w	r4, r4, r6
1a000f34:	e7f3      	b.n	1a000f1e <getClkDiv+0x1a>
1a000f36:	Address 0x000000001a000f36 is out of bounds.


1a000f38 <Chip_ADC_Init>:
 * Public functions
 ****************************************************************************/

/* Initialize the ADC peripheral and the ADC setup structure to default value */
void Chip_ADC_Init(LPC_ADC_T *pADC, ADC_CLOCK_SETUP_T *ADCSetup)
{
1a000f38:	b538      	push	{r3, r4, r5, lr}
1a000f3a:	4605      	mov	r5, r0
1a000f3c:	460c      	mov	r4, r1
	uint8_t div;
	uint32_t cr = 0;
	uint32_t clk;

	Chip_Clock_EnableOpts(Chip_ADC_GetClockIndex(pADC), true, true, 1);
1a000f3e:	f7ff ffd7 	bl	1a000ef0 <Chip_ADC_GetClockIndex>
1a000f42:	2301      	movs	r3, #1
1a000f44:	461a      	mov	r2, r3
1a000f46:	4619      	mov	r1, r3
1a000f48:	f000 faa0 	bl	1a00148c <Chip_Clock_EnableOpts>

	pADC->INTEN = 0;		/* Disable all interrupts */
1a000f4c:	2100      	movs	r1, #0
1a000f4e:	60e9      	str	r1, [r5, #12]

	cr |= ADC_CR_PDN;
	ADCSetup->adcRate = ADC_MAX_SAMPLE_RATE;
1a000f50:	4a08      	ldr	r2, [pc, #32]	; (1a000f74 <Chip_ADC_Init+0x3c>)
1a000f52:	6022      	str	r2, [r4, #0]
	ADCSetup->bitsAccuracy = ADC_10BITS;
1a000f54:	7121      	strb	r1, [r4, #4]
	clk = 11;
	ADCSetup->burstMode = false;
1a000f56:	7161      	strb	r1, [r4, #5]
	div = getClkDiv(pADC, false, ADCSetup->adcRate, clk);
1a000f58:	230b      	movs	r3, #11
1a000f5a:	4628      	mov	r0, r5
1a000f5c:	f7ff ffd2 	bl	1a000f04 <getClkDiv>
	cr |= ADC_CR_CLKDIV(div);
1a000f60:	0200      	lsls	r0, r0, #8
1a000f62:	f440 1300 	orr.w	r3, r0, #2097152	; 0x200000
	cr |= ADC_CR_BITACC(ADCSetup->bitsAccuracy);
1a000f66:	7920      	ldrb	r0, [r4, #4]
1a000f68:	0440      	lsls	r0, r0, #17
1a000f6a:	f400 2060 	and.w	r0, r0, #917504	; 0xe0000
1a000f6e:	4318      	orrs	r0, r3
	pADC->CR = cr;
1a000f70:	6028      	str	r0, [r5, #0]
}
1a000f72:	bd38      	pop	{r3, r4, r5, pc}
1a000f74:	00061a80 	.word	0x00061a80

1a000f78 <Chip_ADC_SetSampleRate>:
	setStartMode(pADC, (uint8_t) mode);
}

/* Set the ADC Sample rate */
void Chip_ADC_SetSampleRate(LPC_ADC_T *pADC, ADC_CLOCK_SETUP_T *ADCSetup, uint32_t rate)
{
1a000f78:	b570      	push	{r4, r5, r6, lr}
1a000f7a:	4605      	mov	r5, r0
1a000f7c:	460e      	mov	r6, r1
	uint8_t div;
	uint32_t cr;

	cr = pADC->CR & (~ADC_SAMPLE_RATE_CONFIG_MASK);
1a000f7e:	6804      	ldr	r4, [r0, #0]
1a000f80:	f424 246f 	bic.w	r4, r4, #978944	; 0xef000
1a000f84:	f424 6470 	bic.w	r4, r4, #3840	; 0xf00
	ADCSetup->adcRate = rate;
1a000f88:	600a      	str	r2, [r1, #0]
	div = getClkDiv(pADC, ADCSetup->burstMode, rate, (11 - ADCSetup->bitsAccuracy));
1a000f8a:	790b      	ldrb	r3, [r1, #4]
1a000f8c:	f1c3 030b 	rsb	r3, r3, #11
1a000f90:	b2db      	uxtb	r3, r3
1a000f92:	7949      	ldrb	r1, [r1, #5]
1a000f94:	f7ff ffb6 	bl	1a000f04 <getClkDiv>
	cr |= ADC_CR_CLKDIV(div);
1a000f98:	ea44 2400 	orr.w	r4, r4, r0, lsl #8
	cr |= ADC_CR_BITACC(ADCSetup->bitsAccuracy);
1a000f9c:	7930      	ldrb	r0, [r6, #4]
1a000f9e:	0440      	lsls	r0, r0, #17
1a000fa0:	f400 2060 	and.w	r0, r0, #917504	; 0xe0000
1a000fa4:	4320      	orrs	r0, r4
	pADC->CR = cr;
1a000fa6:	6028      	str	r0, [r5, #0]
}
1a000fa8:	bd70      	pop	{r4, r5, r6, pc}

1a000faa <Chip_ADC_SetResolution>:

/* Set the ADC accuracy bits */
void Chip_ADC_SetResolution(LPC_ADC_T *pADC, ADC_CLOCK_SETUP_T *ADCSetup, ADC_RESOLUTION_T resolution)
{
1a000faa:	b508      	push	{r3, lr}
	ADCSetup->bitsAccuracy = resolution;
1a000fac:	710a      	strb	r2, [r1, #4]
	Chip_ADC_SetSampleRate(pADC, ADCSetup, ADCSetup->adcRate);
1a000fae:	680a      	ldr	r2, [r1, #0]
1a000fb0:	f7ff ffe2 	bl	1a000f78 <Chip_ADC_SetSampleRate>
}
1a000fb4:	bd08      	pop	{r3, pc}
1a000fb6:	Address 0x000000001a000fb6 is out of bounds.


1a000fb8 <pll_calc_divs>:
		return -val;
	return val;
}

static void pll_calc_divs(uint32_t freq, PLL_PARAM_T *ppll)
{
1a000fb8:	b4f0      	push	{r4, r5, r6, r7}

	uint32_t prev = freq;
	int n, m, p;

	/* When direct mode is set FBSEL should be a don't care */
	if (ppll->ctrl & (1 << 7)) {
1a000fba:	680b      	ldr	r3, [r1, #0]
1a000fbc:	f013 0f80 	tst.w	r3, #128	; 0x80
1a000fc0:	d002      	beq.n	1a000fc8 <pll_calc_divs+0x10>
		ppll->ctrl &= ~(1 << 6);
1a000fc2:	f023 0340 	bic.w	r3, r3, #64	; 0x40
1a000fc6:	600b      	str	r3, [r1, #0]
	}
	for (n = 1; n <= 4; n++) {
		for (p = 0; p < 4; p ++) {
1a000fc8:	4607      	mov	r7, r0
1a000fca:	2501      	movs	r5, #1
1a000fcc:	e03b      	b.n	1a001046 <pll_calc_divs+0x8e>
			for (m = 1; m <= 256; m++) {
				uint32_t fcco, fout;
				if (ppll->ctrl & (1 << 6)) {
					fcco = ((m << (p + 1)) * ppll->fin) / n;
				} else {
					fcco = (m * ppll->fin) / n;
1a000fce:	694b      	ldr	r3, [r1, #20]
1a000fd0:	fb03 f302 	mul.w	r3, r3, r2
1a000fd4:	fbb3 f3f5 	udiv	r3, r3, r5
1a000fd8:	e014      	b.n	1a001004 <pll_calc_divs+0x4c>
				}
				if (fcco < PLL_MIN_CCO_FREQ) continue;
				if (fcco > PLL_MAX_CCO_FREQ) break;
				if (ppll->ctrl & (1 << 7)) {
					fout = fcco;
1a000fda:	461c      	mov	r4, r3
1a000fdc:	e020      	b.n	1a001020 <pll_calc_divs+0x68>
		return -val;
1a000fde:	f1cc 0c00 	rsb	ip, ip, #0
1a000fe2:	e020      	b.n	1a001026 <pll_calc_divs+0x6e>
			for (m = 1; m <= 256; m++) {
1a000fe4:	3201      	adds	r2, #1
1a000fe6:	f5b2 7f80 	cmp.w	r2, #256	; 0x100
1a000fea:	dc26      	bgt.n	1a00103a <pll_calc_divs+0x82>
				if (ppll->ctrl & (1 << 6)) {
1a000fec:	680c      	ldr	r4, [r1, #0]
1a000fee:	f014 0f40 	tst.w	r4, #64	; 0x40
1a000ff2:	d0ec      	beq.n	1a000fce <pll_calc_divs+0x16>
					fcco = ((m << (p + 1)) * ppll->fin) / n;
1a000ff4:	1c73      	adds	r3, r6, #1
1a000ff6:	fa02 fc03 	lsl.w	ip, r2, r3
1a000ffa:	694b      	ldr	r3, [r1, #20]
1a000ffc:	fb03 f30c 	mul.w	r3, r3, ip
1a001000:	fbb3 f3f5 	udiv	r3, r3, r5
				if (fcco < PLL_MIN_CCO_FREQ) continue;
1a001004:	f8df c04c 	ldr.w	ip, [pc, #76]	; 1a001054 <pll_calc_divs+0x9c>
1a001008:	4563      	cmp	r3, ip
1a00100a:	d9eb      	bls.n	1a000fe4 <pll_calc_divs+0x2c>
				if (fcco > PLL_MAX_CCO_FREQ) break;
1a00100c:	f8df c048 	ldr.w	ip, [pc, #72]	; 1a001058 <pll_calc_divs+0xa0>
1a001010:	4563      	cmp	r3, ip
1a001012:	d812      	bhi.n	1a00103a <pll_calc_divs+0x82>
				if (ppll->ctrl & (1 << 7)) {
1a001014:	f014 0f80 	tst.w	r4, #128	; 0x80
1a001018:	d1df      	bne.n	1a000fda <pll_calc_divs+0x22>
				} else {
					fout = fcco >> (p + 1);
1a00101a:	1c74      	adds	r4, r6, #1
1a00101c:	fa23 f404 	lsr.w	r4, r3, r4
	if (val < 0)
1a001020:	ebb0 0c04 	subs.w	ip, r0, r4
1a001024:	d4db      	bmi.n	1a000fde <pll_calc_divs+0x26>
				}

				if (ABS(freq - fout) < prev) {
1a001026:	4567      	cmp	r7, ip
1a001028:	d9dc      	bls.n	1a000fe4 <pll_calc_divs+0x2c>
					ppll->nsel = n;
1a00102a:	608d      	str	r5, [r1, #8]
					ppll->psel = p + 1;
1a00102c:	1c77      	adds	r7, r6, #1
1a00102e:	60cf      	str	r7, [r1, #12]
					ppll->msel = m;
1a001030:	610a      	str	r2, [r1, #16]
					ppll->fout = fout;
1a001032:	618c      	str	r4, [r1, #24]
					ppll->fcco = fcco;
1a001034:	61cb      	str	r3, [r1, #28]
					prev = ABS(freq - fout);
1a001036:	4667      	mov	r7, ip
1a001038:	e7d4      	b.n	1a000fe4 <pll_calc_divs+0x2c>
		for (p = 0; p < 4; p ++) {
1a00103a:	3601      	adds	r6, #1
1a00103c:	2e03      	cmp	r6, #3
1a00103e:	dc01      	bgt.n	1a001044 <pll_calc_divs+0x8c>
			for (m = 1; m <= 256; m++) {
1a001040:	2201      	movs	r2, #1
1a001042:	e7d0      	b.n	1a000fe6 <pll_calc_divs+0x2e>
	for (n = 1; n <= 4; n++) {
1a001044:	3501      	adds	r5, #1
1a001046:	2d04      	cmp	r5, #4
1a001048:	dc01      	bgt.n	1a00104e <pll_calc_divs+0x96>
		for (p = 0; p < 4; p ++) {
1a00104a:	2600      	movs	r6, #0
1a00104c:	e7f6      	b.n	1a00103c <pll_calc_divs+0x84>
				}
			}
		}
	}
}
1a00104e:	bcf0      	pop	{r4, r5, r6, r7}
1a001050:	4770      	bx	lr
1a001052:	bf00      	nop
1a001054:	094c5eff 	.word	0x094c5eff
1a001058:	1312d000 	.word	0x1312d000

1a00105c <pll_get_frac>:

static void pll_get_frac(uint32_t freq, PLL_PARAM_T *ppll)
{
1a00105c:	b5f0      	push	{r4, r5, r6, r7, lr}
1a00105e:	b099      	sub	sp, #100	; 0x64
1a001060:	4605      	mov	r5, r0
1a001062:	460c      	mov	r4, r1
	int diff[3];
	PLL_PARAM_T pll[3] = {{0},{0},{0}};
1a001064:	225c      	movs	r2, #92	; 0x5c
1a001066:	2100      	movs	r1, #0
1a001068:	a801      	add	r0, sp, #4
1a00106a:	f001 fde7 	bl	1a002c3c <memset>

	/* Try direct mode */
	pll[0].ctrl |= (1 << 7);
1a00106e:	2380      	movs	r3, #128	; 0x80
1a001070:	9300      	str	r3, [sp, #0]
	pll[0].fin = ppll->fin;
1a001072:	6963      	ldr	r3, [r4, #20]
1a001074:	9305      	str	r3, [sp, #20]
	pll[0].srcin = ppll->srcin;
1a001076:	7923      	ldrb	r3, [r4, #4]
1a001078:	f88d 3004 	strb.w	r3, [sp, #4]
	pll_calc_divs(freq, &pll[0]);
1a00107c:	4669      	mov	r1, sp
1a00107e:	4628      	mov	r0, r5
1a001080:	f7ff ff9a 	bl	1a000fb8 <pll_calc_divs>
	if (pll[0].fout == freq) {
1a001084:	9b06      	ldr	r3, [sp, #24]
1a001086:	42ab      	cmp	r3, r5
1a001088:	d027      	beq.n	1a0010da <pll_get_frac+0x7e>
	if (val < 0)
1a00108a:	1aeb      	subs	r3, r5, r3
1a00108c:	d42e      	bmi.n	1a0010ec <pll_get_frac+0x90>
		*ppll = pll[0];
		return ;
	}
	diff[0] = ABS(freq - pll[0].fout);
1a00108e:	461e      	mov	r6, r3

	/* Try non-Integer mode */
	pll[2].ctrl &= ~(1 << 6);			// need to set FBSEL to 0
1a001090:	9b10      	ldr	r3, [sp, #64]	; 0x40
1a001092:	f023 0340 	bic.w	r3, r3, #64	; 0x40
1a001096:	9310      	str	r3, [sp, #64]	; 0x40
	pll[2].fin = ppll->fin;
1a001098:	6963      	ldr	r3, [r4, #20]
1a00109a:	9315      	str	r3, [sp, #84]	; 0x54
	pll[2].srcin = ppll->srcin;
1a00109c:	7923      	ldrb	r3, [r4, #4]
1a00109e:	f88d 3044 	strb.w	r3, [sp, #68]	; 0x44
	pll_calc_divs(freq, &pll[2]);
1a0010a2:	a910      	add	r1, sp, #64	; 0x40
1a0010a4:	4628      	mov	r0, r5
1a0010a6:	f7ff ff87 	bl	1a000fb8 <pll_calc_divs>
	if (pll[2].fout == freq) {
1a0010aa:	9b16      	ldr	r3, [sp, #88]	; 0x58
1a0010ac:	42ab      	cmp	r3, r5
1a0010ae:	d01f      	beq.n	1a0010f0 <pll_get_frac+0x94>
	if (val < 0)
1a0010b0:	1aeb      	subs	r3, r5, r3
1a0010b2:	d425      	bmi.n	1a001100 <pll_get_frac+0xa4>
		*ppll = pll[2];
		return ;
	}
	diff[2] = ABS(freq - pll[2].fout);
1a0010b4:	461f      	mov	r7, r3
	
	if (freq <= 110000000) {
1a0010b6:	4b2b      	ldr	r3, [pc, #172]	; (1a001164 <pll_get_frac+0x108>)
1a0010b8:	429d      	cmp	r5, r3
1a0010ba:	d923      	bls.n	1a001104 <pll_get_frac+0xa8>
		if (pll[1].fout == freq) {
			*ppll = pll[1];
			return ;
		}
	}
	diff[1] = ABS(freq - pll[1].fout);
1a0010bc:	9b0e      	ldr	r3, [sp, #56]	; 0x38
	if (val < 0)
1a0010be:	1aed      	subs	r5, r5, r3
1a0010c0:	d433      	bmi.n	1a00112a <pll_get_frac+0xce>

	/* Find the min of 3 and return */
	if (diff[0] <= diff[1]) {
1a0010c2:	42ae      	cmp	r6, r5
1a0010c4:	dc3b      	bgt.n	1a00113e <pll_get_frac+0xe2>
		if (diff[0] <= diff[2]) {
1a0010c6:	42be      	cmp	r6, r7
1a0010c8:	dc31      	bgt.n	1a00112e <pll_get_frac+0xd2>
			*ppll = pll[0];
1a0010ca:	466d      	mov	r5, sp
1a0010cc:	cd0f      	ldmia	r5!, {r0, r1, r2, r3}
1a0010ce:	c40f      	stmia	r4!, {r0, r1, r2, r3}
1a0010d0:	e895 000f 	ldmia.w	r5, {r0, r1, r2, r3}
1a0010d4:	e884 000f 	stmia.w	r4, {r0, r1, r2, r3}
1a0010d8:	e006      	b.n	1a0010e8 <pll_get_frac+0x8c>
		*ppll = pll[0];
1a0010da:	466d      	mov	r5, sp
1a0010dc:	cd0f      	ldmia	r5!, {r0, r1, r2, r3}
1a0010de:	c40f      	stmia	r4!, {r0, r1, r2, r3}
1a0010e0:	e895 000f 	ldmia.w	r5, {r0, r1, r2, r3}
1a0010e4:	e884 000f 	stmia.w	r4, {r0, r1, r2, r3}
			*ppll = pll[1];
		} else {
			*ppll = pll[2];
		}
	}
}
1a0010e8:	b019      	add	sp, #100	; 0x64
1a0010ea:	bdf0      	pop	{r4, r5, r6, r7, pc}
		return -val;
1a0010ec:	425b      	negs	r3, r3
1a0010ee:	e7ce      	b.n	1a00108e <pll_get_frac+0x32>
		*ppll = pll[2];
1a0010f0:	ad10      	add	r5, sp, #64	; 0x40
1a0010f2:	cd0f      	ldmia	r5!, {r0, r1, r2, r3}
1a0010f4:	c40f      	stmia	r4!, {r0, r1, r2, r3}
1a0010f6:	e895 000f 	ldmia.w	r5, {r0, r1, r2, r3}
1a0010fa:	e884 000f 	stmia.w	r4, {r0, r1, r2, r3}
		return ;
1a0010fe:	e7f3      	b.n	1a0010e8 <pll_get_frac+0x8c>
		return -val;
1a001100:	425b      	negs	r3, r3
1a001102:	e7d7      	b.n	1a0010b4 <pll_get_frac+0x58>
		pll[1].ctrl = (1 << 6);
1a001104:	2340      	movs	r3, #64	; 0x40
1a001106:	9308      	str	r3, [sp, #32]
		pll[1].fin = ppll->fin;
1a001108:	6963      	ldr	r3, [r4, #20]
1a00110a:	930d      	str	r3, [sp, #52]	; 0x34
		pll_calc_divs(freq, &pll[1]);
1a00110c:	a908      	add	r1, sp, #32
1a00110e:	4628      	mov	r0, r5
1a001110:	f7ff ff52 	bl	1a000fb8 <pll_calc_divs>
		if (pll[1].fout == freq) {
1a001114:	9b0e      	ldr	r3, [sp, #56]	; 0x38
1a001116:	42ab      	cmp	r3, r5
1a001118:	d1d0      	bne.n	1a0010bc <pll_get_frac+0x60>
			*ppll = pll[1];
1a00111a:	ad08      	add	r5, sp, #32
1a00111c:	cd0f      	ldmia	r5!, {r0, r1, r2, r3}
1a00111e:	c40f      	stmia	r4!, {r0, r1, r2, r3}
1a001120:	e895 000f 	ldmia.w	r5, {r0, r1, r2, r3}
1a001124:	e884 000f 	stmia.w	r4, {r0, r1, r2, r3}
			return ;
1a001128:	e7de      	b.n	1a0010e8 <pll_get_frac+0x8c>
		return -val;
1a00112a:	426d      	negs	r5, r5
1a00112c:	e7c9      	b.n	1a0010c2 <pll_get_frac+0x66>
			*ppll = pll[2];
1a00112e:	ad10      	add	r5, sp, #64	; 0x40
1a001130:	cd0f      	ldmia	r5!, {r0, r1, r2, r3}
1a001132:	c40f      	stmia	r4!, {r0, r1, r2, r3}
1a001134:	e895 000f 	ldmia.w	r5, {r0, r1, r2, r3}
1a001138:	e884 000f 	stmia.w	r4, {r0, r1, r2, r3}
1a00113c:	e7d4      	b.n	1a0010e8 <pll_get_frac+0x8c>
		if (diff[1] <= diff[2]) {
1a00113e:	42af      	cmp	r7, r5
1a001140:	db07      	blt.n	1a001152 <pll_get_frac+0xf6>
			*ppll = pll[1];
1a001142:	ad08      	add	r5, sp, #32
1a001144:	cd0f      	ldmia	r5!, {r0, r1, r2, r3}
1a001146:	c40f      	stmia	r4!, {r0, r1, r2, r3}
1a001148:	e895 000f 	ldmia.w	r5, {r0, r1, r2, r3}
1a00114c:	e884 000f 	stmia.w	r4, {r0, r1, r2, r3}
1a001150:	e7ca      	b.n	1a0010e8 <pll_get_frac+0x8c>
			*ppll = pll[2];
1a001152:	ad10      	add	r5, sp, #64	; 0x40
1a001154:	cd0f      	ldmia	r5!, {r0, r1, r2, r3}
1a001156:	c40f      	stmia	r4!, {r0, r1, r2, r3}
1a001158:	e895 000f 	ldmia.w	r5, {r0, r1, r2, r3}
1a00115c:	e884 000f 	stmia.w	r4, {r0, r1, r2, r3}
1a001160:	e7c2      	b.n	1a0010e8 <pll_get_frac+0x8c>
1a001162:	bf00      	nop
1a001164:	068e7780 	.word	0x068e7780

1a001168 <Chip_Clock_FindBaseClock>:
	return Chip_Clock_GetClockInputHz(input) / (div + 1);
}

/* Finds the base clock for the peripheral clock */
static CHIP_CGU_BASE_CLK_T Chip_Clock_FindBaseClock(CHIP_CCU_CLK_T clk)
{
1a001168:	b430      	push	{r4, r5}
1a00116a:	4605      	mov	r5, r0
	CHIP_CGU_BASE_CLK_T baseclk = CLK_BASE_NONE;
	int i = 0;
1a00116c:	2300      	movs	r3, #0
	CHIP_CGU_BASE_CLK_T baseclk = CLK_BASE_NONE;
1a00116e:	201c      	movs	r0, #28

	while ((baseclk == CLK_BASE_NONE) && (periph_to_base[i].clkbase != baseclk)) {
1a001170:	e000      	b.n	1a001174 <Chip_Clock_FindBaseClock+0xc>
		if ((clk >= periph_to_base[i].clkstart) && (clk <= periph_to_base[i].clkend)) {
			baseclk = periph_to_base[i].clkbase;
		}
		else {
			i++;
1a001172:	3301      	adds	r3, #1
	while ((baseclk == CLK_BASE_NONE) && (periph_to_base[i].clkbase != baseclk)) {
1a001174:	281c      	cmp	r0, #28
1a001176:	d118      	bne.n	1a0011aa <Chip_Clock_FindBaseClock+0x42>
1a001178:	eb03 0243 	add.w	r2, r3, r3, lsl #1
1a00117c:	0051      	lsls	r1, r2, #1
1a00117e:	4a0c      	ldr	r2, [pc, #48]	; (1a0011b0 <Chip_Clock_FindBaseClock+0x48>)
1a001180:	440a      	add	r2, r1
1a001182:	7914      	ldrb	r4, [r2, #4]
1a001184:	4284      	cmp	r4, r0
1a001186:	d010      	beq.n	1a0011aa <Chip_Clock_FindBaseClock+0x42>
		if ((clk >= periph_to_base[i].clkstart) && (clk <= periph_to_base[i].clkend)) {
1a001188:	eb03 0143 	add.w	r1, r3, r3, lsl #1
1a00118c:	004a      	lsls	r2, r1, #1
1a00118e:	4908      	ldr	r1, [pc, #32]	; (1a0011b0 <Chip_Clock_FindBaseClock+0x48>)
1a001190:	5a8a      	ldrh	r2, [r1, r2]
1a001192:	42aa      	cmp	r2, r5
1a001194:	d8ed      	bhi.n	1a001172 <Chip_Clock_FindBaseClock+0xa>
1a001196:	eb03 0243 	add.w	r2, r3, r3, lsl #1
1a00119a:	0051      	lsls	r1, r2, #1
1a00119c:	4a04      	ldr	r2, [pc, #16]	; (1a0011b0 <Chip_Clock_FindBaseClock+0x48>)
1a00119e:	440a      	add	r2, r1
1a0011a0:	8852      	ldrh	r2, [r2, #2]
1a0011a2:	42aa      	cmp	r2, r5
1a0011a4:	d3e5      	bcc.n	1a001172 <Chip_Clock_FindBaseClock+0xa>
			baseclk = periph_to_base[i].clkbase;
1a0011a6:	4620      	mov	r0, r4
1a0011a8:	e7e4      	b.n	1a001174 <Chip_Clock_FindBaseClock+0xc>
		}
	}

	return baseclk;
}
1a0011aa:	bc30      	pop	{r4, r5}
1a0011ac:	4770      	bx	lr
1a0011ae:	bf00      	nop
1a0011b0:	1a00d55c 	.word	0x1a00d55c

1a0011b4 <Chip_Clock_EnableCrystal>:
 * Public functions
 ****************************************************************************/

/* Enables the crystal oscillator */
void Chip_Clock_EnableCrystal(void)
{
1a0011b4:	b082      	sub	sp, #8
	volatile uint32_t delay = 1000;
1a0011b6:	f44f 737a 	mov.w	r3, #1000	; 0x3e8
1a0011ba:	9301      	str	r3, [sp, #4]

	uint32_t OldCrystalConfig = LPC_CGU->XTAL_OSC_CTRL;
1a0011bc:	4a0d      	ldr	r2, [pc, #52]	; (1a0011f4 <Chip_Clock_EnableCrystal+0x40>)
1a0011be:	6993      	ldr	r3, [r2, #24]

	/* Clear bypass mode */
	OldCrystalConfig &= (~2);
1a0011c0:	f023 0102 	bic.w	r1, r3, #2
	if (OldCrystalConfig != LPC_CGU->XTAL_OSC_CTRL) {
1a0011c4:	6992      	ldr	r2, [r2, #24]
1a0011c6:	428a      	cmp	r2, r1
1a0011c8:	d001      	beq.n	1a0011ce <Chip_Clock_EnableCrystal+0x1a>
		LPC_CGU->XTAL_OSC_CTRL = OldCrystalConfig;
1a0011ca:	4a0a      	ldr	r2, [pc, #40]	; (1a0011f4 <Chip_Clock_EnableCrystal+0x40>)
1a0011cc:	6191      	str	r1, [r2, #24]
	}

	/* Enable crystal oscillator */
	OldCrystalConfig &= (~1);
1a0011ce:	f023 0303 	bic.w	r3, r3, #3
	if (OscRateIn >= 20000000) {
1a0011d2:	4a09      	ldr	r2, [pc, #36]	; (1a0011f8 <Chip_Clock_EnableCrystal+0x44>)
1a0011d4:	6811      	ldr	r1, [r2, #0]
1a0011d6:	4a09      	ldr	r2, [pc, #36]	; (1a0011fc <Chip_Clock_EnableCrystal+0x48>)
1a0011d8:	4291      	cmp	r1, r2
1a0011da:	d901      	bls.n	1a0011e0 <Chip_Clock_EnableCrystal+0x2c>
		OldCrystalConfig |= 4;	/* Set high frequency mode */
1a0011dc:	f043 0304 	orr.w	r3, r3, #4

	}
	LPC_CGU->XTAL_OSC_CTRL = OldCrystalConfig;
1a0011e0:	4a04      	ldr	r2, [pc, #16]	; (1a0011f4 <Chip_Clock_EnableCrystal+0x40>)
1a0011e2:	6193      	str	r3, [r2, #24]

	/* Delay for 250uSec */
	while(delay--) {}
1a0011e4:	9b01      	ldr	r3, [sp, #4]
1a0011e6:	1e5a      	subs	r2, r3, #1
1a0011e8:	9201      	str	r2, [sp, #4]
1a0011ea:	2b00      	cmp	r3, #0
1a0011ec:	d1fa      	bne.n	1a0011e4 <Chip_Clock_EnableCrystal+0x30>
}
1a0011ee:	b002      	add	sp, #8
1a0011f0:	4770      	bx	lr
1a0011f2:	bf00      	nop
1a0011f4:	40050000 	.word	0x40050000
1a0011f8:	1a00d4c4 	.word	0x1a00d4c4
1a0011fc:	01312cff 	.word	0x01312cff

1a001200 <Chip_Clock_GetDividerSource>:
}

/* Gets a CGU clock divider source */
CHIP_CGU_CLKIN_T Chip_Clock_GetDividerSource(CHIP_CGU_IDIV_T Divider)
{
	uint32_t reg = LPC_CGU->IDIV_CTRL[Divider];
1a001200:	3012      	adds	r0, #18
1a001202:	4b05      	ldr	r3, [pc, #20]	; (1a001218 <Chip_Clock_GetDividerSource+0x18>)
1a001204:	f853 0020 	ldr.w	r0, [r3, r0, lsl #2]

	if (reg & 1) {	/* divider is powered down */
1a001208:	f010 0f01 	tst.w	r0, #1
1a00120c:	d102      	bne.n	1a001214 <Chip_Clock_GetDividerSource+0x14>
		return CLKINPUT_PD;
	}

	return (CHIP_CGU_CLKIN_T) ((reg >> 24) & 0x1F);
1a00120e:	f3c0 6004 	ubfx	r0, r0, #24, #5
1a001212:	4770      	bx	lr
		return CLKINPUT_PD;
1a001214:	2011      	movs	r0, #17
}
1a001216:	4770      	bx	lr
1a001218:	40050000 	.word	0x40050000

1a00121c <Chip_Clock_GetDividerDivisor>:

/* Gets a CGU clock divider divisor */
uint32_t Chip_Clock_GetDividerDivisor(CHIP_CGU_IDIV_T Divider)
{
	return (CHIP_CGU_CLKIN_T) ((LPC_CGU->IDIV_CTRL[Divider] >> 2) & CHIP_CGU_IDIV_MASK(Divider));
1a00121c:	f100 0212 	add.w	r2, r0, #18
1a001220:	4b03      	ldr	r3, [pc, #12]	; (1a001230 <Chip_Clock_GetDividerDivisor+0x14>)
1a001222:	f853 2022 	ldr.w	r2, [r3, r2, lsl #2]
1a001226:	4b03      	ldr	r3, [pc, #12]	; (1a001234 <Chip_Clock_GetDividerDivisor+0x18>)
1a001228:	5c18      	ldrb	r0, [r3, r0]
}
1a00122a:	ea00 0092 	and.w	r0, r0, r2, lsr #2
1a00122e:	4770      	bx	lr
1a001230:	40050000 	.word	0x40050000
1a001234:	1a00d554 	.word	0x1a00d554

1a001238 <Chip_Clock_GetClockInputHz>:

/* Returns the frequency of the specified input clock source */
uint32_t Chip_Clock_GetClockInputHz(CHIP_CGU_CLKIN_T input)
{
1a001238:	b508      	push	{r3, lr}
	uint32_t rate = 0;

	switch (input) {
1a00123a:	2810      	cmp	r0, #16
1a00123c:	d80a      	bhi.n	1a001254 <Chip_Clock_GetClockInputHz+0x1c>
1a00123e:	e8df f000 	tbb	[pc, r0]
1a001242:	0b42      	.short	0x0b42
1a001244:	091f160d 	.word	0x091f160d
1a001248:	2b282522 	.word	0x2b282522
1a00124c:	322e0909 	.word	0x322e0909
1a001250:	3a36      	.short	0x3a36
1a001252:	3e          	.byte	0x3e
1a001253:	00          	.byte	0x00
	uint32_t rate = 0;
1a001254:	2000      	movs	r0, #0
1a001256:	e038      	b.n	1a0012ca <Chip_Clock_GetClockInputHz+0x92>
	case CLKIN_32K:
		rate = CRYSTAL_32K_FREQ_IN;
		break;

	case CLKIN_IRC:
		rate = CGU_IRC_FREQ;
1a001258:	481e      	ldr	r0, [pc, #120]	; (1a0012d4 <Chip_Clock_GetClockInputHz+0x9c>)
		break;
1a00125a:	e036      	b.n	1a0012ca <Chip_Clock_GetClockInputHz+0x92>

	case CLKIN_ENET_RX:
		if ((LPC_CREG->CREG6 & 0x07) != 0x4) {
1a00125c:	4b1e      	ldr	r3, [pc, #120]	; (1a0012d8 <Chip_Clock_GetClockInputHz+0xa0>)
1a00125e:	f8d3 312c 	ldr.w	r3, [r3, #300]	; 0x12c
1a001262:	f003 0307 	and.w	r3, r3, #7
1a001266:	2b04      	cmp	r3, #4
1a001268:	d130      	bne.n	1a0012cc <Chip_Clock_GetClockInputHz+0x94>
	uint32_t rate = 0;
1a00126a:	2000      	movs	r0, #0
1a00126c:	e02d      	b.n	1a0012ca <Chip_Clock_GetClockInputHz+0x92>
			rate = 25000000;
		}
		break;

	case CLKIN_ENET_TX:
		if ((LPC_CREG->CREG6 & 0x07) != 0x4) {
1a00126e:	4b1a      	ldr	r3, [pc, #104]	; (1a0012d8 <Chip_Clock_GetClockInputHz+0xa0>)
1a001270:	f8d3 312c 	ldr.w	r3, [r3, #300]	; 0x12c
1a001274:	f003 0307 	and.w	r3, r3, #7
1a001278:	2b04      	cmp	r3, #4
1a00127a:	d029      	beq.n	1a0012d0 <Chip_Clock_GetClockInputHz+0x98>
			rate = 25000000; /* MII uses 25 MHz */
1a00127c:	4817      	ldr	r0, [pc, #92]	; (1a0012dc <Chip_Clock_GetClockInputHz+0xa4>)
1a00127e:	e024      	b.n	1a0012ca <Chip_Clock_GetClockInputHz+0x92>
			rate = 50000000; /* RMII uses 50 MHz */
		}
		break;

	case CLKIN_CLKIN:
		rate = ExtRateIn;
1a001280:	4b17      	ldr	r3, [pc, #92]	; (1a0012e0 <Chip_Clock_GetClockInputHz+0xa8>)
1a001282:	6818      	ldr	r0, [r3, #0]
		break;
1a001284:	e021      	b.n	1a0012ca <Chip_Clock_GetClockInputHz+0x92>

	case CLKIN_CRYSTAL:
		rate = OscRateIn;
1a001286:	4b17      	ldr	r3, [pc, #92]	; (1a0012e4 <Chip_Clock_GetClockInputHz+0xac>)
1a001288:	6818      	ldr	r0, [r3, #0]
		break;
1a00128a:	e01e      	b.n	1a0012ca <Chip_Clock_GetClockInputHz+0x92>

	case CLKIN_USBPLL:
		rate = audio_usb_pll_freq[CGU_USB_PLL];
1a00128c:	4b16      	ldr	r3, [pc, #88]	; (1a0012e8 <Chip_Clock_GetClockInputHz+0xb0>)
1a00128e:	6818      	ldr	r0, [r3, #0]
		break;
1a001290:	e01b      	b.n	1a0012ca <Chip_Clock_GetClockInputHz+0x92>

	case CLKIN_AUDIOPLL:
		rate = audio_usb_pll_freq[CGU_AUDIO_PLL];
1a001292:	4b15      	ldr	r3, [pc, #84]	; (1a0012e8 <Chip_Clock_GetClockInputHz+0xb0>)
1a001294:	6858      	ldr	r0, [r3, #4]
		break;
1a001296:	e018      	b.n	1a0012ca <Chip_Clock_GetClockInputHz+0x92>

	case CLKIN_MAINPLL:
		rate = Chip_Clock_GetMainPLLHz();
1a001298:	f000 f86a 	bl	1a001370 <Chip_Clock_GetMainPLLHz>
		break;
1a00129c:	e015      	b.n	1a0012ca <Chip_Clock_GetClockInputHz+0x92>

	case CLKIN_IDIVA:
		rate = Chip_Clock_GetDivRate(input, CLK_IDIV_A);
1a00129e:	2100      	movs	r1, #0
1a0012a0:	f000 f89c 	bl	1a0013dc <Chip_Clock_GetDivRate>
		break;
1a0012a4:	e011      	b.n	1a0012ca <Chip_Clock_GetClockInputHz+0x92>

	case CLKIN_IDIVB:
		rate = Chip_Clock_GetDivRate(input, CLK_IDIV_B);
1a0012a6:	2101      	movs	r1, #1
1a0012a8:	f000 f898 	bl	1a0013dc <Chip_Clock_GetDivRate>
		break;
1a0012ac:	e00d      	b.n	1a0012ca <Chip_Clock_GetClockInputHz+0x92>

	case CLKIN_IDIVC:
		rate = Chip_Clock_GetDivRate(input, CLK_IDIV_C);
1a0012ae:	2102      	movs	r1, #2
1a0012b0:	f000 f894 	bl	1a0013dc <Chip_Clock_GetDivRate>
		break;
1a0012b4:	e009      	b.n	1a0012ca <Chip_Clock_GetClockInputHz+0x92>

	case CLKIN_IDIVD:
		rate = Chip_Clock_GetDivRate(input, CLK_IDIV_D);
1a0012b6:	2103      	movs	r1, #3
1a0012b8:	f000 f890 	bl	1a0013dc <Chip_Clock_GetDivRate>
		break;
1a0012bc:	e005      	b.n	1a0012ca <Chip_Clock_GetClockInputHz+0x92>

	case CLKIN_IDIVE:
		rate = Chip_Clock_GetDivRate(input, CLK_IDIV_E);
1a0012be:	2104      	movs	r1, #4
1a0012c0:	f000 f88c 	bl	1a0013dc <Chip_Clock_GetDivRate>
		break;
1a0012c4:	e001      	b.n	1a0012ca <Chip_Clock_GetClockInputHz+0x92>
		rate = CRYSTAL_32K_FREQ_IN;
1a0012c6:	f44f 4000 	mov.w	r0, #32768	; 0x8000
	default:
		break;
	}

	return rate;
}
1a0012ca:	bd08      	pop	{r3, pc}
			rate = 25000000;
1a0012cc:	4803      	ldr	r0, [pc, #12]	; (1a0012dc <Chip_Clock_GetClockInputHz+0xa4>)
1a0012ce:	e7fc      	b.n	1a0012ca <Chip_Clock_GetClockInputHz+0x92>
			rate = 50000000; /* RMII uses 50 MHz */
1a0012d0:	4806      	ldr	r0, [pc, #24]	; (1a0012ec <Chip_Clock_GetClockInputHz+0xb4>)
	return rate;
1a0012d2:	e7fa      	b.n	1a0012ca <Chip_Clock_GetClockInputHz+0x92>
1a0012d4:	00b71b00 	.word	0x00b71b00
1a0012d8:	40043000 	.word	0x40043000
1a0012dc:	017d7840 	.word	0x017d7840
1a0012e0:	1a00d498 	.word	0x1a00d498
1a0012e4:	1a00d4c4 	.word	0x1a00d4c4
1a0012e8:	100009fc 	.word	0x100009fc
1a0012ec:	02faf080 	.word	0x02faf080

1a0012f0 <Chip_Clock_CalcMainPLLValue>:
{
1a0012f0:	b538      	push	{r3, r4, r5, lr}
1a0012f2:	4605      	mov	r5, r0
1a0012f4:	460c      	mov	r4, r1
	ppll->fin = Chip_Clock_GetClockInputHz(ppll->srcin);
1a0012f6:	7908      	ldrb	r0, [r1, #4]
1a0012f8:	f7ff ff9e 	bl	1a001238 <Chip_Clock_GetClockInputHz>
1a0012fc:	6160      	str	r0, [r4, #20]
	if (freq > MAX_CLOCK_FREQ || freq < (PLL_MIN_CCO_FREQ / 16) || !ppll->fin) {
1a0012fe:	4b19      	ldr	r3, [pc, #100]	; (1a001364 <Chip_Clock_CalcMainPLLValue+0x74>)
1a001300:	442b      	add	r3, r5
1a001302:	4a19      	ldr	r2, [pc, #100]	; (1a001368 <Chip_Clock_CalcMainPLLValue+0x78>)
1a001304:	4293      	cmp	r3, r2
1a001306:	d821      	bhi.n	1a00134c <Chip_Clock_CalcMainPLLValue+0x5c>
1a001308:	b318      	cbz	r0, 1a001352 <Chip_Clock_CalcMainPLLValue+0x62>
	ppll->ctrl = 1 << 7; /* Enable direct mode [If possible] */
1a00130a:	2380      	movs	r3, #128	; 0x80
1a00130c:	6023      	str	r3, [r4, #0]
	ppll->nsel = 0;
1a00130e:	2300      	movs	r3, #0
1a001310:	60a3      	str	r3, [r4, #8]
	ppll->psel = 0;
1a001312:	60e3      	str	r3, [r4, #12]
	ppll->msel = freq / ppll->fin;
1a001314:	fbb5 f3f0 	udiv	r3, r5, r0
1a001318:	6123      	str	r3, [r4, #16]
	if (freq < PLL_MIN_CCO_FREQ || ppll->msel * ppll->fin != freq) {
1a00131a:	4a14      	ldr	r2, [pc, #80]	; (1a00136c <Chip_Clock_CalcMainPLLValue+0x7c>)
1a00131c:	4295      	cmp	r5, r2
1a00131e:	d903      	bls.n	1a001328 <Chip_Clock_CalcMainPLLValue+0x38>
1a001320:	fb03 f000 	mul.w	r0, r3, r0
1a001324:	42a8      	cmp	r0, r5
1a001326:	d007      	beq.n	1a001338 <Chip_Clock_CalcMainPLLValue+0x48>
		pll_get_frac(freq, ppll);
1a001328:	4621      	mov	r1, r4
1a00132a:	4628      	mov	r0, r5
1a00132c:	f7ff fe96 	bl	1a00105c <pll_get_frac>
		if (!ppll->nsel) {
1a001330:	68a3      	ldr	r3, [r4, #8]
1a001332:	b18b      	cbz	r3, 1a001358 <Chip_Clock_CalcMainPLLValue+0x68>
		ppll->nsel --;
1a001334:	3b01      	subs	r3, #1
1a001336:	60a3      	str	r3, [r4, #8]
	if (ppll->msel == 0) {
1a001338:	6923      	ldr	r3, [r4, #16]
1a00133a:	b183      	cbz	r3, 1a00135e <Chip_Clock_CalcMainPLLValue+0x6e>
	if (ppll->psel) {
1a00133c:	68e2      	ldr	r2, [r4, #12]
1a00133e:	b10a      	cbz	r2, 1a001344 <Chip_Clock_CalcMainPLLValue+0x54>
		ppll->psel --;
1a001340:	3a01      	subs	r2, #1
1a001342:	60e2      	str	r2, [r4, #12]
	ppll->msel --;
1a001344:	3b01      	subs	r3, #1
1a001346:	6123      	str	r3, [r4, #16]
	return 0;
1a001348:	2000      	movs	r0, #0
}
1a00134a:	bd38      	pop	{r3, r4, r5, pc}
		return -1;
1a00134c:	f04f 30ff 	mov.w	r0, #4294967295	; 0xffffffff
1a001350:	e7fb      	b.n	1a00134a <Chip_Clock_CalcMainPLLValue+0x5a>
1a001352:	f04f 30ff 	mov.w	r0, #4294967295	; 0xffffffff
1a001356:	e7f8      	b.n	1a00134a <Chip_Clock_CalcMainPLLValue+0x5a>
			return -1;
1a001358:	f04f 30ff 	mov.w	r0, #4294967295	; 0xffffffff
1a00135c:	e7f5      	b.n	1a00134a <Chip_Clock_CalcMainPLLValue+0x5a>
		return - 1;
1a00135e:	f04f 30ff 	mov.w	r0, #4294967295	; 0xffffffff
1a001362:	e7f2      	b.n	1a00134a <Chip_Clock_CalcMainPLLValue+0x5a>
1a001364:	ff6b3a10 	.word	0xff6b3a10
1a001368:	0b940510 	.word	0x0b940510
1a00136c:	094c5eff 	.word	0x094c5eff

1a001370 <Chip_Clock_GetMainPLLHz>:
{
1a001370:	b530      	push	{r4, r5, lr}
1a001372:	b083      	sub	sp, #12
	uint32_t PLLReg = LPC_CGU->PLL1_CTRL;
1a001374:	4d17      	ldr	r5, [pc, #92]	; (1a0013d4 <Chip_Clock_GetMainPLLHz+0x64>)
1a001376:	6c6c      	ldr	r4, [r5, #68]	; 0x44
	uint32_t freq = Chip_Clock_GetClockInputHz((CHIP_CGU_CLKIN_T) ((PLLReg >> 24) & 0xF));
1a001378:	f3c4 6003 	ubfx	r0, r4, #24, #4
1a00137c:	f7ff ff5c 	bl	1a001238 <Chip_Clock_GetClockInputHz>
	const uint8_t ptab[] = {1, 2, 4, 8};
1a001380:	4b15      	ldr	r3, [pc, #84]	; (1a0013d8 <Chip_Clock_GetMainPLLHz+0x68>)
1a001382:	681b      	ldr	r3, [r3, #0]
1a001384:	9301      	str	r3, [sp, #4]
	if (!(LPC_CGU->PLL1_STAT & 1)) {
1a001386:	6c2b      	ldr	r3, [r5, #64]	; 0x40
1a001388:	f013 0f01 	tst.w	r3, #1
1a00138c:	d01f      	beq.n	1a0013ce <Chip_Clock_GetMainPLLHz+0x5e>
	msel = (PLLReg >> 16) & 0xFF;
1a00138e:	f3c4 4307 	ubfx	r3, r4, #16, #8
	nsel = (PLLReg >> 12) & 0x3;
1a001392:	f3c4 3201 	ubfx	r2, r4, #12, #2
	psel = (PLLReg >> 8) & 0x3;
1a001396:	f3c4 2101 	ubfx	r1, r4, #8, #2
	fbsel = (PLLReg >> 6) & 0x1;
1a00139a:	f3c4 1580 	ubfx	r5, r4, #6, #1
	m = msel + 1;
1a00139e:	3301      	adds	r3, #1
	n = nsel + 1;
1a0013a0:	3201      	adds	r2, #1
	p = ptab[psel];
1a0013a2:	f10d 0c08 	add.w	ip, sp, #8
1a0013a6:	4461      	add	r1, ip
1a0013a8:	f811 1c04 	ldrb.w	r1, [r1, #-4]
	if (direct || fbsel) {
1a0013ac:	f014 0f80 	tst.w	r4, #128	; 0x80
1a0013b0:	d108      	bne.n	1a0013c4 <Chip_Clock_GetMainPLLHz+0x54>
1a0013b2:	b93d      	cbnz	r5, 1a0013c4 <Chip_Clock_GetMainPLLHz+0x54>
	return (m / (2 * p)) * (freq / n);
1a0013b4:	0049      	lsls	r1, r1, #1
1a0013b6:	fbb3 f3f1 	udiv	r3, r3, r1
1a0013ba:	fbb0 f0f2 	udiv	r0, r0, r2
1a0013be:	fb00 f003 	mul.w	r0, r0, r3
1a0013c2:	e005      	b.n	1a0013d0 <Chip_Clock_GetMainPLLHz+0x60>
		return m * (freq / n);
1a0013c4:	fbb0 f0f2 	udiv	r0, r0, r2
1a0013c8:	fb03 f000 	mul.w	r0, r3, r0
1a0013cc:	e000      	b.n	1a0013d0 <Chip_Clock_GetMainPLLHz+0x60>
		return 0;
1a0013ce:	2000      	movs	r0, #0
}
1a0013d0:	b003      	add	sp, #12
1a0013d2:	bd30      	pop	{r4, r5, pc}
1a0013d4:	40050000 	.word	0x40050000
1a0013d8:	1a00d550 	.word	0x1a00d550

1a0013dc <Chip_Clock_GetDivRate>:
{
1a0013dc:	b538      	push	{r3, r4, r5, lr}
1a0013de:	460c      	mov	r4, r1
	input = Chip_Clock_GetDividerSource(divider);
1a0013e0:	4608      	mov	r0, r1
1a0013e2:	f7ff ff0d 	bl	1a001200 <Chip_Clock_GetDividerSource>
1a0013e6:	4605      	mov	r5, r0
	div = Chip_Clock_GetDividerDivisor(divider);
1a0013e8:	4620      	mov	r0, r4
1a0013ea:	f7ff ff17 	bl	1a00121c <Chip_Clock_GetDividerDivisor>
1a0013ee:	4604      	mov	r4, r0
	return Chip_Clock_GetClockInputHz(input) / (div + 1);
1a0013f0:	4628      	mov	r0, r5
1a0013f2:	f7ff ff21 	bl	1a001238 <Chip_Clock_GetClockInputHz>
1a0013f6:	3401      	adds	r4, #1
}
1a0013f8:	fbb0 f0f4 	udiv	r0, r0, r4
1a0013fc:	bd38      	pop	{r3, r4, r5, pc}
1a0013fe:	Address 0x000000001a0013fe is out of bounds.


1a001400 <Chip_Clock_SetBaseClock>:
	return Chip_Clock_GetClockInputHz(Chip_Clock_GetBaseClock(clock));
}

/* Sets a CGU Base Clock clock source */
void Chip_Clock_SetBaseClock(CHIP_CGU_BASE_CLK_T BaseClock, CHIP_CGU_CLKIN_T Input, bool autoblocken, bool powerdn)
{
1a001400:	b430      	push	{r4, r5}
	uint32_t reg = LPC_CGU->BASE_CLK[BaseClock];
1a001402:	f100 0416 	add.w	r4, r0, #22
1a001406:	00a4      	lsls	r4, r4, #2
1a001408:	f104 4480 	add.w	r4, r4, #1073741824	; 0x40000000
1a00140c:	f504 24a0 	add.w	r4, r4, #327680	; 0x50000
1a001410:	6864      	ldr	r4, [r4, #4]

	if (BaseClock < CLK_BASE_NONE) {
1a001412:	281b      	cmp	r0, #27
1a001414:	d813      	bhi.n	1a00143e <Chip_Clock_SetBaseClock+0x3e>
		if (Input != CLKINPUT_PD) {
1a001416:	2911      	cmp	r1, #17
1a001418:	d01a      	beq.n	1a001450 <Chip_Clock_SetBaseClock+0x50>
			/* Mask off fields we plan to update */
			reg &= ~((0x1F << 24) | 1 | (1 << 11));
1a00141a:	4d0e      	ldr	r5, [pc, #56]	; (1a001454 <Chip_Clock_SetBaseClock+0x54>)
1a00141c:	4025      	ands	r5, r4

			if (autoblocken) {
1a00141e:	b10a      	cbz	r2, 1a001424 <Chip_Clock_SetBaseClock+0x24>
				reg |= (1 << 11);
1a001420:	f445 6500 	orr.w	r5, r5, #2048	; 0x800
			}
			if (powerdn) {
1a001424:	b10b      	cbz	r3, 1a00142a <Chip_Clock_SetBaseClock+0x2a>
				reg |= (1 << 0);
1a001426:	f045 0501 	orr.w	r5, r5, #1
			}

			/* Set clock source */
			reg |= (Input << 24);
1a00142a:	ea45 6501 	orr.w	r5, r5, r1, lsl #24

			LPC_CGU->BASE_CLK[BaseClock] = reg;
1a00142e:	3016      	adds	r0, #22
1a001430:	0080      	lsls	r0, r0, #2
1a001432:	f100 4080 	add.w	r0, r0, #1073741824	; 0x40000000
1a001436:	f500 20a0 	add.w	r0, r0, #327680	; 0x50000
1a00143a:	6045      	str	r5, [r0, #4]
1a00143c:	e008      	b.n	1a001450 <Chip_Clock_SetBaseClock+0x50>
		}
	}
	else {
		LPC_CGU->BASE_CLK[BaseClock] = reg | 1;	/* Power down this base clock */
1a00143e:	f044 0401 	orr.w	r4, r4, #1
1a001442:	3016      	adds	r0, #22
1a001444:	0080      	lsls	r0, r0, #2
1a001446:	f100 4080 	add.w	r0, r0, #1073741824	; 0x40000000
1a00144a:	f500 20a0 	add.w	r0, r0, #327680	; 0x50000
1a00144e:	6044      	str	r4, [r0, #4]
	}
}
1a001450:	bc30      	pop	{r4, r5}
1a001452:	4770      	bx	lr
1a001454:	e0fff7fe 	.word	0xe0fff7fe

1a001458 <Chip_Clock_GetBaseClock>:
/* Gets a CGU Base Clock clock source */
CHIP_CGU_CLKIN_T Chip_Clock_GetBaseClock(CHIP_CGU_BASE_CLK_T BaseClock)
{
	uint32_t reg;

	if (BaseClock >= CLK_BASE_NONE) {
1a001458:	281b      	cmp	r0, #27
1a00145a:	d80c      	bhi.n	1a001476 <Chip_Clock_GetBaseClock+0x1e>
		return CLKINPUT_PD;
	}

	reg = LPC_CGU->BASE_CLK[BaseClock];
1a00145c:	3016      	adds	r0, #22
1a00145e:	0080      	lsls	r0, r0, #2
1a001460:	f100 4080 	add.w	r0, r0, #1073741824	; 0x40000000
1a001464:	f500 20a0 	add.w	r0, r0, #327680	; 0x50000
1a001468:	6840      	ldr	r0, [r0, #4]

	/* base clock is powered down? */
	if (reg & 1) {
1a00146a:	f010 0f01 	tst.w	r0, #1
1a00146e:	d104      	bne.n	1a00147a <Chip_Clock_GetBaseClock+0x22>
		return CLKINPUT_PD;
	}

	return (CHIP_CGU_CLKIN_T) ((reg >> 24) & 0x1F);
1a001470:	f3c0 6004 	ubfx	r0, r0, #24, #5
1a001474:	4770      	bx	lr
		return CLKINPUT_PD;
1a001476:	2011      	movs	r0, #17
1a001478:	4770      	bx	lr
		return CLKINPUT_PD;
1a00147a:	2011      	movs	r0, #17
}
1a00147c:	4770      	bx	lr

1a00147e <Chip_Clock_GetBaseClocktHz>:
{
1a00147e:	b508      	push	{r3, lr}
	return Chip_Clock_GetClockInputHz(Chip_Clock_GetBaseClock(clock));
1a001480:	f7ff ffea 	bl	1a001458 <Chip_Clock_GetBaseClock>
1a001484:	f7ff fed8 	bl	1a001238 <Chip_Clock_GetClockInputHz>
}
1a001488:	bd08      	pop	{r3, pc}
1a00148a:	Address 0x000000001a00148a is out of bounds.


1a00148c <Chip_Clock_EnableOpts>:
/* Enables a peripheral clock and sets clock states */
void Chip_Clock_EnableOpts(CHIP_CCU_CLK_T clk, bool autoen, bool wakeupen, int div)
{
	uint32_t reg = 1;

	if (autoen) {
1a00148c:	b969      	cbnz	r1, 1a0014aa <Chip_Clock_EnableOpts+0x1e>
	uint32_t reg = 1;
1a00148e:	2101      	movs	r1, #1
		reg |= (1 << 1);
	}
	if (wakeupen) {
1a001490:	b10a      	cbz	r2, 1a001496 <Chip_Clock_EnableOpts+0xa>
		reg |= (1 << 2);
1a001492:	f041 0104 	orr.w	r1, r1, #4
	}

	/* Not all clocks support a divider, but we won't check that here. Only
	   dividers of 1 and 2 are allowed. Assume 1 if not 2 */
	if (div == 2) {
1a001496:	2b02      	cmp	r3, #2
1a001498:	d009      	beq.n	1a0014ae <Chip_Clock_EnableOpts+0x22>
		reg |= (1 << 5);
	}

	/* Setup peripheral clock and start running */
	if (clk >= CLK_CCU2_START) {
1a00149a:	f5b0 7fa1 	cmp.w	r0, #322	; 0x142
1a00149e:	d209      	bcs.n	1a0014b4 <Chip_Clock_EnableOpts+0x28>
		LPC_CCU2->CLKCCU[clk - CLK_CCU2_START].CFG = reg;
	}
	else {
		LPC_CCU1->CLKCCU[clk].CFG = reg;
1a0014a0:	3020      	adds	r0, #32
1a0014a2:	4b07      	ldr	r3, [pc, #28]	; (1a0014c0 <Chip_Clock_EnableOpts+0x34>)
1a0014a4:	f843 1030 	str.w	r1, [r3, r0, lsl #3]
	}
}
1a0014a8:	4770      	bx	lr
		reg |= (1 << 1);
1a0014aa:	2103      	movs	r1, #3
1a0014ac:	e7f0      	b.n	1a001490 <Chip_Clock_EnableOpts+0x4>
		reg |= (1 << 5);
1a0014ae:	f041 0120 	orr.w	r1, r1, #32
1a0014b2:	e7f2      	b.n	1a00149a <Chip_Clock_EnableOpts+0xe>
		LPC_CCU2->CLKCCU[clk - CLK_CCU2_START].CFG = reg;
1a0014b4:	f5a0 7091 	sub.w	r0, r0, #290	; 0x122
1a0014b8:	4b02      	ldr	r3, [pc, #8]	; (1a0014c4 <Chip_Clock_EnableOpts+0x38>)
1a0014ba:	f843 1030 	str.w	r1, [r3, r0, lsl #3]
1a0014be:	4770      	bx	lr
1a0014c0:	40051000 	.word	0x40051000
1a0014c4:	40052000 	.word	0x40052000

1a0014c8 <Chip_Clock_Enable>:

/* Enables a peripheral clock */
void Chip_Clock_Enable(CHIP_CCU_CLK_T clk)
{
	/* Start peripheral clock running */
	if (clk >= CLK_CCU2_START) {
1a0014c8:	f5b0 7fa1 	cmp.w	r0, #322	; 0x142
1a0014cc:	d208      	bcs.n	1a0014e0 <Chip_Clock_Enable+0x18>
		LPC_CCU2->CLKCCU[clk - CLK_CCU2_START].CFG |= 1;
	}
	else {
		LPC_CCU1->CLKCCU[clk].CFG |= 1;
1a0014ce:	4a09      	ldr	r2, [pc, #36]	; (1a0014f4 <Chip_Clock_Enable+0x2c>)
1a0014d0:	3020      	adds	r0, #32
1a0014d2:	f852 3030 	ldr.w	r3, [r2, r0, lsl #3]
1a0014d6:	f043 0301 	orr.w	r3, r3, #1
1a0014da:	f842 3030 	str.w	r3, [r2, r0, lsl #3]
	}
}
1a0014de:	4770      	bx	lr
		LPC_CCU2->CLKCCU[clk - CLK_CCU2_START].CFG |= 1;
1a0014e0:	4a05      	ldr	r2, [pc, #20]	; (1a0014f8 <Chip_Clock_Enable+0x30>)
1a0014e2:	f5a0 7091 	sub.w	r0, r0, #290	; 0x122
1a0014e6:	f852 3030 	ldr.w	r3, [r2, r0, lsl #3]
1a0014ea:	f043 0301 	orr.w	r3, r3, #1
1a0014ee:	f842 3030 	str.w	r3, [r2, r0, lsl #3]
1a0014f2:	4770      	bx	lr
1a0014f4:	40051000 	.word	0x40051000
1a0014f8:	40052000 	.word	0x40052000

1a0014fc <Chip_Clock_GetRate>:
	LPC_CCU2->PM = 0;
}

/* Returns a peripheral clock rate */
uint32_t Chip_Clock_GetRate(CHIP_CCU_CLK_T clk)
{
1a0014fc:	b510      	push	{r4, lr}
	CHIP_CGU_BASE_CLK_T baseclk;
	uint32_t reg, div, rate;

	/* Get CCU config register for clock */
	if (clk >= CLK_CCU2_START) {
1a0014fe:	f5b0 7fa1 	cmp.w	r0, #322	; 0x142
1a001502:	d309      	bcc.n	1a001518 <Chip_Clock_GetRate+0x1c>
		reg = LPC_CCU2->CLKCCU[clk - CLK_CCU2_START].CFG;
1a001504:	f5a0 7391 	sub.w	r3, r0, #290	; 0x122
1a001508:	4a0d      	ldr	r2, [pc, #52]	; (1a001540 <Chip_Clock_GetRate+0x44>)
1a00150a:	f852 4033 	ldr.w	r4, [r2, r3, lsl #3]
	else {
		reg = LPC_CCU1->CLKCCU[clk].CFG;
	}

	/* Is the clock enabled? */
	if (reg & 1) {
1a00150e:	f014 0f01 	tst.w	r4, #1
1a001512:	d107      	bne.n	1a001524 <Chip_Clock_GetRate+0x28>

		}
		rate = rate / div;
	}
	else {
		rate = 0;
1a001514:	2000      	movs	r0, #0
	}

	return rate;
}
1a001516:	bd10      	pop	{r4, pc}
		reg = LPC_CCU1->CLKCCU[clk].CFG;
1a001518:	f100 0320 	add.w	r3, r0, #32
1a00151c:	4a09      	ldr	r2, [pc, #36]	; (1a001544 <Chip_Clock_GetRate+0x48>)
1a00151e:	f852 4033 	ldr.w	r4, [r2, r3, lsl #3]
1a001522:	e7f4      	b.n	1a00150e <Chip_Clock_GetRate+0x12>
		baseclk = Chip_Clock_FindBaseClock(clk);
1a001524:	f7ff fe20 	bl	1a001168 <Chip_Clock_FindBaseClock>
		rate = Chip_Clock_GetBaseClocktHz(baseclk);
1a001528:	f7ff ffa9 	bl	1a00147e <Chip_Clock_GetBaseClocktHz>
		if (((reg >> 5) & 0x7) == 0) {
1a00152c:	f014 0fe0 	tst.w	r4, #224	; 0xe0
1a001530:	d103      	bne.n	1a00153a <Chip_Clock_GetRate+0x3e>
			div = 1;
1a001532:	2301      	movs	r3, #1
		rate = rate / div;
1a001534:	fbb0 f0f3 	udiv	r0, r0, r3
1a001538:	e7ed      	b.n	1a001516 <Chip_Clock_GetRate+0x1a>
			div = 2;/* No other dividers supported */
1a00153a:	2302      	movs	r3, #2
1a00153c:	e7fa      	b.n	1a001534 <Chip_Clock_GetRate+0x38>
1a00153e:	bf00      	nop
1a001540:	40052000 	.word	0x40052000
1a001544:	40051000 	.word	0x40051000

1a001548 <SystemCoreClockUpdate>:


/* Update system core clock rate, should be called if the system has
   a clock rate change */
void SystemCoreClockUpdate(void)
{
1a001548:	b508      	push	{r3, lr}
	/* CPU core speed */
	SystemCoreClock = Chip_Clock_GetRate(CLK_MX_MXCORE);
1a00154a:	2069      	movs	r0, #105	; 0x69
1a00154c:	f7ff ffd6 	bl	1a0014fc <Chip_Clock_GetRate>
1a001550:	4b01      	ldr	r3, [pc, #4]	; (1a001558 <SystemCoreClockUpdate+0x10>)
1a001552:	6018      	str	r0, [r3, #0]
}
1a001554:	bd08      	pop	{r3, pc}
1a001556:	bf00      	nop
1a001558:	10000a54 	.word	0x10000a54

1a00155c <Chip_SetupCoreClock>:
/*****************************************************************************
 * Public functions
 ****************************************************************************/
/* Setup Chip Core clock */
void Chip_SetupCoreClock(CHIP_CGU_CLKIN_T clkin, uint32_t core_freq, bool setbase)
{
1a00155c:	b570      	push	{r4, r5, r6, lr}
1a00155e:	b08a      	sub	sp, #40	; 0x28
1a001560:	4605      	mov	r5, r0
1a001562:	460e      	mov	r6, r1
1a001564:	4614      	mov	r4, r2
	int i;
	volatile uint32_t delay = 50000; // FIXME: original was 500, fix for horrible crystals. @Eric
1a001566:	f24c 3350 	movw	r3, #50000	; 0xc350
1a00156a:	9309      	str	r3, [sp, #36]	; 0x24
	uint32_t direct = 0, pdivide = 0;
	PLL_PARAM_T ppll;

	if (clkin == CLKIN_CRYSTAL) {
1a00156c:	2806      	cmp	r0, #6
1a00156e:	d018      	beq.n	1a0015a2 <Chip_SetupCoreClock+0x46>
		/* Switch main system clocking to crystal */
		Chip_Clock_EnableCrystal();
	}
	Chip_Clock_SetBaseClock(CLK_BASE_MX, clkin, true, false);
1a001570:	2300      	movs	r3, #0
1a001572:	2201      	movs	r2, #1
1a001574:	4629      	mov	r1, r5
1a001576:	2004      	movs	r0, #4
1a001578:	f7ff ff42 	bl	1a001400 <Chip_Clock_SetBaseClock>
 * Saves power if the main PLL is not needed.
 */
__STATIC_INLINE void Chip_Clock_DisableMainPLL(void)
{
	/* power down main PLL */
	LPC_CGU->PLL1_CTRL |= 1;
1a00157c:	4a49      	ldr	r2, [pc, #292]	; (1a0016a4 <Chip_SetupCoreClock+0x148>)
1a00157e:	6c53      	ldr	r3, [r2, #68]	; 0x44
1a001580:	f043 0301 	orr.w	r3, r3, #1
1a001584:	6453      	str	r3, [r2, #68]	; 0x44
	Chip_Clock_DisableMainPLL(); /* Disable PLL */

	/* Calculate the PLL Parameters */
	ppll.srcin = clkin;
1a001586:	f88d 5008 	strb.w	r5, [sp, #8]
	Chip_Clock_CalcMainPLLValue(core_freq, &ppll);
1a00158a:	a901      	add	r1, sp, #4
1a00158c:	4630      	mov	r0, r6
1a00158e:	f7ff feaf 	bl	1a0012f0 <Chip_Clock_CalcMainPLLValue>

	if (core_freq > 110000000UL) {
1a001592:	4b45      	ldr	r3, [pc, #276]	; (1a0016a8 <Chip_SetupCoreClock+0x14c>)
1a001594:	429e      	cmp	r6, r3
1a001596:	d916      	bls.n	1a0015c6 <Chip_SetupCoreClock+0x6a>
		if (ppll.ctrl & (1 << 6)) {
1a001598:	9b01      	ldr	r3, [sp, #4]
1a00159a:	f013 0f40 	tst.w	r3, #64	; 0x40
1a00159e:	d003      	beq.n	1a0015a8 <Chip_SetupCoreClock+0x4c>
1a0015a0:	e7fe      	b.n	1a0015a0 <Chip_SetupCoreClock+0x44>
		Chip_Clock_EnableCrystal();
1a0015a2:	f7ff fe07 	bl	1a0011b4 <Chip_Clock_EnableCrystal>
1a0015a6:	e7e3      	b.n	1a001570 <Chip_SetupCoreClock+0x14>
			while(1);		// to run in integer mode above 110 MHz, you need to use IDIV clock to boot strap CPU to that freq
		} else if (ppll.ctrl & (1 << 7)){
1a0015a8:	f013 0f80 	tst.w	r3, #128	; 0x80
1a0015ac:	d005      	beq.n	1a0015ba <Chip_SetupCoreClock+0x5e>
			direct = 1;
			ppll.ctrl &= ~(1 << 7);
1a0015ae:	f023 0380 	bic.w	r3, r3, #128	; 0x80
1a0015b2:	9301      	str	r3, [sp, #4]
	uint32_t direct = 0, pdivide = 0;
1a0015b4:	2500      	movs	r5, #0
			direct = 1;
1a0015b6:	2601      	movs	r6, #1
1a0015b8:	e007      	b.n	1a0015ca <Chip_SetupCoreClock+0x6e>
		} else {
			pdivide = 1;
			ppll.psel++;
1a0015ba:	9b04      	ldr	r3, [sp, #16]
1a0015bc:	3301      	adds	r3, #1
1a0015be:	9304      	str	r3, [sp, #16]
			pdivide = 1;
1a0015c0:	2501      	movs	r5, #1
	uint32_t direct = 0, pdivide = 0;
1a0015c2:	2600      	movs	r6, #0
1a0015c4:	e001      	b.n	1a0015ca <Chip_SetupCoreClock+0x6e>
1a0015c6:	2500      	movs	r5, #0
1a0015c8:	462e      	mov	r6, r5
 * Make sure the main PLL is enabled.
 */
__STATIC_INLINE void Chip_Clock_SetupMainPLL(const PLL_PARAM_T *ppll)
{
	/* power up main PLL */
    LPC_CGU->PLL1_CTRL = ppll->ctrl | ((uint32_t) ppll->srcin << 24) | (ppll->msel << 16) | (ppll->nsel << 12) | (ppll->psel << 8) | ( 1 << 11);	
1a0015ca:	f89d 2008 	ldrb.w	r2, [sp, #8]
1a0015ce:	9b01      	ldr	r3, [sp, #4]
1a0015d0:	ea43 6302 	orr.w	r3, r3, r2, lsl #24
1a0015d4:	9a05      	ldr	r2, [sp, #20]
1a0015d6:	ea43 4302 	orr.w	r3, r3, r2, lsl #16
1a0015da:	9a03      	ldr	r2, [sp, #12]
1a0015dc:	ea43 3302 	orr.w	r3, r3, r2, lsl #12
1a0015e0:	9a04      	ldr	r2, [sp, #16]
1a0015e2:	ea43 2302 	orr.w	r3, r3, r2, lsl #8
1a0015e6:	f443 6300 	orr.w	r3, r3, #2048	; 0x800
1a0015ea:	4a2e      	ldr	r2, [pc, #184]	; (1a0016a4 <Chip_SetupCoreClock+0x148>)
1a0015ec:	6453      	str	r3, [r2, #68]	; 0x44
 * @note	The main PLL should be locked prior to using it as a clock input for a base clock.
 */
__STATIC_INLINE int Chip_Clock_MainPLLLocked(void)
{
	/* Return true if locked */
	return (LPC_CGU->PLL1_STAT & 1) != 0;
1a0015ee:	4b2d      	ldr	r3, [pc, #180]	; (1a0016a4 <Chip_SetupCoreClock+0x148>)
1a0015f0:	6c1b      	ldr	r3, [r3, #64]	; 0x40

	/* Setup and start the PLL */
	Chip_Clock_SetupMainPLL(&ppll);

	/* Wait for the PLL to lock */
	while(!Chip_Clock_MainPLLLocked()) {}
1a0015f2:	f013 0f01 	tst.w	r3, #1
1a0015f6:	d0fa      	beq.n	1a0015ee <Chip_SetupCoreClock+0x92>

	/* Set core clock base as PLL1 */
	Chip_Clock_SetBaseClock(CLK_BASE_MX, CLKIN_MAINPLL, true, false);
1a0015f8:	2300      	movs	r3, #0
1a0015fa:	2201      	movs	r2, #1
1a0015fc:	2109      	movs	r1, #9
1a0015fe:	2004      	movs	r0, #4
1a001600:	f7ff fefe 	bl	1a001400 <Chip_Clock_SetBaseClock>

	if (direct) {
1a001604:	b1fe      	cbz	r6, 1a001646 <Chip_SetupCoreClock+0xea>
		delay = 50000; // FIXME: original was 1000, fix for horrible crystals. @Eric
1a001606:	f24c 3350 	movw	r3, #50000	; 0xc350
1a00160a:	9309      	str	r3, [sp, #36]	; 0x24
		while(delay --){} /* Wait for approx 50 uSec -- for power supply to stabilize*/
1a00160c:	9b09      	ldr	r3, [sp, #36]	; 0x24
1a00160e:	1e5a      	subs	r2, r3, #1
1a001610:	9209      	str	r2, [sp, #36]	; 0x24
1a001612:	2b00      	cmp	r3, #0
1a001614:	d1fa      	bne.n	1a00160c <Chip_SetupCoreClock+0xb0>
		ppll.ctrl |= 1 << 7;
1a001616:	9b01      	ldr	r3, [sp, #4]
1a001618:	f043 0380 	orr.w	r3, r3, #128	; 0x80
1a00161c:	9301      	str	r3, [sp, #4]
    LPC_CGU->PLL1_CTRL = ppll->ctrl | ((uint32_t) ppll->srcin << 24) | (ppll->msel << 16) | (ppll->nsel << 12) | (ppll->psel << 8) | ( 1 << 11);	
1a00161e:	f89d 2008 	ldrb.w	r2, [sp, #8]
1a001622:	ea43 6302 	orr.w	r3, r3, r2, lsl #24
1a001626:	9a05      	ldr	r2, [sp, #20]
1a001628:	ea43 4302 	orr.w	r3, r3, r2, lsl #16
1a00162c:	9a03      	ldr	r2, [sp, #12]
1a00162e:	ea43 3302 	orr.w	r3, r3, r2, lsl #12
1a001632:	9a04      	ldr	r2, [sp, #16]
1a001634:	ea43 2302 	orr.w	r3, r3, r2, lsl #8
1a001638:	f443 6300 	orr.w	r3, r3, #2048	; 0x800
1a00163c:	4a19      	ldr	r2, [pc, #100]	; (1a0016a4 <Chip_SetupCoreClock+0x148>)
1a00163e:	6453      	str	r3, [r2, #68]	; 0x44
		while(delay --){} /* Wait for approx 50 uSec -- for power supply to stabilize */
		ppll.psel--;
		Chip_Clock_SetupMainPLL(&ppll); /* Set PDIV to operate at full frequency */
	}

	if (setbase) {
1a001640:	b36c      	cbz	r4, 1a00169e <Chip_SetupCoreClock+0x142>
		/* Setup system base clocks and initial states. This won't enable and
		   disable individual clocks, but sets up the base clock sources for
		   each individual peripheral clock. */
		for (i = 0; i < (sizeof(InitClkStates) / sizeof(InitClkStates[0])); i++) {
1a001642:	2400      	movs	r4, #0
1a001644:	e029      	b.n	1a00169a <Chip_SetupCoreClock+0x13e>
	} else if (pdivide) {
1a001646:	2d00      	cmp	r5, #0
1a001648:	d0fa      	beq.n	1a001640 <Chip_SetupCoreClock+0xe4>
		delay = 50000; // FIXME: original was 1000, fix for horrible crystals. @Eric
1a00164a:	f24c 3350 	movw	r3, #50000	; 0xc350
1a00164e:	9309      	str	r3, [sp, #36]	; 0x24
		while(delay --){} /* Wait for approx 50 uSec -- for power supply to stabilize */
1a001650:	9b09      	ldr	r3, [sp, #36]	; 0x24
1a001652:	1e5a      	subs	r2, r3, #1
1a001654:	9209      	str	r2, [sp, #36]	; 0x24
1a001656:	2b00      	cmp	r3, #0
1a001658:	d1fa      	bne.n	1a001650 <Chip_SetupCoreClock+0xf4>
		ppll.psel--;
1a00165a:	9b04      	ldr	r3, [sp, #16]
1a00165c:	1e5a      	subs	r2, r3, #1
1a00165e:	9204      	str	r2, [sp, #16]
1a001660:	f89d 1008 	ldrb.w	r1, [sp, #8]
1a001664:	9b01      	ldr	r3, [sp, #4]
1a001666:	ea43 6301 	orr.w	r3, r3, r1, lsl #24
1a00166a:	9905      	ldr	r1, [sp, #20]
1a00166c:	ea43 4301 	orr.w	r3, r3, r1, lsl #16
1a001670:	9903      	ldr	r1, [sp, #12]
1a001672:	ea43 3301 	orr.w	r3, r3, r1, lsl #12
1a001676:	ea43 2302 	orr.w	r3, r3, r2, lsl #8
1a00167a:	f443 6300 	orr.w	r3, r3, #2048	; 0x800
1a00167e:	4a09      	ldr	r2, [pc, #36]	; (1a0016a4 <Chip_SetupCoreClock+0x148>)
1a001680:	6453      	str	r3, [r2, #68]	; 0x44
1a001682:	e7dd      	b.n	1a001640 <Chip_SetupCoreClock+0xe4>
			Chip_Clock_SetBaseClock(InitClkStates[i].clk, InitClkStates[i].clkin,
1a001684:	4809      	ldr	r0, [pc, #36]	; (1a0016ac <Chip_SetupCoreClock+0x150>)
1a001686:	eb00 0184 	add.w	r1, r0, r4, lsl #2
1a00168a:	78cb      	ldrb	r3, [r1, #3]
1a00168c:	788a      	ldrb	r2, [r1, #2]
1a00168e:	7849      	ldrb	r1, [r1, #1]
1a001690:	f810 0024 	ldrb.w	r0, [r0, r4, lsl #2]
1a001694:	f7ff feb4 	bl	1a001400 <Chip_Clock_SetBaseClock>
		for (i = 0; i < (sizeof(InitClkStates) / sizeof(InitClkStates[0])); i++) {
1a001698:	3401      	adds	r4, #1
1a00169a:	2c11      	cmp	r4, #17
1a00169c:	d9f2      	bls.n	1a001684 <Chip_SetupCoreClock+0x128>
									InitClkStates[i].autoblock_enab, InitClkStates[i].powerdn);
		}
	}
}
1a00169e:	b00a      	add	sp, #40	; 0x28
1a0016a0:	bd70      	pop	{r4, r5, r6, pc}
1a0016a2:	bf00      	nop
1a0016a4:	40050000 	.word	0x40050000
1a0016a8:	068e7780 	.word	0x068e7780
1a0016ac:	1a00d5c8 	.word	0x1a00d5c8

1a0016b0 <Chip_GPIO_Init>:
 ****************************************************************************/

/* Initialize GPIO block */
void Chip_GPIO_Init(LPC_GPIO_T *pGPIO)
{
}
1a0016b0:	4770      	bx	lr
1a0016b2:	Address 0x000000001a0016b2 is out of bounds.


1a0016b4 <Chip_SSP_GetClockIndex>:
/* Returns clock index for the register interface */
STATIC CHIP_CCU_CLK_T Chip_SSP_GetClockIndex(LPC_SSP_T *pSSP)
{
	CHIP_CCU_CLK_T clkSSP;

	if (pSSP == LPC_SSP1) {
1a0016b4:	4b03      	ldr	r3, [pc, #12]	; (1a0016c4 <Chip_SSP_GetClockIndex+0x10>)
1a0016b6:	4298      	cmp	r0, r3
1a0016b8:	d001      	beq.n	1a0016be <Chip_SSP_GetClockIndex+0xa>
		clkSSP = CLK_MX_SSP1;
	}
	else {
		clkSSP = CLK_MX_SSP0;
1a0016ba:	2083      	movs	r0, #131	; 0x83
	}

	return clkSSP;
}
1a0016bc:	4770      	bx	lr
		clkSSP = CLK_MX_SSP1;
1a0016be:	20a5      	movs	r0, #165	; 0xa5
1a0016c0:	4770      	bx	lr
1a0016c2:	bf00      	nop
1a0016c4:	400c5000 	.word	0x400c5000

1a0016c8 <Chip_SSP_GetPeriphClockIndex>:
/* Returns clock index for the peripheral block */
STATIC CHIP_CCU_CLK_T Chip_SSP_GetPeriphClockIndex(LPC_SSP_T *pSSP)
{
	CHIP_CCU_CLK_T clkSSP;

	if (pSSP == LPC_SSP1) {
1a0016c8:	4b04      	ldr	r3, [pc, #16]	; (1a0016dc <Chip_SSP_GetPeriphClockIndex+0x14>)
1a0016ca:	4298      	cmp	r0, r3
1a0016cc:	d002      	beq.n	1a0016d4 <Chip_SSP_GetPeriphClockIndex+0xc>
		clkSSP = CLK_APB2_SSP1;
	}
	else {
		clkSSP = CLK_APB0_SSP0;
1a0016ce:	f240 2002 	movw	r0, #514	; 0x202
	}

	return clkSSP;
}
1a0016d2:	4770      	bx	lr
		clkSSP = CLK_APB2_SSP1;
1a0016d4:	f44f 70f1 	mov.w	r0, #482	; 0x1e2
1a0016d8:	4770      	bx	lr
1a0016da:	bf00      	nop
1a0016dc:	400c5000 	.word	0x400c5000

1a0016e0 <Chip_SSP_SetClockRate>:

/*Set up output clocks per bit for SSP bus*/
void Chip_SSP_SetClockRate(LPC_SSP_T *pSSP, uint32_t clk_rate, uint32_t prescale)
{
	uint32_t temp;
	temp = pSSP->CR0 & (~(SSP_CR0_SCR(0xFF)));
1a0016e0:	6803      	ldr	r3, [r0, #0]
1a0016e2:	f423 437f 	bic.w	r3, r3, #65280	; 0xff00
	pSSP->CR0 = temp | (SSP_CR0_SCR(clk_rate));
1a0016e6:	0209      	lsls	r1, r1, #8
1a0016e8:	b289      	uxth	r1, r1
1a0016ea:	4319      	orrs	r1, r3
1a0016ec:	6001      	str	r1, [r0, #0]
	pSSP->CPSR = prescale;
1a0016ee:	6102      	str	r2, [r0, #16]
}
1a0016f0:	4770      	bx	lr

1a0016f2 <Chip_SSP_SetBitRate>:
	}
}

/* Set the clock frequency for SSP interface */
void Chip_SSP_SetBitRate(LPC_SSP_T *pSSP, uint32_t bitRate)
{
1a0016f2:	b570      	push	{r4, r5, r6, lr}
1a0016f4:	4606      	mov	r6, r0
1a0016f6:	460d      	mov	r5, r1
	uint32_t ssp_clk, cr0_div, cmp_clk, prescale;

	ssp_clk = Chip_Clock_GetRate(Chip_SSP_GetPeriphClockIndex(pSSP));
1a0016f8:	f7ff ffe6 	bl	1a0016c8 <Chip_SSP_GetPeriphClockIndex>
1a0016fc:	f7ff fefe 	bl	1a0014fc <Chip_Clock_GetRate>

	cr0_div = 0;
	cmp_clk = 0xFFFFFFFF;
	prescale = 2;
1a001700:	2202      	movs	r2, #2
	cmp_clk = 0xFFFFFFFF;
1a001702:	f04f 33ff 	mov.w	r3, #4294967295	; 0xffffffff
	cr0_div = 0;
1a001706:	2100      	movs	r1, #0

	while (cmp_clk > bitRate) {
1a001708:	e000      	b.n	1a00170c <Chip_SSP_SetBitRate+0x1a>
		cmp_clk = ssp_clk / ((cr0_div + 1) * prescale);
		if (cmp_clk > bitRate) {
			cr0_div++;
1a00170a:	4621      	mov	r1, r4
	while (cmp_clk > bitRate) {
1a00170c:	42ab      	cmp	r3, r5
1a00170e:	d90b      	bls.n	1a001728 <Chip_SSP_SetBitRate+0x36>
		cmp_clk = ssp_clk / ((cr0_div + 1) * prescale);
1a001710:	1c4c      	adds	r4, r1, #1
1a001712:	fb02 f304 	mul.w	r3, r2, r4
1a001716:	fbb0 f3f3 	udiv	r3, r0, r3
		if (cmp_clk > bitRate) {
1a00171a:	429d      	cmp	r5, r3
1a00171c:	d2f6      	bcs.n	1a00170c <Chip_SSP_SetBitRate+0x1a>
			if (cr0_div > 0xFF) {
1a00171e:	2cff      	cmp	r4, #255	; 0xff
1a001720:	d9f3      	bls.n	1a00170a <Chip_SSP_SetBitRate+0x18>
				cr0_div = 0;
				prescale += 2;
1a001722:	3202      	adds	r2, #2
				cr0_div = 0;
1a001724:	2100      	movs	r1, #0
1a001726:	e7f1      	b.n	1a00170c <Chip_SSP_SetBitRate+0x1a>
			}
		}
	}

	Chip_SSP_SetClockRate(pSSP, cr0_div, prescale);
1a001728:	4630      	mov	r0, r6
1a00172a:	f7ff ffd9 	bl	1a0016e0 <Chip_SSP_SetClockRate>
}
1a00172e:	bd70      	pop	{r4, r5, r6, pc}

1a001730 <Chip_SSP_Init>:

/* Initialize the SSP */
void Chip_SSP_Init(LPC_SSP_T *pSSP)
{
1a001730:	b510      	push	{r4, lr}
1a001732:	4604      	mov	r4, r0
	Chip_Clock_Enable(Chip_SSP_GetClockIndex(pSSP));
1a001734:	f7ff ffbe 	bl	1a0016b4 <Chip_SSP_GetClockIndex>
1a001738:	f7ff fec6 	bl	1a0014c8 <Chip_Clock_Enable>
	Chip_Clock_Enable(Chip_SSP_GetPeriphClockIndex(pSSP));
1a00173c:	4620      	mov	r0, r4
1a00173e:	f7ff ffc3 	bl	1a0016c8 <Chip_SSP_GetPeriphClockIndex>
1a001742:	f7ff fec1 	bl	1a0014c8 <Chip_Clock_Enable>
	pSSP->CR1 = (pSSP->CR1 & ~(1 << 2)) | mode;
1a001746:	6863      	ldr	r3, [r4, #4]
1a001748:	f023 0304 	bic.w	r3, r3, #4
1a00174c:	6063      	str	r3, [r4, #4]
	pSSP->CR0 = (pSSP->CR0 & ~0xFF) | bits | frameFormat | clockMode;
1a00174e:	6823      	ldr	r3, [r4, #0]
1a001750:	f023 03ff 	bic.w	r3, r3, #255	; 0xff
1a001754:	f043 0307 	orr.w	r3, r3, #7
1a001758:	6023      	str	r3, [r4, #0]

	Chip_SSP_Set_Mode(pSSP, SSP_MODE_MASTER);
	Chip_SSP_SetFormat(pSSP, SSP_BITS_8, SSP_FRAMEFORMAT_SPI, SSP_CLOCK_CPHA0_CPOL0);
	Chip_SSP_SetBitRate(pSSP, 100000);
1a00175a:	4902      	ldr	r1, [pc, #8]	; (1a001764 <Chip_SSP_Init+0x34>)
1a00175c:	4620      	mov	r0, r4
1a00175e:	f7ff ffc8 	bl	1a0016f2 <Chip_SSP_SetBitRate>
}
1a001762:	bd10      	pop	{r4, pc}
1a001764:	000186a0 	.word	0x000186a0

1a001768 <SystemInit>:
 */

#include <board.h>

void SystemInit(void)
{
1a001768:	b508      	push	{r3, lr}
   extern void *g_pfnVectors;
   SCB->VTOR = (unsigned int) &g_pfnVectors;
1a00176a:	4a0b      	ldr	r2, [pc, #44]	; (1a001798 <SystemInit+0x30>)
1a00176c:	4b0b      	ldr	r3, [pc, #44]	; (1a00179c <SystemInit+0x34>)
1a00176e:	609a      	str	r2, [r3, #8]
 */
__STATIC_INLINE uint32_t SCB_GetFPUType(void)
{
  uint32_t mvfr0;

  mvfr0 = FPU->MVFR0;
1a001770:	f503 730c 	add.w	r3, r3, #560	; 0x230
1a001774:	691b      	ldr	r3, [r3, #16]
  if      ((mvfr0 & (FPU_MVFR0_Single_precision_Msk | FPU_MVFR0_Double_precision_Msk)) == 0x020U)
1a001776:	f403 637f 	and.w	r3, r3, #4080	; 0xff0
1a00177a:	2b20      	cmp	r3, #32
1a00177c:	d004      	beq.n	1a001788 <SystemInit+0x20>

   if (SCB_GetFPUType() > 0)
      SCB->CPACR |= ((3UL << 10*2)|(3UL << 11*2));  /* set CP10 and CP11 Full Access */

   /* Board specific SystemInit */
   Board_SystemInit();
1a00177e:	f7ff fa9f 	bl	1a000cc0 <Board_SystemInit>
   Board_Init();
1a001782:	f7ff fa25 	bl	1a000bd0 <Board_Init>
}
1a001786:	bd08      	pop	{r3, pc}
      SCB->CPACR |= ((3UL << 10*2)|(3UL << 11*2));  /* set CP10 and CP11 Full Access */
1a001788:	4a04      	ldr	r2, [pc, #16]	; (1a00179c <SystemInit+0x34>)
1a00178a:	f8d2 3088 	ldr.w	r3, [r2, #136]	; 0x88
1a00178e:	f443 0370 	orr.w	r3, r3, #15728640	; 0xf00000
1a001792:	f8c2 3088 	str.w	r3, [r2, #136]	; 0x88
1a001796:	e7f2      	b.n	1a00177e <SystemInit+0x16>
1a001798:	1a000000 	.word	0x1a000000
1a00179c:	e000ed00 	.word	0xe000ed00

1a0017a0 <cyclesCounterInit>:
 * @return TRUE si esta OK, FALSE en caso de error.
 */
bool_t cyclesCounterInit( uint32_t clockSpeed )
{
   //Asigna  a la variable local ClockSpeed el valor recibido como argumento.
   ClockSpeed = clockSpeed;
1a0017a0:	4b04      	ldr	r3, [pc, #16]	; (1a0017b4 <cyclesCounterInit+0x14>)
1a0017a2:	6018      	str	r0, [r3, #0]
   //Iniciar el contador de ciclos de clock.
   DWT_CTRL  |= 1; // *DWT_CTRL  |= 1;
1a0017a4:	4a04      	ldr	r2, [pc, #16]	; (1a0017b8 <cyclesCounterInit+0x18>)
1a0017a6:	6813      	ldr	r3, [r2, #0]
1a0017a8:	f043 0301 	orr.w	r3, r3, #1
1a0017ac:	6013      	str	r3, [r2, #0]
   return TRUE;
}
1a0017ae:	2001      	movs	r0, #1
1a0017b0:	4770      	bx	lr
1a0017b2:	bf00      	nop
1a0017b4:	10000038 	.word	0x10000038
1a0017b8:	e0001000 	.word	0xe0001000

1a0017bc <uartRxReady>:
//-------------------------------------------------------------

// Return TRUE if have unread data in RX FIFO
bool_t uartRxReady( uartMap_t uart )
{
    return Chip_UART_ReadLineStatus( lpcUarts[uart].uartAddr ) & UART_LSR_RDR;
1a0017bc:	eb00 0040 	add.w	r0, r0, r0, lsl #1
1a0017c0:	0083      	lsls	r3, r0, #2
1a0017c2:	4a03      	ldr	r2, [pc, #12]	; (1a0017d0 <uartRxReady+0x14>)
1a0017c4:	58d3      	ldr	r3, [r2, r3]
	return pUART->LSR;
1a0017c6:	6958      	ldr	r0, [r3, #20]
}
1a0017c8:	f000 0001 	and.w	r0, r0, #1
1a0017cc:	4770      	bx	lr
1a0017ce:	bf00      	nop
1a0017d0:	1a00d610 	.word	0x1a00d610

1a0017d4 <uartTxReady>:
// Return TRUE if have space in TX FIFO
bool_t uartTxReady( uartMap_t uart )
{
    return Chip_UART_ReadLineStatus( lpcUarts[uart].uartAddr ) & UART_LSR_THRE;
1a0017d4:	eb00 0040 	add.w	r0, r0, r0, lsl #1
1a0017d8:	0083      	lsls	r3, r0, #2
1a0017da:	4a03      	ldr	r2, [pc, #12]	; (1a0017e8 <uartTxReady+0x14>)
1a0017dc:	58d3      	ldr	r3, [r2, r3]
1a0017de:	6958      	ldr	r0, [r3, #20]
}
1a0017e0:	f000 0020 	and.w	r0, r0, #32
1a0017e4:	4770      	bx	lr
1a0017e6:	bf00      	nop
1a0017e8:	1a00d610 	.word	0x1a00d610

1a0017ec <uartRxRead>:
// Read from RX FIFO
uint8_t uartRxRead( uartMap_t uart )
{
    return Chip_UART_ReadByte( lpcUarts[uart].uartAddr );
1a0017ec:	eb00 0040 	add.w	r0, r0, r0, lsl #1
1a0017f0:	0083      	lsls	r3, r0, #2
1a0017f2:	4a02      	ldr	r2, [pc, #8]	; (1a0017fc <uartRxRead+0x10>)
1a0017f4:	58d3      	ldr	r3, [r2, r3]
	return (uint8_t) (pUART->RBR & UART_RBR_MASKBIT);         //uint8_t
1a0017f6:	6818      	ldr	r0, [r3, #0]
}
1a0017f8:	b2c0      	uxtb	r0, r0
1a0017fa:	4770      	bx	lr
1a0017fc:	1a00d610 	.word	0x1a00d610

1a001800 <uartTxWrite>:
// Write in TX FIFO
void uartTxWrite( uartMap_t uart, const uint8_t value )
{
    Chip_UART_SendByte( lpcUarts[uart].uartAddr, value );
1a001800:	eb00 0040 	add.w	r0, r0, r0, lsl #1
1a001804:	0083      	lsls	r3, r0, #2
1a001806:	4a02      	ldr	r2, [pc, #8]	; (1a001810 <uartTxWrite+0x10>)
1a001808:	58d3      	ldr	r3, [r2, r3]
	pUART->THR = (uint32_t) data;
1a00180a:	6019      	str	r1, [r3, #0]
}
1a00180c:	4770      	bx	lr
1a00180e:	bf00      	nop
1a001810:	1a00d610 	.word	0x1a00d610

1a001814 <uartInit>:

//-------------------------------------------------------------

// UART Initialization
void uartInit( uartMap_t uart, uint32_t baudRate )
{
1a001814:	e92d 43f8 	stmdb	sp!, {r3, r4, r5, r6, r7, r8, r9, lr}
1a001818:	4680      	mov	r8, r0
1a00181a:	4689      	mov	r9, r1
    // Initialize UART
    Chip_UART_Init( lpcUarts[uart].uartAddr );
1a00181c:	4c19      	ldr	r4, [pc, #100]	; (1a001884 <uartInit+0x70>)
1a00181e:	0045      	lsls	r5, r0, #1
1a001820:	182a      	adds	r2, r5, r0
1a001822:	0093      	lsls	r3, r2, #2
1a001824:	18e6      	adds	r6, r4, r3
1a001826:	58e7      	ldr	r7, [r4, r3]
1a001828:	4638      	mov	r0, r7
1a00182a:	f7ff faa3 	bl	1a000d74 <Chip_UART_Init>
    // Set Baud rate
    Chip_UART_SetBaud( lpcUarts[uart].uartAddr, baudRate );
1a00182e:	4649      	mov	r1, r9
1a001830:	4638      	mov	r0, r7
1a001832:	f7ff fac9 	bl	1a000dc8 <Chip_UART_SetBaud>
	pUART->FCR = fcr;
1a001836:	2307      	movs	r3, #7
1a001838:	60bb      	str	r3, [r7, #8]
	return (uint8_t) (pUART->RBR & UART_RBR_MASKBIT);         //uint8_t
1a00183a:	683b      	ldr	r3, [r7, #0]
    pUART->TER2 = UART_TER2_TXEN;
1a00183c:	2301      	movs	r3, #1
1a00183e:	65fb      	str	r3, [r7, #92]	; 0x5c

    // Enable UART Transmission
    Chip_UART_TXEnable( lpcUarts[uart].uartAddr );

    // Configure SCU UARTn_TXD pin
    Chip_SCU_PinMux( lpcUarts[uart].txPin.lpcScuPort,
1a001840:	7930      	ldrb	r0, [r6, #4]
1a001842:	7973      	ldrb	r3, [r6, #5]
1a001844:	79b2      	ldrb	r2, [r6, #6]
	LPC_SCU->SFSP[port][pin] = modefunc;
1a001846:	f042 0218 	orr.w	r2, r2, #24
1a00184a:	490f      	ldr	r1, [pc, #60]	; (1a001888 <uartInit+0x74>)
1a00184c:	eb03 1340 	add.w	r3, r3, r0, lsl #5
1a001850:	f841 2023 	str.w	r2, [r1, r3, lsl #2]
                     lpcUarts[uart].txPin.lpcScuPin,
                     MD_PDN,
                     lpcUarts[uart].txPin.lpcScuFunc );

    // Configure SCU UARTn_RXD pin
    Chip_SCU_PinMux( lpcUarts[uart].rxPin.lpcScuPort,
1a001854:	79f0      	ldrb	r0, [r6, #7]
1a001856:	7a33      	ldrb	r3, [r6, #8]
1a001858:	7a72      	ldrb	r2, [r6, #9]
1a00185a:	f042 02d0 	orr.w	r2, r2, #208	; 0xd0
1a00185e:	eb03 1340 	add.w	r3, r3, r0, lsl #5
1a001862:	f841 2023 	str.w	r2, [r1, r3, lsl #2]
                     lpcUarts[uart].rxPin.lpcScuPin,
                     MD_PLN | MD_EZI | MD_ZI,
                     lpcUarts[uart].rxPin.lpcScuFunc );

    // Specific configurations for RS485
    if( uart == UART_485 )
1a001866:	f1b8 0f01 	cmp.w	r8, #1
1a00186a:	d001      	beq.n	1a001870 <uartInit+0x5c>
        Chip_SCU_PinMux( lpcUart485DirPin.lpcScuPort,
                         lpcUart485DirPin.lpcScuPin,
                         MD_PDN,
                         lpcUart485DirPin.lpcScuFunc );
    }
}
1a00186c:	e8bd 83f8 	ldmia.w	sp!, {r3, r4, r5, r6, r7, r8, r9, pc}
 * @note	Use an Or'ed value of UART_RS485CTRL_* definitions with this
 *			call to set specific options.
 */
STATIC INLINE void Chip_UART_SetRS485Flags(LPC_USART_T *pUART, uint32_t ctrl)
{
	pUART->RS485CTRL |= ctrl;
1a001870:	4a06      	ldr	r2, [pc, #24]	; (1a00188c <uartInit+0x78>)
1a001872:	6cd3      	ldr	r3, [r2, #76]	; 0x4c
1a001874:	f043 0330 	orr.w	r3, r3, #48	; 0x30
1a001878:	64d3      	str	r3, [r2, #76]	; 0x4c
1a00187a:	221a      	movs	r2, #26
1a00187c:	f8c1 2308 	str.w	r2, [r1, #776]	; 0x308
1a001880:	e7f4      	b.n	1a00186c <uartInit+0x58>
1a001882:	bf00      	nop
1a001884:	1a00d610 	.word	0x1a00d610
1a001888:	40086000 	.word	0x40086000
1a00188c:	40081000 	.word	0x40081000

1a001890 <uartReadByte>:
    }
}

// Read 1 byte from RX FIFO, check first if exist aviable data
bool_t uartReadByte( uartMap_t uart, uint8_t* receivedByte )
{
1a001890:	b538      	push	{r3, r4, r5, lr}
1a001892:	4605      	mov	r5, r0
1a001894:	460c      	mov	r4, r1
    bool_t retVal = TRUE;
    if ( uartRxReady( uart ) )
1a001896:	f7ff ff91 	bl	1a0017bc <uartRxReady>
1a00189a:	4603      	mov	r3, r0
1a00189c:	b908      	cbnz	r0, 1a0018a2 <uartReadByte+0x12>
    else
    {
        retVal = FALSE;
    }
    return retVal;
}
1a00189e:	4618      	mov	r0, r3
1a0018a0:	bd38      	pop	{r3, r4, r5, pc}
        *receivedByte = uartRxRead( uart );
1a0018a2:	4628      	mov	r0, r5
1a0018a4:	f7ff ffa2 	bl	1a0017ec <uartRxRead>
1a0018a8:	7020      	strb	r0, [r4, #0]
    bool_t retVal = TRUE;
1a0018aa:	2301      	movs	r3, #1
1a0018ac:	e7f7      	b.n	1a00189e <uartReadByte+0xe>
1a0018ae:	Address 0x000000001a0018ae is out of bounds.


1a0018b0 <receiveBytesUntilReceiveStringOrTimeout>:
{
1a0018b0:	b570      	push	{r4, r5, r6, lr}
1a0018b2:	b082      	sub	sp, #8
1a0018b4:	460c      	mov	r4, r1
1a0018b6:	4616      	mov	r6, r2
1a0018b8:	461d      	mov	r5, r3
    switch( instance->state )
1a0018ba:	780b      	ldrb	r3, [r1, #0]
1a0018bc:	2b04      	cmp	r3, #4
1a0018be:	d855      	bhi.n	1a00196c <receiveBytesUntilReceiveStringOrTimeout+0xbc>
1a0018c0:	e8df f003 	tbb	[pc, r3]
1a0018c4:	514b1203 	.word	0x514b1203
1a0018c8:	4e          	.byte	0x4e
1a0018c9:	00          	.byte	0x00
            delayInit( &( instance->delay ), instance->timeout );
1a0018ca:	e9d1 2304 	ldrd	r2, r3, [r1, #16]
1a0018ce:	f101 0018 	add.w	r0, r1, #24
1a0018d2:	f000 fa9d 	bl	1a001e10 <delayInit>
            instance->stringIndex = 0;
1a0018d6:	2300      	movs	r3, #0
1a0018d8:	8163      	strh	r3, [r4, #10]
            i = 0;
1a0018da:	4a26      	ldr	r2, [pc, #152]	; (1a001974 <receiveBytesUntilReceiveStringOrTimeout+0xc4>)
1a0018dc:	6013      	str	r3, [r2, #0]
            instance->state = UART_RECEIVE_STRING_RECEIVING;
1a0018de:	2301      	movs	r3, #1
1a0018e0:	7023      	strb	r3, [r4, #0]
    return instance->state;
1a0018e2:	7820      	ldrb	r0, [r4, #0]
}
1a0018e4:	b002      	add	sp, #8
1a0018e6:	bd70      	pop	{r4, r5, r6, pc}
            if( uartReadByte( uart, &receiveByte ) )
1a0018e8:	f10d 0107 	add.w	r1, sp, #7
1a0018ec:	f7ff ffd0 	bl	1a001890 <uartReadByte>
1a0018f0:	b178      	cbz	r0, 1a001912 <receiveBytesUntilReceiveStringOrTimeout+0x62>
                if( i < *receiveBufferSize )
1a0018f2:	682a      	ldr	r2, [r5, #0]
1a0018f4:	4b1f      	ldr	r3, [pc, #124]	; (1a001974 <receiveBytesUntilReceiveStringOrTimeout+0xc4>)
1a0018f6:	681b      	ldr	r3, [r3, #0]
1a0018f8:	429a      	cmp	r2, r3
1a0018fa:	d918      	bls.n	1a00192e <receiveBytesUntilReceiveStringOrTimeout+0x7e>
                    receiveBuffer[i] = receiveByte;
1a0018fc:	f89d 1007 	ldrb.w	r1, [sp, #7]
1a001900:	54f1      	strb	r1, [r6, r3]
                    i++;
1a001902:	3301      	adds	r3, #1
1a001904:	4a1b      	ldr	r2, [pc, #108]	; (1a001974 <receiveBytesUntilReceiveStringOrTimeout+0xc4>)
1a001906:	6013      	str	r3, [r2, #0]
                if( ( instance->string )[( instance->stringIndex )] == receiveByte )
1a001908:	6860      	ldr	r0, [r4, #4]
1a00190a:	8962      	ldrh	r2, [r4, #10]
1a00190c:	5c80      	ldrb	r0, [r0, r2]
1a00190e:	4288      	cmp	r0, r1
1a001910:	d015      	beq.n	1a00193e <receiveBytesUntilReceiveStringOrTimeout+0x8e>
            if( delayRead( &( instance->delay ) ) )
1a001912:	f104 0018 	add.w	r0, r4, #24
1a001916:	f000 fa8b 	bl	1a001e30 <delayRead>
1a00191a:	2800      	cmp	r0, #0
1a00191c:	d0e1      	beq.n	1a0018e2 <receiveBytesUntilReceiveStringOrTimeout+0x32>
                instance->state = UART_RECEIVE_STRING_TIMEOUT;
1a00191e:	2304      	movs	r3, #4
1a001920:	7023      	strb	r3, [r4, #0]
                *receiveBufferSize = i;
1a001922:	4b14      	ldr	r3, [pc, #80]	; (1a001974 <receiveBytesUntilReceiveStringOrTimeout+0xc4>)
1a001924:	681a      	ldr	r2, [r3, #0]
1a001926:	602a      	str	r2, [r5, #0]
                i = 0;
1a001928:	2200      	movs	r2, #0
1a00192a:	601a      	str	r2, [r3, #0]
1a00192c:	e7d9      	b.n	1a0018e2 <receiveBytesUntilReceiveStringOrTimeout+0x32>
                    instance->state = UART_RECEIVE_STRING_FULL_BUFFER;
1a00192e:	2203      	movs	r2, #3
1a001930:	7022      	strb	r2, [r4, #0]
                    *receiveBufferSize = i;
1a001932:	602b      	str	r3, [r5, #0]
                    i = 0;
1a001934:	4b0f      	ldr	r3, [pc, #60]	; (1a001974 <receiveBytesUntilReceiveStringOrTimeout+0xc4>)
1a001936:	2200      	movs	r2, #0
1a001938:	601a      	str	r2, [r3, #0]
                    return instance->state;
1a00193a:	7820      	ldrb	r0, [r4, #0]
1a00193c:	e7d2      	b.n	1a0018e4 <receiveBytesUntilReceiveStringOrTimeout+0x34>
                    ( instance->stringIndex )++;
1a00193e:	3201      	adds	r2, #1
1a001940:	b292      	uxth	r2, r2
1a001942:	8162      	strh	r2, [r4, #10]
                    if( ( instance->stringIndex ) == ( instance->stringSize - 1 ) )
1a001944:	8921      	ldrh	r1, [r4, #8]
1a001946:	3901      	subs	r1, #1
1a001948:	428a      	cmp	r2, r1
1a00194a:	d1e2      	bne.n	1a001912 <receiveBytesUntilReceiveStringOrTimeout+0x62>
                        instance->state = UART_RECEIVE_STRING_RECEIVED_OK;
1a00194c:	2202      	movs	r2, #2
1a00194e:	7022      	strb	r2, [r4, #0]
                        *receiveBufferSize = i;
1a001950:	602b      	str	r3, [r5, #0]
                        i = 0;
1a001952:	4b08      	ldr	r3, [pc, #32]	; (1a001974 <receiveBytesUntilReceiveStringOrTimeout+0xc4>)
1a001954:	2200      	movs	r2, #0
1a001956:	601a      	str	r2, [r3, #0]
1a001958:	e7db      	b.n	1a001912 <receiveBytesUntilReceiveStringOrTimeout+0x62>
            instance->state = UART_RECEIVE_STRING_CONFIG;
1a00195a:	2300      	movs	r3, #0
1a00195c:	700b      	strb	r3, [r1, #0]
            break;
1a00195e:	e7c0      	b.n	1a0018e2 <receiveBytesUntilReceiveStringOrTimeout+0x32>
            instance->state = UART_RECEIVE_STRING_CONFIG;
1a001960:	2300      	movs	r3, #0
1a001962:	700b      	strb	r3, [r1, #0]
            break;
1a001964:	e7bd      	b.n	1a0018e2 <receiveBytesUntilReceiveStringOrTimeout+0x32>
            instance->state = UART_RECEIVE_STRING_CONFIG;
1a001966:	2300      	movs	r3, #0
1a001968:	700b      	strb	r3, [r1, #0]
            break;
1a00196a:	e7ba      	b.n	1a0018e2 <receiveBytesUntilReceiveStringOrTimeout+0x32>
            instance->state = UART_RECEIVE_STRING_CONFIG;
1a00196c:	2300      	movs	r3, #0
1a00196e:	700b      	strb	r3, [r1, #0]
            break;
1a001970:	e7b7      	b.n	1a0018e2 <receiveBytesUntilReceiveStringOrTimeout+0x32>
1a001972:	bf00      	nop
1a001974:	10000a04 	.word	0x10000a04

1a001978 <receiveBytesUntilReceiveStringOrTimeoutBlocking>:
{
1a001978:	b530      	push	{r4, r5, lr}
1a00197a:	b08d      	sub	sp, #52	; 0x34
1a00197c:	4605      	mov	r5, r0
1a00197e:	461c      	mov	r4, r3
    waitText.state = UART_RECEIVE_STRING_CONFIG;
1a001980:	2000      	movs	r0, #0
1a001982:	f88d 0000 	strb.w	r0, [sp]
    waitText.string =  string;
1a001986:	9101      	str	r1, [sp, #4]
    waitText.stringSize = stringSize;
1a001988:	f8ad 2008 	strh.w	r2, [sp, #8]
    waitText.timeout = timeout;
1a00198c:	e9dd 2312 	ldrd	r2, r3, [sp, #72]	; 0x48
1a001990:	e9cd 2304 	strd	r2, r3, [sp, #16]
    while( waitTextState != UART_RECEIVE_STRING_RECEIVED_OK &&
1a001994:	e005      	b.n	1a0019a2 <receiveBytesUntilReceiveStringOrTimeoutBlocking+0x2a>
        waitTextState = receiveBytesUntilReceiveStringOrTimeout(
1a001996:	9b10      	ldr	r3, [sp, #64]	; 0x40
1a001998:	4622      	mov	r2, r4
1a00199a:	4669      	mov	r1, sp
1a00199c:	4628      	mov	r0, r5
1a00199e:	f7ff ff87 	bl	1a0018b0 <receiveBytesUntilReceiveStringOrTimeout>
    while( waitTextState != UART_RECEIVE_STRING_RECEIVED_OK &&
1a0019a2:	2802      	cmp	r0, #2
1a0019a4:	d001      	beq.n	1a0019aa <receiveBytesUntilReceiveStringOrTimeoutBlocking+0x32>
1a0019a6:	2804      	cmp	r0, #4
1a0019a8:	d1f5      	bne.n	1a001996 <receiveBytesUntilReceiveStringOrTimeoutBlocking+0x1e>
    if( waitTextState == UART_RECEIVE_STRING_TIMEOUT )
1a0019aa:	2804      	cmp	r0, #4
1a0019ac:	d002      	beq.n	1a0019b4 <receiveBytesUntilReceiveStringOrTimeoutBlocking+0x3c>
    bool_t retVal = TRUE; // True if OK
1a0019ae:	2001      	movs	r0, #1
}
1a0019b0:	b00d      	add	sp, #52	; 0x34
1a0019b2:	bd30      	pop	{r4, r5, pc}
        retVal = FALSE;
1a0019b4:	2000      	movs	r0, #0
1a0019b6:	e7fb      	b.n	1a0019b0 <receiveBytesUntilReceiveStringOrTimeoutBlocking+0x38>

1a0019b8 <uartWriteByte>:

// Blocking Write 1 byte to TX FIFO
void uartWriteByte( uartMap_t uart, const uint8_t value )
{
1a0019b8:	b538      	push	{r3, r4, r5, lr}
1a0019ba:	4604      	mov	r4, r0
1a0019bc:	460d      	mov	r5, r1
    // Wait for space in FIFO (blocking)
    while( uartTxReady( uart ) == FALSE );
1a0019be:	4620      	mov	r0, r4
1a0019c0:	f7ff ff08 	bl	1a0017d4 <uartTxReady>
1a0019c4:	2800      	cmp	r0, #0
1a0019c6:	d0fa      	beq.n	1a0019be <uartWriteByte+0x6>
    // Send byte
    uartTxWrite( uart, value );
1a0019c8:	4629      	mov	r1, r5
1a0019ca:	4620      	mov	r0, r4
1a0019cc:	f7ff ff18 	bl	1a001800 <uartTxWrite>
}
1a0019d0:	bd38      	pop	{r3, r4, r5, pc}

1a0019d2 <uartWriteString>:

// Blocking Send a string
void uartWriteString( uartMap_t uart, const char* str )
{
1a0019d2:	b538      	push	{r3, r4, r5, lr}
1a0019d4:	4605      	mov	r5, r0
1a0019d6:	460c      	mov	r4, r1
    while( *str != 0 )
1a0019d8:	e003      	b.n	1a0019e2 <uartWriteString+0x10>
    {
        uartWriteByte( uart, ( uint8_t )*str );
1a0019da:	4628      	mov	r0, r5
1a0019dc:	f7ff ffec 	bl	1a0019b8 <uartWriteByte>
        str++;
1a0019e0:	3401      	adds	r4, #1
    while( *str != 0 )
1a0019e2:	7821      	ldrb	r1, [r4, #0]
1a0019e4:	2900      	cmp	r1, #0
1a0019e6:	d1f8      	bne.n	1a0019da <uartWriteString+0x8>
    }
}
1a0019e8:	bd38      	pop	{r3, r4, r5, pc}
1a0019ea:	Address 0x000000001a0019ea is out of bounds.


1a0019ec <tickRead>:
   #ifdef USE_FREERTOS
      return xTaskGetTickCount();
   #else
      return tickCounter;
   #endif
}
1a0019ec:	4b01      	ldr	r3, [pc, #4]	; (1a0019f4 <tickRead+0x8>)
1a0019ee:	e9d3 0100 	ldrd	r0, r1, [r3]
1a0019f2:	4770      	bx	lr
1a0019f4:	10000a10 	.word	0x10000a10

1a0019f8 <tickPowerSet>:
void tickPowerSet( bool_t power )
{
   #ifdef USE_FREERTOS
      uartWriteString( UART_USB, "Use of tickPowerSet() in a program with freeRTOS has no effect\r\n" );
   #else
      if( power ) {
1a0019f8:	b918      	cbnz	r0, 1a001a02 <tickPowerSet+0xa>
         SysTick->CTRL = SysTick_CTRL_CLKSOURCE_Msk |
                         SysTick_CTRL_TICKINT_Msk   |
                         SysTick_CTRL_ENABLE_Msk;
      } else {
         // Disable SysTick IRQ and SysTick Timer
         SysTick->CTRL = 0x0000000;
1a0019fa:	4b04      	ldr	r3, [pc, #16]	; (1a001a0c <tickPowerSet+0x14>)
1a0019fc:	2200      	movs	r2, #0
1a0019fe:	601a      	str	r2, [r3, #0]
      }
   #endif
}
1a001a00:	4770      	bx	lr
         SysTick->CTRL = SysTick_CTRL_CLKSOURCE_Msk |
1a001a02:	4b02      	ldr	r3, [pc, #8]	; (1a001a0c <tickPowerSet+0x14>)
1a001a04:	2207      	movs	r2, #7
1a001a06:	601a      	str	r2, [r3, #0]
1a001a08:	4770      	bx	lr
1a001a0a:	bf00      	nop
1a001a0c:	e000e010 	.word	0xe000e010

1a001a10 <tickInit>:
{
1a001a10:	b538      	push	{r3, r4, r5, lr}
      if( tickRateMSvalue == 0 ) {
1a001a12:	ea50 0301 	orrs.w	r3, r0, r1
1a001a16:	d02a      	beq.n	1a001a6e <tickInit+0x5e>
         if( (tickRateMSvalue >= 1) && (tickRateMSvalue <= 50) ) {
1a001a18:	f110 32ff 	adds.w	r2, r0, #4294967295	; 0xffffffff
1a001a1c:	f141 33ff 	adc.w	r3, r1, #4294967295	; 0xffffffff
1a001a20:	2b00      	cmp	r3, #0
1a001a22:	bf08      	it	eq
1a001a24:	2a32      	cmpeq	r2, #50	; 0x32
1a001a26:	d227      	bcs.n	1a001a78 <tickInit+0x68>
            tickRateMS = tickRateMSvalue;
1a001a28:	4b14      	ldr	r3, [pc, #80]	; (1a001a7c <tickInit+0x6c>)
1a001a2a:	e9c3 0100 	strd	r0, r1, [r3]
            SysTick_Config( SystemCoreClock * tickRateMSvalue / 1000 );
1a001a2e:	4b14      	ldr	r3, [pc, #80]	; (1a001a80 <tickInit+0x70>)
1a001a30:	681b      	ldr	r3, [r3, #0]
1a001a32:	fba3 4500 	umull	r4, r5, r3, r0
1a001a36:	fb03 5501 	mla	r5, r3, r1, r5
1a001a3a:	f44f 727a 	mov.w	r2, #1000	; 0x3e8
1a001a3e:	2300      	movs	r3, #0
1a001a40:	4620      	mov	r0, r4
1a001a42:	4629      	mov	r1, r5
1a001a44:	f000 febc 	bl	1a0027c0 <__aeabi_uldivmod>
           function <b>SysTick_Config</b> is not included. In this case, the file <b><i>device</i>.h</b>
           must contain a vendor-specific implementation of this function.
 */
__STATIC_INLINE uint32_t SysTick_Config(uint32_t ticks)
{
  if ((ticks - 1UL) > SysTick_LOAD_RELOAD_Msk)
1a001a48:	3801      	subs	r0, #1
1a001a4a:	f1b0 7f80 	cmp.w	r0, #16777216	; 0x1000000
1a001a4e:	d209      	bcs.n	1a001a64 <tickInit+0x54>
  {
    return (1UL);                                                   /* Reload value impossible */
  }

  SysTick->LOAD  = (uint32_t)(ticks - 1UL);                         /* set reload register */
1a001a50:	4b0c      	ldr	r3, [pc, #48]	; (1a001a84 <tickInit+0x74>)
1a001a52:	6058      	str	r0, [r3, #4]
    SCB->SHP[(((uint32_t)IRQn) & 0xFUL)-4UL] = (uint8_t)((priority << (8U - __NVIC_PRIO_BITS)) & (uint32_t)0xFFUL);
1a001a54:	4a0c      	ldr	r2, [pc, #48]	; (1a001a88 <tickInit+0x78>)
1a001a56:	21e0      	movs	r1, #224	; 0xe0
1a001a58:	f882 1023 	strb.w	r1, [r2, #35]	; 0x23
  NVIC_SetPriority (SysTick_IRQn, (1UL << __NVIC_PRIO_BITS) - 1UL); /* set Priority for Systick Interrupt */
  SysTick->VAL   = 0UL;                                             /* Load the SysTick Counter Value */
1a001a5c:	2200      	movs	r2, #0
1a001a5e:	609a      	str	r2, [r3, #8]
  SysTick->CTRL  = SysTick_CTRL_CLKSOURCE_Msk |
1a001a60:	2207      	movs	r2, #7
1a001a62:	601a      	str	r2, [r3, #0]
            tickPowerSet( ON );
1a001a64:	2001      	movs	r0, #1
1a001a66:	f7ff ffc7 	bl	1a0019f8 <tickPowerSet>
      bool_t ret_val = 1;
1a001a6a:	2001      	movs	r0, #1
}
1a001a6c:	bd38      	pop	{r3, r4, r5, pc}
         tickPowerSet( OFF );
1a001a6e:	2000      	movs	r0, #0
1a001a70:	f7ff ffc2 	bl	1a0019f8 <tickPowerSet>
         ret_val = 0;
1a001a74:	2000      	movs	r0, #0
1a001a76:	e7f9      	b.n	1a001a6c <tickInit+0x5c>
            ret_val = 0;
1a001a78:	2000      	movs	r0, #0
1a001a7a:	e7f7      	b.n	1a001a6c <tickInit+0x5c>
1a001a7c:	10000040 	.word	0x10000040
1a001a80:	10000a54 	.word	0x10000a54
1a001a84:	e000e010 	.word	0xe000e010
1a001a88:	e000ed00 	.word	0xe000ed00

1a001a8c <SysTick_Handler>:

//__attribute__ ((section(".after_vectors")))

// SysTick Timer ISR Handler
void tickerCallback( void )   // Before SysTick_Handler
{
1a001a8c:	e92d 4800 	stmdb	sp!, {fp, lr}
   // Increment Tick counters
   tickCounter++;
1a001a90:	4908      	ldr	r1, [pc, #32]	; (1a001ab4 <SysTick_Handler+0x28>)
1a001a92:	e9d1 2300 	ldrd	r2, r3, [r1]
1a001a96:	f112 0b01 	adds.w	fp, r2, #1
1a001a9a:	f143 0c00 	adc.w	ip, r3, #0
1a001a9e:	e9c1 bc00 	strd	fp, ip, [r1]
   // Execute Tick Hook function if pointer is not NULL
   if( (tickHookFunction != NULL) ) {
1a001aa2:	4b05      	ldr	r3, [pc, #20]	; (1a001ab8 <SysTick_Handler+0x2c>)
1a001aa4:	681b      	ldr	r3, [r3, #0]
1a001aa6:	b113      	cbz	r3, 1a001aae <SysTick_Handler+0x22>
      (* tickHookFunction )( callBackFuncParams );
1a001aa8:	4a04      	ldr	r2, [pc, #16]	; (1a001abc <SysTick_Handler+0x30>)
1a001aaa:	6810      	ldr	r0, [r2, #0]
1a001aac:	4798      	blx	r3
   }
}
1a001aae:	e8bd 8800 	ldmia.w	sp!, {fp, pc}
1a001ab2:	bf00      	nop
1a001ab4:	10000a10 	.word	0x10000a10
1a001ab8:	10000a18 	.word	0x10000a18
1a001abc:	10000a08 	.word	0x10000a08

1a001ac0 <gpioObtainPinInit>:

static void gpioObtainPinInit( gpioMap_t pin,
                               int8_t *pinNamePort, int8_t *pinNamePin,
                               int8_t *func, int8_t *gpioPort,
                               int8_t *gpioPin )
{
1a001ac0:	b430      	push	{r4, r5}

   *pinNamePort = gpioPinsInit[pin].pinName.port;
1a001ac2:	4d0b      	ldr	r5, [pc, #44]	; (1a001af0 <gpioObtainPinInit+0x30>)
1a001ac4:	eb00 0080 	add.w	r0, r0, r0, lsl #2
1a001ac8:	182c      	adds	r4, r5, r0
1a001aca:	5628      	ldrsb	r0, [r5, r0]
1a001acc:	7008      	strb	r0, [r1, #0]
   *pinNamePin  = gpioPinsInit[pin].pinName.pin;
1a001ace:	f994 1001 	ldrsb.w	r1, [r4, #1]
1a001ad2:	7011      	strb	r1, [r2, #0]
   *func        = gpioPinsInit[pin].func;
1a001ad4:	f994 2002 	ldrsb.w	r2, [r4, #2]
1a001ad8:	701a      	strb	r2, [r3, #0]
   *gpioPort    = gpioPinsInit[pin].gpio.port;
1a001ada:	f994 2003 	ldrsb.w	r2, [r4, #3]
1a001ade:	9b02      	ldr	r3, [sp, #8]
1a001ae0:	701a      	strb	r2, [r3, #0]
   *gpioPin     = gpioPinsInit[pin].gpio.pin;
1a001ae2:	f994 2004 	ldrsb.w	r2, [r4, #4]
1a001ae6:	9b03      	ldr	r3, [sp, #12]
1a001ae8:	701a      	strb	r2, [r3, #0]
}
1a001aea:	bc30      	pop	{r4, r5}
1a001aec:	4770      	bx	lr
1a001aee:	bf00      	nop
1a001af0:	1a00d658 	.word	0x1a00d658

1a001af4 <gpioInit>:

/*==================[external functions definition]==========================*/

bool_t gpioInit( gpioMap_t pin, gpioInit_t config )
{
1a001af4:	b570      	push	{r4, r5, r6, lr}
1a001af6:	b084      	sub	sp, #16
1a001af8:	460c      	mov	r4, r1

   bool_t ret_val     = 1;

   int8_t pinNamePort = 0;
1a001afa:	2300      	movs	r3, #0
1a001afc:	f88d 300f 	strb.w	r3, [sp, #15]
   int8_t pinNamePin  = 0;
1a001b00:	f88d 300e 	strb.w	r3, [sp, #14]

   int8_t func        = 0;
1a001b04:	f88d 300d 	strb.w	r3, [sp, #13]

   int8_t gpioPort    = 0;
1a001b08:	f88d 300c 	strb.w	r3, [sp, #12]
   int8_t gpioPin     = 0;
1a001b0c:	f88d 300b 	strb.w	r3, [sp, #11]

   gpioObtainPinInit( pin, &pinNamePort, &pinNamePin, &func,
1a001b10:	f10d 030b 	add.w	r3, sp, #11
1a001b14:	9301      	str	r3, [sp, #4]
1a001b16:	ab03      	add	r3, sp, #12
1a001b18:	9300      	str	r3, [sp, #0]
1a001b1a:	f10d 030d 	add.w	r3, sp, #13
1a001b1e:	f10d 020e 	add.w	r2, sp, #14
1a001b22:	f10d 010f 	add.w	r1, sp, #15
1a001b26:	f7ff ffcb 	bl	1a001ac0 <gpioObtainPinInit>
                      &gpioPort, &gpioPin );

   switch(config) {
1a001b2a:	2c05      	cmp	r4, #5
1a001b2c:	f200 80a5 	bhi.w	1a001c7a <gpioInit+0x186>
1a001b30:	e8df f004 	tbb	[pc, r4]
1a001b34:	45278109 	.word	0x45278109
1a001b38:	0363      	.short	0x0363

   case GPIO_ENABLE:
      /* Initializes GPIO */
      Chip_GPIO_Init(LPC_GPIO_PORT);
1a001b3a:	4851      	ldr	r0, [pc, #324]	; (1a001c80 <gpioInit+0x18c>)
1a001b3c:	f7ff fdb8 	bl	1a0016b0 <Chip_GPIO_Init>
   bool_t ret_val     = 1;
1a001b40:	2001      	movs	r0, #1
      break;
   }

   return ret_val;

}
1a001b42:	b004      	add	sp, #16
1a001b44:	bd70      	pop	{r4, r5, r6, pc}
      Chip_SCU_PinMux(
1a001b46:	f89d 100f 	ldrb.w	r1, [sp, #15]
1a001b4a:	f89d 300e 	ldrb.w	r3, [sp, #14]
1a001b4e:	f89d 200d 	ldrb.w	r2, [sp, #13]
1a001b52:	f042 02d0 	orr.w	r2, r2, #208	; 0xd0
1a001b56:	eb03 1341 	add.w	r3, r3, r1, lsl #5
1a001b5a:	494a      	ldr	r1, [pc, #296]	; (1a001c84 <gpioInit+0x190>)
1a001b5c:	f841 2023 	str.w	r2, [r1, r3, lsl #2]
      Chip_GPIO_SetDir( LPC_GPIO_PORT, gpioPort, ( 1 << gpioPin ), GPIO_INPUT );
1a001b60:	f89d 300c 	ldrb.w	r3, [sp, #12]
1a001b64:	f99d 200b 	ldrsb.w	r2, [sp, #11]
1a001b68:	2001      	movs	r0, #1
1a001b6a:	fa00 f102 	lsl.w	r1, r0, r2
{
	if (out) {
		pGPIO->DIR[portNum] |= bitValue;
	}
	else {
		pGPIO->DIR[portNum] &= ~bitValue;
1a001b6e:	4c44      	ldr	r4, [pc, #272]	; (1a001c80 <gpioInit+0x18c>)
1a001b70:	f503 6300 	add.w	r3, r3, #2048	; 0x800
1a001b74:	f854 2023 	ldr.w	r2, [r4, r3, lsl #2]
1a001b78:	ea22 0201 	bic.w	r2, r2, r1
1a001b7c:	f844 2023 	str.w	r2, [r4, r3, lsl #2]
1a001b80:	e7df      	b.n	1a001b42 <gpioInit+0x4e>
      Chip_SCU_PinMux(
1a001b82:	f89d 100f 	ldrb.w	r1, [sp, #15]
1a001b86:	f89d 300e 	ldrb.w	r3, [sp, #14]
1a001b8a:	f89d 200d 	ldrb.w	r2, [sp, #13]
1a001b8e:	f042 02c0 	orr.w	r2, r2, #192	; 0xc0
1a001b92:	eb03 1341 	add.w	r3, r3, r1, lsl #5
1a001b96:	493b      	ldr	r1, [pc, #236]	; (1a001c84 <gpioInit+0x190>)
1a001b98:	f841 2023 	str.w	r2, [r1, r3, lsl #2]
      Chip_GPIO_SetDir( LPC_GPIO_PORT, gpioPort, ( 1 << gpioPin ), GPIO_INPUT );
1a001b9c:	f89d 300c 	ldrb.w	r3, [sp, #12]
1a001ba0:	f99d 200b 	ldrsb.w	r2, [sp, #11]
1a001ba4:	2001      	movs	r0, #1
1a001ba6:	fa00 f102 	lsl.w	r1, r0, r2
1a001baa:	4c35      	ldr	r4, [pc, #212]	; (1a001c80 <gpioInit+0x18c>)
1a001bac:	f503 6300 	add.w	r3, r3, #2048	; 0x800
1a001bb0:	f854 2023 	ldr.w	r2, [r4, r3, lsl #2]
1a001bb4:	ea22 0201 	bic.w	r2, r2, r1
1a001bb8:	f844 2023 	str.w	r2, [r4, r3, lsl #2]
1a001bbc:	e7c1      	b.n	1a001b42 <gpioInit+0x4e>
      Chip_SCU_PinMux(
1a001bbe:	f89d 100f 	ldrb.w	r1, [sp, #15]
1a001bc2:	f89d 300e 	ldrb.w	r3, [sp, #14]
1a001bc6:	f89d 200d 	ldrb.w	r2, [sp, #13]
1a001bca:	f042 02d8 	orr.w	r2, r2, #216	; 0xd8
1a001bce:	eb03 1341 	add.w	r3, r3, r1, lsl #5
1a001bd2:	492c      	ldr	r1, [pc, #176]	; (1a001c84 <gpioInit+0x190>)
1a001bd4:	f841 2023 	str.w	r2, [r1, r3, lsl #2]
      Chip_GPIO_SetDir( LPC_GPIO_PORT, gpioPort, ( 1 << gpioPin ), GPIO_INPUT );
1a001bd8:	f89d 300c 	ldrb.w	r3, [sp, #12]
1a001bdc:	f99d 200b 	ldrsb.w	r2, [sp, #11]
1a001be0:	2001      	movs	r0, #1
1a001be2:	fa00 f102 	lsl.w	r1, r0, r2
1a001be6:	4c26      	ldr	r4, [pc, #152]	; (1a001c80 <gpioInit+0x18c>)
1a001be8:	f503 6300 	add.w	r3, r3, #2048	; 0x800
1a001bec:	f854 2023 	ldr.w	r2, [r4, r3, lsl #2]
1a001bf0:	ea22 0201 	bic.w	r2, r2, r1
1a001bf4:	f844 2023 	str.w	r2, [r4, r3, lsl #2]
1a001bf8:	e7a3      	b.n	1a001b42 <gpioInit+0x4e>
      Chip_SCU_PinMux(
1a001bfa:	f89d 100f 	ldrb.w	r1, [sp, #15]
1a001bfe:	f89d 300e 	ldrb.w	r3, [sp, #14]
1a001c02:	f89d 200d 	ldrb.w	r2, [sp, #13]
1a001c06:	f042 02c8 	orr.w	r2, r2, #200	; 0xc8
1a001c0a:	eb03 1341 	add.w	r3, r3, r1, lsl #5
1a001c0e:	491d      	ldr	r1, [pc, #116]	; (1a001c84 <gpioInit+0x190>)
1a001c10:	f841 2023 	str.w	r2, [r1, r3, lsl #2]
      Chip_GPIO_SetDir( LPC_GPIO_PORT, gpioPort, ( 1 << gpioPin ), GPIO_INPUT );
1a001c14:	f89d 300c 	ldrb.w	r3, [sp, #12]
1a001c18:	f99d 200b 	ldrsb.w	r2, [sp, #11]
1a001c1c:	2001      	movs	r0, #1
1a001c1e:	fa00 f102 	lsl.w	r1, r0, r2
1a001c22:	4c17      	ldr	r4, [pc, #92]	; (1a001c80 <gpioInit+0x18c>)
1a001c24:	f503 6300 	add.w	r3, r3, #2048	; 0x800
1a001c28:	f854 2023 	ldr.w	r2, [r4, r3, lsl #2]
1a001c2c:	ea22 0201 	bic.w	r2, r2, r1
1a001c30:	f844 2023 	str.w	r2, [r4, r3, lsl #2]
1a001c34:	e785      	b.n	1a001b42 <gpioInit+0x4e>
      Chip_SCU_PinMux(
1a001c36:	f89d 100f 	ldrb.w	r1, [sp, #15]
1a001c3a:	f89d 300e 	ldrb.w	r3, [sp, #14]
1a001c3e:	f89d 200d 	ldrb.w	r2, [sp, #13]
1a001c42:	f042 02d0 	orr.w	r2, r2, #208	; 0xd0
1a001c46:	eb03 1341 	add.w	r3, r3, r1, lsl #5
1a001c4a:	490e      	ldr	r1, [pc, #56]	; (1a001c84 <gpioInit+0x190>)
1a001c4c:	f841 2023 	str.w	r2, [r1, r3, lsl #2]
      Chip_GPIO_SetDir( LPC_GPIO_PORT, gpioPort, ( 1 << gpioPin ), GPIO_OUTPUT );
1a001c50:	f89d 400c 	ldrb.w	r4, [sp, #12]
1a001c54:	f99d 200b 	ldrsb.w	r2, [sp, #11]
1a001c58:	2001      	movs	r0, #1
1a001c5a:	fa00 f102 	lsl.w	r1, r0, r2
		pGPIO->DIR[portNum] |= bitValue;
1a001c5e:	4b08      	ldr	r3, [pc, #32]	; (1a001c80 <gpioInit+0x18c>)
1a001c60:	f504 6500 	add.w	r5, r4, #2048	; 0x800
1a001c64:	f853 6025 	ldr.w	r6, [r3, r5, lsl #2]
1a001c68:	4331      	orrs	r1, r6
1a001c6a:	f843 1025 	str.w	r1, [r3, r5, lsl #2]
      Chip_GPIO_SetPinState( LPC_GPIO_PORT, gpioPort, gpioPin, 0);
1a001c6e:	b2d2      	uxtb	r2, r2
	pGPIO->B[port][pin] = setting;
1a001c70:	eb03 1344 	add.w	r3, r3, r4, lsl #5
1a001c74:	2100      	movs	r1, #0
1a001c76:	5499      	strb	r1, [r3, r2]
1a001c78:	e763      	b.n	1a001b42 <gpioInit+0x4e>
      ret_val = 0;
1a001c7a:	2000      	movs	r0, #0
1a001c7c:	e761      	b.n	1a001b42 <gpioInit+0x4e>
1a001c7e:	bf00      	nop
1a001c80:	400f4000 	.word	0x400f4000
1a001c84:	40086000 	.word	0x40086000

1a001c88 <gpioWrite>:


bool_t gpioWrite( gpioMap_t pin, bool_t value )
{
1a001c88:	b510      	push	{r4, lr}
1a001c8a:	b084      	sub	sp, #16
1a001c8c:	460c      	mov	r4, r1

   bool_t ret_val     = 1;

   int8_t pinNamePort = 0;
1a001c8e:	2300      	movs	r3, #0
1a001c90:	f88d 300f 	strb.w	r3, [sp, #15]
   int8_t pinNamePin  = 0;
1a001c94:	f88d 300e 	strb.w	r3, [sp, #14]

   int8_t func        = 0;
1a001c98:	f88d 300d 	strb.w	r3, [sp, #13]

   int8_t gpioPort    = 0;
1a001c9c:	f88d 300c 	strb.w	r3, [sp, #12]
   int8_t gpioPin     = 0;
1a001ca0:	f88d 300b 	strb.w	r3, [sp, #11]

   gpioObtainPinInit( pin, &pinNamePort, &pinNamePin, &func,
1a001ca4:	f10d 030b 	add.w	r3, sp, #11
1a001ca8:	9301      	str	r3, [sp, #4]
1a001caa:	ab03      	add	r3, sp, #12
1a001cac:	9300      	str	r3, [sp, #0]
1a001cae:	f10d 030d 	add.w	r3, sp, #13
1a001cb2:	f10d 020e 	add.w	r2, sp, #14
1a001cb6:	f10d 010f 	add.w	r1, sp, #15
1a001cba:	f7ff ff01 	bl	1a001ac0 <gpioObtainPinInit>
                      &gpioPort, &gpioPin );

   Chip_GPIO_SetPinState( LPC_GPIO_PORT, gpioPort, gpioPin, value);
1a001cbe:	f89d 300c 	ldrb.w	r3, [sp, #12]
1a001cc2:	f89d 200b 	ldrb.w	r2, [sp, #11]
1a001cc6:	3400      	adds	r4, #0
1a001cc8:	bf18      	it	ne
1a001cca:	2401      	movne	r4, #1
1a001ccc:	015b      	lsls	r3, r3, #5
1a001cce:	f103 2340 	add.w	r3, r3, #1073758208	; 0x40004000
1a001cd2:	f503 2370 	add.w	r3, r3, #983040	; 0xf0000
1a001cd6:	549c      	strb	r4, [r3, r2]

   return ret_val;
}
1a001cd8:	2001      	movs	r0, #1
1a001cda:	b004      	add	sp, #16
1a001cdc:	bd10      	pop	{r4, pc}

1a001cde <gpioRead>:
   return gpioWrite( pin, !gpioRead(pin) );
}


bool_t gpioRead( gpioMap_t pin )
{
1a001cde:	b500      	push	{lr}
1a001ce0:	b085      	sub	sp, #20

   bool_t ret_val     = OFF;

   int8_t pinNamePort = 0;
1a001ce2:	2300      	movs	r3, #0
1a001ce4:	f88d 300f 	strb.w	r3, [sp, #15]
   int8_t pinNamePin  = 0;
1a001ce8:	f88d 300e 	strb.w	r3, [sp, #14]

   int8_t func        = 0;
1a001cec:	f88d 300d 	strb.w	r3, [sp, #13]

   int8_t gpioPort    = 0;
1a001cf0:	f88d 300c 	strb.w	r3, [sp, #12]
   int8_t gpioPin     = 0;
1a001cf4:	f88d 300b 	strb.w	r3, [sp, #11]

   gpioObtainPinInit( pin, &pinNamePort, &pinNamePin, &func,
1a001cf8:	f10d 030b 	add.w	r3, sp, #11
1a001cfc:	9301      	str	r3, [sp, #4]
1a001cfe:	ab03      	add	r3, sp, #12
1a001d00:	9300      	str	r3, [sp, #0]
1a001d02:	f10d 030d 	add.w	r3, sp, #13
1a001d06:	f10d 020e 	add.w	r2, sp, #14
1a001d0a:	f10d 010f 	add.w	r1, sp, #15
1a001d0e:	f7ff fed7 	bl	1a001ac0 <gpioObtainPinInit>
                      &gpioPort, &gpioPin );

   ret_val = (bool_t) Chip_GPIO_ReadPortBit( LPC_GPIO_PORT, gpioPort, gpioPin );
1a001d12:	f99d 300c 	ldrsb.w	r3, [sp, #12]
1a001d16:	f89d 200b 	ldrb.w	r2, [sp, #11]
	return (bool) pGPIO->B[port][pin];
1a001d1a:	015b      	lsls	r3, r3, #5
1a001d1c:	f103 2340 	add.w	r3, r3, #1073758208	; 0x40004000
1a001d20:	f503 2370 	add.w	r3, r3, #983040	; 0xf0000
1a001d24:	5c98      	ldrb	r0, [r3, r2]

   return ret_val;
}
1a001d26:	3000      	adds	r0, #0
1a001d28:	bf18      	it	ne
1a001d2a:	2001      	movne	r0, #1
1a001d2c:	b005      	add	sp, #20
1a001d2e:	f85d fb04 	ldr.w	pc, [sp], #4

1a001d32 <gpioToggle>:
{
1a001d32:	b510      	push	{r4, lr}
1a001d34:	4604      	mov	r4, r0
   return gpioWrite( pin, !gpioRead(pin) );
1a001d36:	f7ff ffd2 	bl	1a001cde <gpioRead>
1a001d3a:	fab0 f180 	clz	r1, r0
1a001d3e:	0949      	lsrs	r1, r1, #5
1a001d40:	4620      	mov	r0, r4
1a001d42:	f7ff ffa1 	bl	1a001c88 <gpioWrite>
}
1a001d46:	bd10      	pop	{r4, pc}

1a001d48 <USB0_IRQHandler>:
/**
 * @brief   Handle interrupt from USB
 * @return  Nothing
 */
#ifndef USB_HOST_ONLY // Parche para envitar conflictos con biblioteca host
void USB_IRQHandler(void){
1a001d48:	b508      	push	{r3, lr}
   USBD_API->hw->ISR(g_hUsb);
1a001d4a:	4b04      	ldr	r3, [pc, #16]	; (1a001d5c <USB0_IRQHandler+0x14>)
1a001d4c:	681b      	ldr	r3, [r3, #0]
1a001d4e:	681b      	ldr	r3, [r3, #0]
1a001d50:	68db      	ldr	r3, [r3, #12]
1a001d52:	4a03      	ldr	r2, [pc, #12]	; (1a001d60 <USB0_IRQHandler+0x18>)
1a001d54:	6810      	ldr	r0, [r2, #0]
1a001d56:	4798      	blx	r3
}
1a001d58:	bd08      	pop	{r3, pc}
1a001d5a:	bf00      	nop
1a001d5c:	10000a58 	.word	0x10000a58
1a001d60:	10000a1c 	.word	0x10000a1c

1a001d64 <boardInit>:

/*==================[external functions definition]==========================*/

/* Set up and initialize board hardware */
void boardInit(void)
{
1a001d64:	b508      	push	{r3, lr}
   // Read clock settings and update SystemCoreClock variable
   SystemCoreClockUpdate();
1a001d66:	f7ff fbef 	bl	1a001548 <SystemCoreClockUpdate>

   cyclesCounterInit( SystemCoreClock );
1a001d6a:	4b1a      	ldr	r3, [pc, #104]	; (1a001dd4 <boardInit+0x70>)
1a001d6c:	6818      	ldr	r0, [r3, #0]
1a001d6e:	f7ff fd17 	bl	1a0017a0 <cyclesCounterInit>

   // Inicializar el conteo de Ticks con resolucion de 1ms (si no se usa freeRTOS)
   #ifndef USE_FREERTOS
      tickInit( 1 );
1a001d72:	2001      	movs	r0, #1
1a001d74:	2100      	movs	r1, #0
1a001d76:	f7ff fe4b 	bl	1a001a10 <tickInit>
      //#error CIAA-NXP

   #elif BOARD==edu_ciaa_nxp

      // Inicializar GPIOs
      gpioInit( 0, GPIO_ENABLE );
1a001d7a:	2105      	movs	r1, #5
1a001d7c:	2000      	movs	r0, #0
1a001d7e:	f7ff feb9 	bl	1a001af4 <gpioInit>

      // Configuracion de pines de entrada para Teclas de la EDU-CIAA-NXP
      gpioInit( TEC1, GPIO_INPUT );
1a001d82:	2100      	movs	r1, #0
1a001d84:	2024      	movs	r0, #36	; 0x24
1a001d86:	f7ff feb5 	bl	1a001af4 <gpioInit>
      gpioInit( TEC2, GPIO_INPUT );
1a001d8a:	2100      	movs	r1, #0
1a001d8c:	2025      	movs	r0, #37	; 0x25
1a001d8e:	f7ff feb1 	bl	1a001af4 <gpioInit>
      gpioInit( TEC3, GPIO_INPUT );
1a001d92:	2100      	movs	r1, #0
1a001d94:	2026      	movs	r0, #38	; 0x26
1a001d96:	f7ff fead 	bl	1a001af4 <gpioInit>
      gpioInit( TEC4, GPIO_INPUT );
1a001d9a:	2100      	movs	r1, #0
1a001d9c:	2027      	movs	r0, #39	; 0x27
1a001d9e:	f7ff fea9 	bl	1a001af4 <gpioInit>

      // Configuracion de pines de salida para Leds de la EDU-CIAA-NXP
      gpioInit( LEDR, GPIO_OUTPUT );
1a001da2:	2101      	movs	r1, #1
1a001da4:	2028      	movs	r0, #40	; 0x28
1a001da6:	f7ff fea5 	bl	1a001af4 <gpioInit>
      gpioInit( LEDG, GPIO_OUTPUT );
1a001daa:	2101      	movs	r1, #1
1a001dac:	2029      	movs	r0, #41	; 0x29
1a001dae:	f7ff fea1 	bl	1a001af4 <gpioInit>
      gpioInit( LEDB, GPIO_OUTPUT );
1a001db2:	2101      	movs	r1, #1
1a001db4:	202a      	movs	r0, #42	; 0x2a
1a001db6:	f7ff fe9d 	bl	1a001af4 <gpioInit>
      gpioInit( LED1, GPIO_OUTPUT );
1a001dba:	2101      	movs	r1, #1
1a001dbc:	202b      	movs	r0, #43	; 0x2b
1a001dbe:	f7ff fe99 	bl	1a001af4 <gpioInit>
      gpioInit( LED2, GPIO_OUTPUT );
1a001dc2:	2101      	movs	r1, #1
1a001dc4:	202c      	movs	r0, #44	; 0x2c
1a001dc6:	f7ff fe95 	bl	1a001af4 <gpioInit>
      gpioInit( LED3, GPIO_OUTPUT );
1a001dca:	2101      	movs	r1, #1
1a001dcc:	202d      	movs	r0, #45	; 0x2d
1a001dce:	f7ff fe91 	bl	1a001af4 <gpioInit>
   #else
      #error BOARD compile variable must be defined

   #endif

}
1a001dd2:	bd08      	pop	{r3, pc}
1a001dd4:	10000a54 	.word	0x10000a54

1a001dd8 <delay>:
/* ---- Blocking Delay ---- */

// delay( 1, DELAY_US );

void delay( tick_t duration_ms )
{
1a001dd8:	e92d 43f8 	stmdb	sp!, {r3, r4, r5, r6, r7, r8, r9, lr}
1a001ddc:	4680      	mov	r8, r0
1a001dde:	4689      	mov	r9, r1
   tick_t startTime = tickRead();
1a001de0:	f7ff fe04 	bl	1a0019ec <tickRead>
1a001de4:	4606      	mov	r6, r0
1a001de6:	460f      	mov	r7, r1
   while ( (tick_t)(tickRead() - startTime) < duration_ms/tickRateMS );
1a001de8:	f7ff fe00 	bl	1a0019ec <tickRead>
1a001dec:	1b84      	subs	r4, r0, r6
1a001dee:	eb61 0507 	sbc.w	r5, r1, r7
1a001df2:	4b06      	ldr	r3, [pc, #24]	; (1a001e0c <delay+0x34>)
1a001df4:	e9d3 2300 	ldrd	r2, r3, [r3]
1a001df8:	4640      	mov	r0, r8
1a001dfa:	4649      	mov	r1, r9
1a001dfc:	f000 fce0 	bl	1a0027c0 <__aeabi_uldivmod>
1a001e00:	428d      	cmp	r5, r1
1a001e02:	bf08      	it	eq
1a001e04:	4284      	cmpeq	r4, r0
1a001e06:	d3ef      	bcc.n	1a001de8 <delay+0x10>
}
1a001e08:	e8bd 83f8 	ldmia.w	sp!, {r3, r4, r5, r6, r7, r8, r9, pc}
1a001e0c:	10000040 	.word	0x10000040

1a001e10 <delayInit>:


/* ---- Non Blocking Delay ---- */

void delayInit( delay_t * delay, tick_t duration )
{
1a001e10:	b510      	push	{r4, lr}
1a001e12:	4604      	mov	r4, r0
1a001e14:	4610      	mov	r0, r2
1a001e16:	4619      	mov	r1, r3
   delay->duration = duration/tickRateMS;
1a001e18:	4b04      	ldr	r3, [pc, #16]	; (1a001e2c <delayInit+0x1c>)
1a001e1a:	e9d3 2300 	ldrd	r2, r3, [r3]
1a001e1e:	f000 fccf 	bl	1a0027c0 <__aeabi_uldivmod>
1a001e22:	e9c4 0102 	strd	r0, r1, [r4, #8]
   delay->running = 0;
1a001e26:	2300      	movs	r3, #0
1a001e28:	7423      	strb	r3, [r4, #16]
}
1a001e2a:	bd10      	pop	{r4, pc}
1a001e2c:	10000040 	.word	0x10000040

1a001e30 <delayRead>:

bool_t delayRead( delay_t * delay )
{
1a001e30:	b570      	push	{r4, r5, r6, lr}
1a001e32:	4604      	mov	r4, r0

   bool_t timeArrived = 0;

   if( !delay->running ) {
1a001e34:	7c05      	ldrb	r5, [r0, #16]
1a001e36:	b195      	cbz	r5, 1a001e5e <delayRead+0x2e>
      delay->startTime = tickRead();
      delay->running = 1;
   } else {
      if ( (tick_t)(tickRead() - delay->startTime) >= delay->duration ) {
1a001e38:	f7ff fdd8 	bl	1a0019ec <tickRead>
1a001e3c:	e9d4 2300 	ldrd	r2, r3, [r4]
1a001e40:	1a82      	subs	r2, r0, r2
1a001e42:	eb61 0303 	sbc.w	r3, r1, r3
1a001e46:	4615      	mov	r5, r2
1a001e48:	461e      	mov	r6, r3
1a001e4a:	e9d4 2302 	ldrd	r2, r3, [r4, #8]
1a001e4e:	429e      	cmp	r6, r3
1a001e50:	bf08      	it	eq
1a001e52:	4295      	cmpeq	r5, r2
1a001e54:	d30b      	bcc.n	1a001e6e <delayRead+0x3e>
         timeArrived = 1;
         delay->running = 0;
1a001e56:	2300      	movs	r3, #0
1a001e58:	7423      	strb	r3, [r4, #16]
         timeArrived = 1;
1a001e5a:	2501      	movs	r5, #1
1a001e5c:	e005      	b.n	1a001e6a <delayRead+0x3a>
      delay->startTime = tickRead();
1a001e5e:	f7ff fdc5 	bl	1a0019ec <tickRead>
1a001e62:	e9c4 0100 	strd	r0, r1, [r4]
      delay->running = 1;
1a001e66:	2301      	movs	r3, #1
1a001e68:	7423      	strb	r3, [r4, #16]
      }
   }

   return timeArrived;
}
1a001e6a:	4628      	mov	r0, r5
1a001e6c:	bd70      	pop	{r4, r5, r6, pc}
   bool_t timeArrived = 0;
1a001e6e:	2500      	movs	r5, #0
1a001e70:	e7fb      	b.n	1a001e6a <delayRead+0x3a>
1a001e72:	Address 0x000000001a001e72 is out of bounds.


1a001e74 <__aeabi_drsub>:
1a001e74:	f081 4100 	eor.w	r1, r1, #2147483648	; 0x80000000
1a001e78:	e002      	b.n	1a001e80 <__adddf3>
1a001e7a:	bf00      	nop

1a001e7c <__aeabi_dsub>:
1a001e7c:	f083 4300 	eor.w	r3, r3, #2147483648	; 0x80000000

1a001e80 <__adddf3>:
1a001e80:	b530      	push	{r4, r5, lr}
1a001e82:	ea4f 0441 	mov.w	r4, r1, lsl #1
1a001e86:	ea4f 0543 	mov.w	r5, r3, lsl #1
1a001e8a:	ea94 0f05 	teq	r4, r5
1a001e8e:	bf08      	it	eq
1a001e90:	ea90 0f02 	teqeq	r0, r2
1a001e94:	bf1f      	itttt	ne
1a001e96:	ea54 0c00 	orrsne.w	ip, r4, r0
1a001e9a:	ea55 0c02 	orrsne.w	ip, r5, r2
1a001e9e:	ea7f 5c64 	mvnsne.w	ip, r4, asr #21
1a001ea2:	ea7f 5c65 	mvnsne.w	ip, r5, asr #21
1a001ea6:	f000 80e2 	beq.w	1a00206e <__adddf3+0x1ee>
1a001eaa:	ea4f 5454 	mov.w	r4, r4, lsr #21
1a001eae:	ebd4 5555 	rsbs	r5, r4, r5, lsr #21
1a001eb2:	bfb8      	it	lt
1a001eb4:	426d      	neglt	r5, r5
1a001eb6:	dd0c      	ble.n	1a001ed2 <__adddf3+0x52>
1a001eb8:	442c      	add	r4, r5
1a001eba:	ea80 0202 	eor.w	r2, r0, r2
1a001ebe:	ea81 0303 	eor.w	r3, r1, r3
1a001ec2:	ea82 0000 	eor.w	r0, r2, r0
1a001ec6:	ea83 0101 	eor.w	r1, r3, r1
1a001eca:	ea80 0202 	eor.w	r2, r0, r2
1a001ece:	ea81 0303 	eor.w	r3, r1, r3
1a001ed2:	2d36      	cmp	r5, #54	; 0x36
1a001ed4:	bf88      	it	hi
1a001ed6:	bd30      	pophi	{r4, r5, pc}
1a001ed8:	f011 4f00 	tst.w	r1, #2147483648	; 0x80000000
1a001edc:	ea4f 3101 	mov.w	r1, r1, lsl #12
1a001ee0:	f44f 1c80 	mov.w	ip, #1048576	; 0x100000
1a001ee4:	ea4c 3111 	orr.w	r1, ip, r1, lsr #12
1a001ee8:	d002      	beq.n	1a001ef0 <__adddf3+0x70>
1a001eea:	4240      	negs	r0, r0
1a001eec:	eb61 0141 	sbc.w	r1, r1, r1, lsl #1
1a001ef0:	f013 4f00 	tst.w	r3, #2147483648	; 0x80000000
1a001ef4:	ea4f 3303 	mov.w	r3, r3, lsl #12
1a001ef8:	ea4c 3313 	orr.w	r3, ip, r3, lsr #12
1a001efc:	d002      	beq.n	1a001f04 <__adddf3+0x84>
1a001efe:	4252      	negs	r2, r2
1a001f00:	eb63 0343 	sbc.w	r3, r3, r3, lsl #1
1a001f04:	ea94 0f05 	teq	r4, r5
1a001f08:	f000 80a7 	beq.w	1a00205a <__adddf3+0x1da>
1a001f0c:	f1a4 0401 	sub.w	r4, r4, #1
1a001f10:	f1d5 0e20 	rsbs	lr, r5, #32
1a001f14:	db0d      	blt.n	1a001f32 <__adddf3+0xb2>
1a001f16:	fa02 fc0e 	lsl.w	ip, r2, lr
1a001f1a:	fa22 f205 	lsr.w	r2, r2, r5
1a001f1e:	1880      	adds	r0, r0, r2
1a001f20:	f141 0100 	adc.w	r1, r1, #0
1a001f24:	fa03 f20e 	lsl.w	r2, r3, lr
1a001f28:	1880      	adds	r0, r0, r2
1a001f2a:	fa43 f305 	asr.w	r3, r3, r5
1a001f2e:	4159      	adcs	r1, r3
1a001f30:	e00e      	b.n	1a001f50 <__adddf3+0xd0>
1a001f32:	f1a5 0520 	sub.w	r5, r5, #32
1a001f36:	f10e 0e20 	add.w	lr, lr, #32
1a001f3a:	2a01      	cmp	r2, #1
1a001f3c:	fa03 fc0e 	lsl.w	ip, r3, lr
1a001f40:	bf28      	it	cs
1a001f42:	f04c 0c02 	orrcs.w	ip, ip, #2
1a001f46:	fa43 f305 	asr.w	r3, r3, r5
1a001f4a:	18c0      	adds	r0, r0, r3
1a001f4c:	eb51 71e3 	adcs.w	r1, r1, r3, asr #31
1a001f50:	f001 4500 	and.w	r5, r1, #2147483648	; 0x80000000
1a001f54:	d507      	bpl.n	1a001f66 <__adddf3+0xe6>
1a001f56:	f04f 0e00 	mov.w	lr, #0
1a001f5a:	f1dc 0c00 	rsbs	ip, ip, #0
1a001f5e:	eb7e 0000 	sbcs.w	r0, lr, r0
1a001f62:	eb6e 0101 	sbc.w	r1, lr, r1
1a001f66:	f5b1 1f80 	cmp.w	r1, #1048576	; 0x100000
1a001f6a:	d31b      	bcc.n	1a001fa4 <__adddf3+0x124>
1a001f6c:	f5b1 1f00 	cmp.w	r1, #2097152	; 0x200000
1a001f70:	d30c      	bcc.n	1a001f8c <__adddf3+0x10c>
1a001f72:	0849      	lsrs	r1, r1, #1
1a001f74:	ea5f 0030 	movs.w	r0, r0, rrx
1a001f78:	ea4f 0c3c 	mov.w	ip, ip, rrx
1a001f7c:	f104 0401 	add.w	r4, r4, #1
1a001f80:	ea4f 5244 	mov.w	r2, r4, lsl #21
1a001f84:	f512 0f80 	cmn.w	r2, #4194304	; 0x400000
1a001f88:	f080 809a 	bcs.w	1a0020c0 <__adddf3+0x240>
1a001f8c:	f1bc 4f00 	cmp.w	ip, #2147483648	; 0x80000000
1a001f90:	bf08      	it	eq
1a001f92:	ea5f 0c50 	movseq.w	ip, r0, lsr #1
1a001f96:	f150 0000 	adcs.w	r0, r0, #0
1a001f9a:	eb41 5104 	adc.w	r1, r1, r4, lsl #20
1a001f9e:	ea41 0105 	orr.w	r1, r1, r5
1a001fa2:	bd30      	pop	{r4, r5, pc}
1a001fa4:	ea5f 0c4c 	movs.w	ip, ip, lsl #1
1a001fa8:	4140      	adcs	r0, r0
1a001faa:	eb41 0101 	adc.w	r1, r1, r1
1a001fae:	f411 1f80 	tst.w	r1, #1048576	; 0x100000
1a001fb2:	f1a4 0401 	sub.w	r4, r4, #1
1a001fb6:	d1e9      	bne.n	1a001f8c <__adddf3+0x10c>
1a001fb8:	f091 0f00 	teq	r1, #0
1a001fbc:	bf04      	itt	eq
1a001fbe:	4601      	moveq	r1, r0
1a001fc0:	2000      	moveq	r0, #0
1a001fc2:	fab1 f381 	clz	r3, r1
1a001fc6:	bf08      	it	eq
1a001fc8:	3320      	addeq	r3, #32
1a001fca:	f1a3 030b 	sub.w	r3, r3, #11
1a001fce:	f1b3 0220 	subs.w	r2, r3, #32
1a001fd2:	da0c      	bge.n	1a001fee <__adddf3+0x16e>
1a001fd4:	320c      	adds	r2, #12
1a001fd6:	dd08      	ble.n	1a001fea <__adddf3+0x16a>
1a001fd8:	f102 0c14 	add.w	ip, r2, #20
1a001fdc:	f1c2 020c 	rsb	r2, r2, #12
1a001fe0:	fa01 f00c 	lsl.w	r0, r1, ip
1a001fe4:	fa21 f102 	lsr.w	r1, r1, r2
1a001fe8:	e00c      	b.n	1a002004 <__adddf3+0x184>
1a001fea:	f102 0214 	add.w	r2, r2, #20
1a001fee:	bfd8      	it	le
1a001ff0:	f1c2 0c20 	rsble	ip, r2, #32
1a001ff4:	fa01 f102 	lsl.w	r1, r1, r2
1a001ff8:	fa20 fc0c 	lsr.w	ip, r0, ip
1a001ffc:	bfdc      	itt	le
1a001ffe:	ea41 010c 	orrle.w	r1, r1, ip
1a002002:	4090      	lslle	r0, r2
1a002004:	1ae4      	subs	r4, r4, r3
1a002006:	bfa2      	ittt	ge
1a002008:	eb01 5104 	addge.w	r1, r1, r4, lsl #20
1a00200c:	4329      	orrge	r1, r5
1a00200e:	bd30      	popge	{r4, r5, pc}
1a002010:	ea6f 0404 	mvn.w	r4, r4
1a002014:	3c1f      	subs	r4, #31
1a002016:	da1c      	bge.n	1a002052 <__adddf3+0x1d2>
1a002018:	340c      	adds	r4, #12
1a00201a:	dc0e      	bgt.n	1a00203a <__adddf3+0x1ba>
1a00201c:	f104 0414 	add.w	r4, r4, #20
1a002020:	f1c4 0220 	rsb	r2, r4, #32
1a002024:	fa20 f004 	lsr.w	r0, r0, r4
1a002028:	fa01 f302 	lsl.w	r3, r1, r2
1a00202c:	ea40 0003 	orr.w	r0, r0, r3
1a002030:	fa21 f304 	lsr.w	r3, r1, r4
1a002034:	ea45 0103 	orr.w	r1, r5, r3
1a002038:	bd30      	pop	{r4, r5, pc}
1a00203a:	f1c4 040c 	rsb	r4, r4, #12
1a00203e:	f1c4 0220 	rsb	r2, r4, #32
1a002042:	fa20 f002 	lsr.w	r0, r0, r2
1a002046:	fa01 f304 	lsl.w	r3, r1, r4
1a00204a:	ea40 0003 	orr.w	r0, r0, r3
1a00204e:	4629      	mov	r1, r5
1a002050:	bd30      	pop	{r4, r5, pc}
1a002052:	fa21 f004 	lsr.w	r0, r1, r4
1a002056:	4629      	mov	r1, r5
1a002058:	bd30      	pop	{r4, r5, pc}
1a00205a:	f094 0f00 	teq	r4, #0
1a00205e:	f483 1380 	eor.w	r3, r3, #1048576	; 0x100000
1a002062:	bf06      	itte	eq
1a002064:	f481 1180 	eoreq.w	r1, r1, #1048576	; 0x100000
1a002068:	3401      	addeq	r4, #1
1a00206a:	3d01      	subne	r5, #1
1a00206c:	e74e      	b.n	1a001f0c <__adddf3+0x8c>
1a00206e:	ea7f 5c64 	mvns.w	ip, r4, asr #21
1a002072:	bf18      	it	ne
1a002074:	ea7f 5c65 	mvnsne.w	ip, r5, asr #21
1a002078:	d029      	beq.n	1a0020ce <__adddf3+0x24e>
1a00207a:	ea94 0f05 	teq	r4, r5
1a00207e:	bf08      	it	eq
1a002080:	ea90 0f02 	teqeq	r0, r2
1a002084:	d005      	beq.n	1a002092 <__adddf3+0x212>
1a002086:	ea54 0c00 	orrs.w	ip, r4, r0
1a00208a:	bf04      	itt	eq
1a00208c:	4619      	moveq	r1, r3
1a00208e:	4610      	moveq	r0, r2
1a002090:	bd30      	pop	{r4, r5, pc}
1a002092:	ea91 0f03 	teq	r1, r3
1a002096:	bf1e      	ittt	ne
1a002098:	2100      	movne	r1, #0
1a00209a:	2000      	movne	r0, #0
1a00209c:	bd30      	popne	{r4, r5, pc}
1a00209e:	ea5f 5c54 	movs.w	ip, r4, lsr #21
1a0020a2:	d105      	bne.n	1a0020b0 <__adddf3+0x230>
1a0020a4:	0040      	lsls	r0, r0, #1
1a0020a6:	4149      	adcs	r1, r1
1a0020a8:	bf28      	it	cs
1a0020aa:	f041 4100 	orrcs.w	r1, r1, #2147483648	; 0x80000000
1a0020ae:	bd30      	pop	{r4, r5, pc}
1a0020b0:	f514 0480 	adds.w	r4, r4, #4194304	; 0x400000
1a0020b4:	bf3c      	itt	cc
1a0020b6:	f501 1180 	addcc.w	r1, r1, #1048576	; 0x100000
1a0020ba:	bd30      	popcc	{r4, r5, pc}
1a0020bc:	f001 4500 	and.w	r5, r1, #2147483648	; 0x80000000
1a0020c0:	f045 41fe 	orr.w	r1, r5, #2130706432	; 0x7f000000
1a0020c4:	f441 0170 	orr.w	r1, r1, #15728640	; 0xf00000
1a0020c8:	f04f 0000 	mov.w	r0, #0
1a0020cc:	bd30      	pop	{r4, r5, pc}
1a0020ce:	ea7f 5c64 	mvns.w	ip, r4, asr #21
1a0020d2:	bf1a      	itte	ne
1a0020d4:	4619      	movne	r1, r3
1a0020d6:	4610      	movne	r0, r2
1a0020d8:	ea7f 5c65 	mvnseq.w	ip, r5, asr #21
1a0020dc:	bf1c      	itt	ne
1a0020de:	460b      	movne	r3, r1
1a0020e0:	4602      	movne	r2, r0
1a0020e2:	ea50 3401 	orrs.w	r4, r0, r1, lsl #12
1a0020e6:	bf06      	itte	eq
1a0020e8:	ea52 3503 	orrseq.w	r5, r2, r3, lsl #12
1a0020ec:	ea91 0f03 	teqeq	r1, r3
1a0020f0:	f441 2100 	orrne.w	r1, r1, #524288	; 0x80000
1a0020f4:	bd30      	pop	{r4, r5, pc}
1a0020f6:	bf00      	nop

1a0020f8 <__aeabi_ui2d>:
1a0020f8:	f090 0f00 	teq	r0, #0
1a0020fc:	bf04      	itt	eq
1a0020fe:	2100      	moveq	r1, #0
1a002100:	4770      	bxeq	lr
1a002102:	b530      	push	{r4, r5, lr}
1a002104:	f44f 6480 	mov.w	r4, #1024	; 0x400
1a002108:	f104 0432 	add.w	r4, r4, #50	; 0x32
1a00210c:	f04f 0500 	mov.w	r5, #0
1a002110:	f04f 0100 	mov.w	r1, #0
1a002114:	e750      	b.n	1a001fb8 <__adddf3+0x138>
1a002116:	bf00      	nop

1a002118 <__aeabi_i2d>:
1a002118:	f090 0f00 	teq	r0, #0
1a00211c:	bf04      	itt	eq
1a00211e:	2100      	moveq	r1, #0
1a002120:	4770      	bxeq	lr
1a002122:	b530      	push	{r4, r5, lr}
1a002124:	f44f 6480 	mov.w	r4, #1024	; 0x400
1a002128:	f104 0432 	add.w	r4, r4, #50	; 0x32
1a00212c:	f010 4500 	ands.w	r5, r0, #2147483648	; 0x80000000
1a002130:	bf48      	it	mi
1a002132:	4240      	negmi	r0, r0
1a002134:	f04f 0100 	mov.w	r1, #0
1a002138:	e73e      	b.n	1a001fb8 <__adddf3+0x138>
1a00213a:	bf00      	nop

1a00213c <__aeabi_f2d>:
1a00213c:	0042      	lsls	r2, r0, #1
1a00213e:	ea4f 01e2 	mov.w	r1, r2, asr #3
1a002142:	ea4f 0131 	mov.w	r1, r1, rrx
1a002146:	ea4f 7002 	mov.w	r0, r2, lsl #28
1a00214a:	bf1f      	itttt	ne
1a00214c:	f012 437f 	andsne.w	r3, r2, #4278190080	; 0xff000000
1a002150:	f093 4f7f 	teqne	r3, #4278190080	; 0xff000000
1a002154:	f081 5160 	eorne.w	r1, r1, #939524096	; 0x38000000
1a002158:	4770      	bxne	lr
1a00215a:	f032 427f 	bics.w	r2, r2, #4278190080	; 0xff000000
1a00215e:	bf08      	it	eq
1a002160:	4770      	bxeq	lr
1a002162:	f093 4f7f 	teq	r3, #4278190080	; 0xff000000
1a002166:	bf04      	itt	eq
1a002168:	f441 2100 	orreq.w	r1, r1, #524288	; 0x80000
1a00216c:	4770      	bxeq	lr
1a00216e:	b530      	push	{r4, r5, lr}
1a002170:	f44f 7460 	mov.w	r4, #896	; 0x380
1a002174:	f001 4500 	and.w	r5, r1, #2147483648	; 0x80000000
1a002178:	f021 4100 	bic.w	r1, r1, #2147483648	; 0x80000000
1a00217c:	e71c      	b.n	1a001fb8 <__adddf3+0x138>
1a00217e:	bf00      	nop

1a002180 <__aeabi_ul2d>:
1a002180:	ea50 0201 	orrs.w	r2, r0, r1
1a002184:	bf08      	it	eq
1a002186:	4770      	bxeq	lr
1a002188:	b530      	push	{r4, r5, lr}
1a00218a:	f04f 0500 	mov.w	r5, #0
1a00218e:	e00a      	b.n	1a0021a6 <__aeabi_l2d+0x16>

1a002190 <__aeabi_l2d>:
1a002190:	ea50 0201 	orrs.w	r2, r0, r1
1a002194:	bf08      	it	eq
1a002196:	4770      	bxeq	lr
1a002198:	b530      	push	{r4, r5, lr}
1a00219a:	f011 4500 	ands.w	r5, r1, #2147483648	; 0x80000000
1a00219e:	d502      	bpl.n	1a0021a6 <__aeabi_l2d+0x16>
1a0021a0:	4240      	negs	r0, r0
1a0021a2:	eb61 0141 	sbc.w	r1, r1, r1, lsl #1
1a0021a6:	f44f 6480 	mov.w	r4, #1024	; 0x400
1a0021aa:	f104 0432 	add.w	r4, r4, #50	; 0x32
1a0021ae:	ea5f 5c91 	movs.w	ip, r1, lsr #22
1a0021b2:	f43f aed8 	beq.w	1a001f66 <__adddf3+0xe6>
1a0021b6:	f04f 0203 	mov.w	r2, #3
1a0021ba:	ea5f 0cdc 	movs.w	ip, ip, lsr #3
1a0021be:	bf18      	it	ne
1a0021c0:	3203      	addne	r2, #3
1a0021c2:	ea5f 0cdc 	movs.w	ip, ip, lsr #3
1a0021c6:	bf18      	it	ne
1a0021c8:	3203      	addne	r2, #3
1a0021ca:	eb02 02dc 	add.w	r2, r2, ip, lsr #3
1a0021ce:	f1c2 0320 	rsb	r3, r2, #32
1a0021d2:	fa00 fc03 	lsl.w	ip, r0, r3
1a0021d6:	fa20 f002 	lsr.w	r0, r0, r2
1a0021da:	fa01 fe03 	lsl.w	lr, r1, r3
1a0021de:	ea40 000e 	orr.w	r0, r0, lr
1a0021e2:	fa21 f102 	lsr.w	r1, r1, r2
1a0021e6:	4414      	add	r4, r2
1a0021e8:	e6bd      	b.n	1a001f66 <__adddf3+0xe6>
1a0021ea:	bf00      	nop

1a0021ec <__aeabi_dmul>:
1a0021ec:	b570      	push	{r4, r5, r6, lr}
1a0021ee:	f04f 0cff 	mov.w	ip, #255	; 0xff
1a0021f2:	f44c 6ce0 	orr.w	ip, ip, #1792	; 0x700
1a0021f6:	ea1c 5411 	ands.w	r4, ip, r1, lsr #20
1a0021fa:	bf1d      	ittte	ne
1a0021fc:	ea1c 5513 	andsne.w	r5, ip, r3, lsr #20
1a002200:	ea94 0f0c 	teqne	r4, ip
1a002204:	ea95 0f0c 	teqne	r5, ip
1a002208:	f000 f8de 	bleq	1a0023c8 <__aeabi_dmul+0x1dc>
1a00220c:	442c      	add	r4, r5
1a00220e:	ea81 0603 	eor.w	r6, r1, r3
1a002212:	ea21 514c 	bic.w	r1, r1, ip, lsl #21
1a002216:	ea23 534c 	bic.w	r3, r3, ip, lsl #21
1a00221a:	ea50 3501 	orrs.w	r5, r0, r1, lsl #12
1a00221e:	bf18      	it	ne
1a002220:	ea52 3503 	orrsne.w	r5, r2, r3, lsl #12
1a002224:	f441 1180 	orr.w	r1, r1, #1048576	; 0x100000
1a002228:	f443 1380 	orr.w	r3, r3, #1048576	; 0x100000
1a00222c:	d038      	beq.n	1a0022a0 <__aeabi_dmul+0xb4>
1a00222e:	fba0 ce02 	umull	ip, lr, r0, r2
1a002232:	f04f 0500 	mov.w	r5, #0
1a002236:	fbe1 e502 	umlal	lr, r5, r1, r2
1a00223a:	f006 4200 	and.w	r2, r6, #2147483648	; 0x80000000
1a00223e:	fbe0 e503 	umlal	lr, r5, r0, r3
1a002242:	f04f 0600 	mov.w	r6, #0
1a002246:	fbe1 5603 	umlal	r5, r6, r1, r3
1a00224a:	f09c 0f00 	teq	ip, #0
1a00224e:	bf18      	it	ne
1a002250:	f04e 0e01 	orrne.w	lr, lr, #1
1a002254:	f1a4 04ff 	sub.w	r4, r4, #255	; 0xff
1a002258:	f5b6 7f00 	cmp.w	r6, #512	; 0x200
1a00225c:	f564 7440 	sbc.w	r4, r4, #768	; 0x300
1a002260:	d204      	bcs.n	1a00226c <__aeabi_dmul+0x80>
1a002262:	ea5f 0e4e 	movs.w	lr, lr, lsl #1
1a002266:	416d      	adcs	r5, r5
1a002268:	eb46 0606 	adc.w	r6, r6, r6
1a00226c:	ea42 21c6 	orr.w	r1, r2, r6, lsl #11
1a002270:	ea41 5155 	orr.w	r1, r1, r5, lsr #21
1a002274:	ea4f 20c5 	mov.w	r0, r5, lsl #11
1a002278:	ea40 505e 	orr.w	r0, r0, lr, lsr #21
1a00227c:	ea4f 2ece 	mov.w	lr, lr, lsl #11
1a002280:	f1b4 0cfd 	subs.w	ip, r4, #253	; 0xfd
1a002284:	bf88      	it	hi
1a002286:	f5bc 6fe0 	cmphi.w	ip, #1792	; 0x700
1a00228a:	d81e      	bhi.n	1a0022ca <__aeabi_dmul+0xde>
1a00228c:	f1be 4f00 	cmp.w	lr, #2147483648	; 0x80000000
1a002290:	bf08      	it	eq
1a002292:	ea5f 0e50 	movseq.w	lr, r0, lsr #1
1a002296:	f150 0000 	adcs.w	r0, r0, #0
1a00229a:	eb41 5104 	adc.w	r1, r1, r4, lsl #20
1a00229e:	bd70      	pop	{r4, r5, r6, pc}
1a0022a0:	f006 4600 	and.w	r6, r6, #2147483648	; 0x80000000
1a0022a4:	ea46 0101 	orr.w	r1, r6, r1
1a0022a8:	ea40 0002 	orr.w	r0, r0, r2
1a0022ac:	ea81 0103 	eor.w	r1, r1, r3
1a0022b0:	ebb4 045c 	subs.w	r4, r4, ip, lsr #1
1a0022b4:	bfc2      	ittt	gt
1a0022b6:	ebd4 050c 	rsbsgt	r5, r4, ip
1a0022ba:	ea41 5104 	orrgt.w	r1, r1, r4, lsl #20
1a0022be:	bd70      	popgt	{r4, r5, r6, pc}
1a0022c0:	f441 1180 	orr.w	r1, r1, #1048576	; 0x100000
1a0022c4:	f04f 0e00 	mov.w	lr, #0
1a0022c8:	3c01      	subs	r4, #1
1a0022ca:	f300 80ab 	bgt.w	1a002424 <__aeabi_dmul+0x238>
1a0022ce:	f114 0f36 	cmn.w	r4, #54	; 0x36
1a0022d2:	bfde      	ittt	le
1a0022d4:	2000      	movle	r0, #0
1a0022d6:	f001 4100 	andle.w	r1, r1, #2147483648	; 0x80000000
1a0022da:	bd70      	pople	{r4, r5, r6, pc}
1a0022dc:	f1c4 0400 	rsb	r4, r4, #0
1a0022e0:	3c20      	subs	r4, #32
1a0022e2:	da35      	bge.n	1a002350 <__aeabi_dmul+0x164>
1a0022e4:	340c      	adds	r4, #12
1a0022e6:	dc1b      	bgt.n	1a002320 <__aeabi_dmul+0x134>
1a0022e8:	f104 0414 	add.w	r4, r4, #20
1a0022ec:	f1c4 0520 	rsb	r5, r4, #32
1a0022f0:	fa00 f305 	lsl.w	r3, r0, r5
1a0022f4:	fa20 f004 	lsr.w	r0, r0, r4
1a0022f8:	fa01 f205 	lsl.w	r2, r1, r5
1a0022fc:	ea40 0002 	orr.w	r0, r0, r2
1a002300:	f001 4200 	and.w	r2, r1, #2147483648	; 0x80000000
1a002304:	f021 4100 	bic.w	r1, r1, #2147483648	; 0x80000000
1a002308:	eb10 70d3 	adds.w	r0, r0, r3, lsr #31
1a00230c:	fa21 f604 	lsr.w	r6, r1, r4
1a002310:	eb42 0106 	adc.w	r1, r2, r6
1a002314:	ea5e 0e43 	orrs.w	lr, lr, r3, lsl #1
1a002318:	bf08      	it	eq
1a00231a:	ea20 70d3 	biceq.w	r0, r0, r3, lsr #31
1a00231e:	bd70      	pop	{r4, r5, r6, pc}
1a002320:	f1c4 040c 	rsb	r4, r4, #12
1a002324:	f1c4 0520 	rsb	r5, r4, #32
1a002328:	fa00 f304 	lsl.w	r3, r0, r4
1a00232c:	fa20 f005 	lsr.w	r0, r0, r5
1a002330:	fa01 f204 	lsl.w	r2, r1, r4
1a002334:	ea40 0002 	orr.w	r0, r0, r2
1a002338:	f001 4100 	and.w	r1, r1, #2147483648	; 0x80000000
1a00233c:	eb10 70d3 	adds.w	r0, r0, r3, lsr #31
1a002340:	f141 0100 	adc.w	r1, r1, #0
1a002344:	ea5e 0e43 	orrs.w	lr, lr, r3, lsl #1
1a002348:	bf08      	it	eq
1a00234a:	ea20 70d3 	biceq.w	r0, r0, r3, lsr #31
1a00234e:	bd70      	pop	{r4, r5, r6, pc}
1a002350:	f1c4 0520 	rsb	r5, r4, #32
1a002354:	fa00 f205 	lsl.w	r2, r0, r5
1a002358:	ea4e 0e02 	orr.w	lr, lr, r2
1a00235c:	fa20 f304 	lsr.w	r3, r0, r4
1a002360:	fa01 f205 	lsl.w	r2, r1, r5
1a002364:	ea43 0302 	orr.w	r3, r3, r2
1a002368:	fa21 f004 	lsr.w	r0, r1, r4
1a00236c:	f001 4100 	and.w	r1, r1, #2147483648	; 0x80000000
1a002370:	fa21 f204 	lsr.w	r2, r1, r4
1a002374:	ea20 0002 	bic.w	r0, r0, r2
1a002378:	eb00 70d3 	add.w	r0, r0, r3, lsr #31
1a00237c:	ea5e 0e43 	orrs.w	lr, lr, r3, lsl #1
1a002380:	bf08      	it	eq
1a002382:	ea20 70d3 	biceq.w	r0, r0, r3, lsr #31
1a002386:	bd70      	pop	{r4, r5, r6, pc}
1a002388:	f094 0f00 	teq	r4, #0
1a00238c:	d10f      	bne.n	1a0023ae <__aeabi_dmul+0x1c2>
1a00238e:	f001 4600 	and.w	r6, r1, #2147483648	; 0x80000000
1a002392:	0040      	lsls	r0, r0, #1
1a002394:	eb41 0101 	adc.w	r1, r1, r1
1a002398:	f411 1f80 	tst.w	r1, #1048576	; 0x100000
1a00239c:	bf08      	it	eq
1a00239e:	3c01      	subeq	r4, #1
1a0023a0:	d0f7      	beq.n	1a002392 <__aeabi_dmul+0x1a6>
1a0023a2:	ea41 0106 	orr.w	r1, r1, r6
1a0023a6:	f095 0f00 	teq	r5, #0
1a0023aa:	bf18      	it	ne
1a0023ac:	4770      	bxne	lr
1a0023ae:	f003 4600 	and.w	r6, r3, #2147483648	; 0x80000000
1a0023b2:	0052      	lsls	r2, r2, #1
1a0023b4:	eb43 0303 	adc.w	r3, r3, r3
1a0023b8:	f413 1f80 	tst.w	r3, #1048576	; 0x100000
1a0023bc:	bf08      	it	eq
1a0023be:	3d01      	subeq	r5, #1
1a0023c0:	d0f7      	beq.n	1a0023b2 <__aeabi_dmul+0x1c6>
1a0023c2:	ea43 0306 	orr.w	r3, r3, r6
1a0023c6:	4770      	bx	lr
1a0023c8:	ea94 0f0c 	teq	r4, ip
1a0023cc:	ea0c 5513 	and.w	r5, ip, r3, lsr #20
1a0023d0:	bf18      	it	ne
1a0023d2:	ea95 0f0c 	teqne	r5, ip
1a0023d6:	d00c      	beq.n	1a0023f2 <__aeabi_dmul+0x206>
1a0023d8:	ea50 0641 	orrs.w	r6, r0, r1, lsl #1
1a0023dc:	bf18      	it	ne
1a0023de:	ea52 0643 	orrsne.w	r6, r2, r3, lsl #1
1a0023e2:	d1d1      	bne.n	1a002388 <__aeabi_dmul+0x19c>
1a0023e4:	ea81 0103 	eor.w	r1, r1, r3
1a0023e8:	f001 4100 	and.w	r1, r1, #2147483648	; 0x80000000
1a0023ec:	f04f 0000 	mov.w	r0, #0
1a0023f0:	bd70      	pop	{r4, r5, r6, pc}
1a0023f2:	ea50 0641 	orrs.w	r6, r0, r1, lsl #1
1a0023f6:	bf06      	itte	eq
1a0023f8:	4610      	moveq	r0, r2
1a0023fa:	4619      	moveq	r1, r3
1a0023fc:	ea52 0643 	orrsne.w	r6, r2, r3, lsl #1
1a002400:	d019      	beq.n	1a002436 <__aeabi_dmul+0x24a>
1a002402:	ea94 0f0c 	teq	r4, ip
1a002406:	d102      	bne.n	1a00240e <__aeabi_dmul+0x222>
1a002408:	ea50 3601 	orrs.w	r6, r0, r1, lsl #12
1a00240c:	d113      	bne.n	1a002436 <__aeabi_dmul+0x24a>
1a00240e:	ea95 0f0c 	teq	r5, ip
1a002412:	d105      	bne.n	1a002420 <__aeabi_dmul+0x234>
1a002414:	ea52 3603 	orrs.w	r6, r2, r3, lsl #12
1a002418:	bf1c      	itt	ne
1a00241a:	4610      	movne	r0, r2
1a00241c:	4619      	movne	r1, r3
1a00241e:	d10a      	bne.n	1a002436 <__aeabi_dmul+0x24a>
1a002420:	ea81 0103 	eor.w	r1, r1, r3
1a002424:	f001 4100 	and.w	r1, r1, #2147483648	; 0x80000000
1a002428:	f041 41fe 	orr.w	r1, r1, #2130706432	; 0x7f000000
1a00242c:	f441 0170 	orr.w	r1, r1, #15728640	; 0xf00000
1a002430:	f04f 0000 	mov.w	r0, #0
1a002434:	bd70      	pop	{r4, r5, r6, pc}
1a002436:	f041 41fe 	orr.w	r1, r1, #2130706432	; 0x7f000000
1a00243a:	f441 0178 	orr.w	r1, r1, #16252928	; 0xf80000
1a00243e:	bd70      	pop	{r4, r5, r6, pc}

1a002440 <__aeabi_ddiv>:
1a002440:	b570      	push	{r4, r5, r6, lr}
1a002442:	f04f 0cff 	mov.w	ip, #255	; 0xff
1a002446:	f44c 6ce0 	orr.w	ip, ip, #1792	; 0x700
1a00244a:	ea1c 5411 	ands.w	r4, ip, r1, lsr #20
1a00244e:	bf1d      	ittte	ne
1a002450:	ea1c 5513 	andsne.w	r5, ip, r3, lsr #20
1a002454:	ea94 0f0c 	teqne	r4, ip
1a002458:	ea95 0f0c 	teqne	r5, ip
1a00245c:	f000 f8a7 	bleq	1a0025ae <__aeabi_ddiv+0x16e>
1a002460:	eba4 0405 	sub.w	r4, r4, r5
1a002464:	ea81 0e03 	eor.w	lr, r1, r3
1a002468:	ea52 3503 	orrs.w	r5, r2, r3, lsl #12
1a00246c:	ea4f 3101 	mov.w	r1, r1, lsl #12
1a002470:	f000 8088 	beq.w	1a002584 <__aeabi_ddiv+0x144>
1a002474:	ea4f 3303 	mov.w	r3, r3, lsl #12
1a002478:	f04f 5580 	mov.w	r5, #268435456	; 0x10000000
1a00247c:	ea45 1313 	orr.w	r3, r5, r3, lsr #4
1a002480:	ea43 6312 	orr.w	r3, r3, r2, lsr #24
1a002484:	ea4f 2202 	mov.w	r2, r2, lsl #8
1a002488:	ea45 1511 	orr.w	r5, r5, r1, lsr #4
1a00248c:	ea45 6510 	orr.w	r5, r5, r0, lsr #24
1a002490:	ea4f 2600 	mov.w	r6, r0, lsl #8
1a002494:	f00e 4100 	and.w	r1, lr, #2147483648	; 0x80000000
1a002498:	429d      	cmp	r5, r3
1a00249a:	bf08      	it	eq
1a00249c:	4296      	cmpeq	r6, r2
1a00249e:	f144 04fd 	adc.w	r4, r4, #253	; 0xfd
1a0024a2:	f504 7440 	add.w	r4, r4, #768	; 0x300
1a0024a6:	d202      	bcs.n	1a0024ae <__aeabi_ddiv+0x6e>
1a0024a8:	085b      	lsrs	r3, r3, #1
1a0024aa:	ea4f 0232 	mov.w	r2, r2, rrx
1a0024ae:	1ab6      	subs	r6, r6, r2
1a0024b0:	eb65 0503 	sbc.w	r5, r5, r3
1a0024b4:	085b      	lsrs	r3, r3, #1
1a0024b6:	ea4f 0232 	mov.w	r2, r2, rrx
1a0024ba:	f44f 1080 	mov.w	r0, #1048576	; 0x100000
1a0024be:	f44f 2c00 	mov.w	ip, #524288	; 0x80000
1a0024c2:	ebb6 0e02 	subs.w	lr, r6, r2
1a0024c6:	eb75 0e03 	sbcs.w	lr, r5, r3
1a0024ca:	bf22      	ittt	cs
1a0024cc:	1ab6      	subcs	r6, r6, r2
1a0024ce:	4675      	movcs	r5, lr
1a0024d0:	ea40 000c 	orrcs.w	r0, r0, ip
1a0024d4:	085b      	lsrs	r3, r3, #1
1a0024d6:	ea4f 0232 	mov.w	r2, r2, rrx
1a0024da:	ebb6 0e02 	subs.w	lr, r6, r2
1a0024de:	eb75 0e03 	sbcs.w	lr, r5, r3
1a0024e2:	bf22      	ittt	cs
1a0024e4:	1ab6      	subcs	r6, r6, r2
1a0024e6:	4675      	movcs	r5, lr
1a0024e8:	ea40 005c 	orrcs.w	r0, r0, ip, lsr #1
1a0024ec:	085b      	lsrs	r3, r3, #1
1a0024ee:	ea4f 0232 	mov.w	r2, r2, rrx
1a0024f2:	ebb6 0e02 	subs.w	lr, r6, r2
1a0024f6:	eb75 0e03 	sbcs.w	lr, r5, r3
1a0024fa:	bf22      	ittt	cs
1a0024fc:	1ab6      	subcs	r6, r6, r2
1a0024fe:	4675      	movcs	r5, lr
1a002500:	ea40 009c 	orrcs.w	r0, r0, ip, lsr #2
1a002504:	085b      	lsrs	r3, r3, #1
1a002506:	ea4f 0232 	mov.w	r2, r2, rrx
1a00250a:	ebb6 0e02 	subs.w	lr, r6, r2
1a00250e:	eb75 0e03 	sbcs.w	lr, r5, r3
1a002512:	bf22      	ittt	cs
1a002514:	1ab6      	subcs	r6, r6, r2
1a002516:	4675      	movcs	r5, lr
1a002518:	ea40 00dc 	orrcs.w	r0, r0, ip, lsr #3
1a00251c:	ea55 0e06 	orrs.w	lr, r5, r6
1a002520:	d018      	beq.n	1a002554 <__aeabi_ddiv+0x114>
1a002522:	ea4f 1505 	mov.w	r5, r5, lsl #4
1a002526:	ea45 7516 	orr.w	r5, r5, r6, lsr #28
1a00252a:	ea4f 1606 	mov.w	r6, r6, lsl #4
1a00252e:	ea4f 03c3 	mov.w	r3, r3, lsl #3
1a002532:	ea43 7352 	orr.w	r3, r3, r2, lsr #29
1a002536:	ea4f 02c2 	mov.w	r2, r2, lsl #3
1a00253a:	ea5f 1c1c 	movs.w	ip, ip, lsr #4
1a00253e:	d1c0      	bne.n	1a0024c2 <__aeabi_ddiv+0x82>
1a002540:	f411 1f80 	tst.w	r1, #1048576	; 0x100000
1a002544:	d10b      	bne.n	1a00255e <__aeabi_ddiv+0x11e>
1a002546:	ea41 0100 	orr.w	r1, r1, r0
1a00254a:	f04f 0000 	mov.w	r0, #0
1a00254e:	f04f 4c00 	mov.w	ip, #2147483648	; 0x80000000
1a002552:	e7b6      	b.n	1a0024c2 <__aeabi_ddiv+0x82>
1a002554:	f411 1f80 	tst.w	r1, #1048576	; 0x100000
1a002558:	bf04      	itt	eq
1a00255a:	4301      	orreq	r1, r0
1a00255c:	2000      	moveq	r0, #0
1a00255e:	f1b4 0cfd 	subs.w	ip, r4, #253	; 0xfd
1a002562:	bf88      	it	hi
1a002564:	f5bc 6fe0 	cmphi.w	ip, #1792	; 0x700
1a002568:	f63f aeaf 	bhi.w	1a0022ca <__aeabi_dmul+0xde>
1a00256c:	ebb5 0c03 	subs.w	ip, r5, r3
1a002570:	bf04      	itt	eq
1a002572:	ebb6 0c02 	subseq.w	ip, r6, r2
1a002576:	ea5f 0c50 	movseq.w	ip, r0, lsr #1
1a00257a:	f150 0000 	adcs.w	r0, r0, #0
1a00257e:	eb41 5104 	adc.w	r1, r1, r4, lsl #20
1a002582:	bd70      	pop	{r4, r5, r6, pc}
1a002584:	f00e 4e00 	and.w	lr, lr, #2147483648	; 0x80000000
1a002588:	ea4e 3111 	orr.w	r1, lr, r1, lsr #12
1a00258c:	eb14 045c 	adds.w	r4, r4, ip, lsr #1
1a002590:	bfc2      	ittt	gt
1a002592:	ebd4 050c 	rsbsgt	r5, r4, ip
1a002596:	ea41 5104 	orrgt.w	r1, r1, r4, lsl #20
1a00259a:	bd70      	popgt	{r4, r5, r6, pc}
1a00259c:	f441 1180 	orr.w	r1, r1, #1048576	; 0x100000
1a0025a0:	f04f 0e00 	mov.w	lr, #0
1a0025a4:	3c01      	subs	r4, #1
1a0025a6:	e690      	b.n	1a0022ca <__aeabi_dmul+0xde>
1a0025a8:	ea45 0e06 	orr.w	lr, r5, r6
1a0025ac:	e68d      	b.n	1a0022ca <__aeabi_dmul+0xde>
1a0025ae:	ea0c 5513 	and.w	r5, ip, r3, lsr #20
1a0025b2:	ea94 0f0c 	teq	r4, ip
1a0025b6:	bf08      	it	eq
1a0025b8:	ea95 0f0c 	teqeq	r5, ip
1a0025bc:	f43f af3b 	beq.w	1a002436 <__aeabi_dmul+0x24a>
1a0025c0:	ea94 0f0c 	teq	r4, ip
1a0025c4:	d10a      	bne.n	1a0025dc <__aeabi_ddiv+0x19c>
1a0025c6:	ea50 3401 	orrs.w	r4, r0, r1, lsl #12
1a0025ca:	f47f af34 	bne.w	1a002436 <__aeabi_dmul+0x24a>
1a0025ce:	ea95 0f0c 	teq	r5, ip
1a0025d2:	f47f af25 	bne.w	1a002420 <__aeabi_dmul+0x234>
1a0025d6:	4610      	mov	r0, r2
1a0025d8:	4619      	mov	r1, r3
1a0025da:	e72c      	b.n	1a002436 <__aeabi_dmul+0x24a>
1a0025dc:	ea95 0f0c 	teq	r5, ip
1a0025e0:	d106      	bne.n	1a0025f0 <__aeabi_ddiv+0x1b0>
1a0025e2:	ea52 3503 	orrs.w	r5, r2, r3, lsl #12
1a0025e6:	f43f aefd 	beq.w	1a0023e4 <__aeabi_dmul+0x1f8>
1a0025ea:	4610      	mov	r0, r2
1a0025ec:	4619      	mov	r1, r3
1a0025ee:	e722      	b.n	1a002436 <__aeabi_dmul+0x24a>
1a0025f0:	ea50 0641 	orrs.w	r6, r0, r1, lsl #1
1a0025f4:	bf18      	it	ne
1a0025f6:	ea52 0643 	orrsne.w	r6, r2, r3, lsl #1
1a0025fa:	f47f aec5 	bne.w	1a002388 <__aeabi_dmul+0x19c>
1a0025fe:	ea50 0441 	orrs.w	r4, r0, r1, lsl #1
1a002602:	f47f af0d 	bne.w	1a002420 <__aeabi_dmul+0x234>
1a002606:	ea52 0543 	orrs.w	r5, r2, r3, lsl #1
1a00260a:	f47f aeeb 	bne.w	1a0023e4 <__aeabi_dmul+0x1f8>
1a00260e:	e712      	b.n	1a002436 <__aeabi_dmul+0x24a>

1a002610 <__gedf2>:
1a002610:	f04f 3cff 	mov.w	ip, #4294967295	; 0xffffffff
1a002614:	e006      	b.n	1a002624 <__cmpdf2+0x4>
1a002616:	bf00      	nop

1a002618 <__ledf2>:
1a002618:	f04f 0c01 	mov.w	ip, #1
1a00261c:	e002      	b.n	1a002624 <__cmpdf2+0x4>
1a00261e:	bf00      	nop

1a002620 <__cmpdf2>:
1a002620:	f04f 0c01 	mov.w	ip, #1
1a002624:	f84d cd04 	str.w	ip, [sp, #-4]!
1a002628:	ea4f 0c41 	mov.w	ip, r1, lsl #1
1a00262c:	ea7f 5c6c 	mvns.w	ip, ip, asr #21
1a002630:	ea4f 0c43 	mov.w	ip, r3, lsl #1
1a002634:	bf18      	it	ne
1a002636:	ea7f 5c6c 	mvnsne.w	ip, ip, asr #21
1a00263a:	d01b      	beq.n	1a002674 <__cmpdf2+0x54>
1a00263c:	b001      	add	sp, #4
1a00263e:	ea50 0c41 	orrs.w	ip, r0, r1, lsl #1
1a002642:	bf0c      	ite	eq
1a002644:	ea52 0c43 	orrseq.w	ip, r2, r3, lsl #1
1a002648:	ea91 0f03 	teqne	r1, r3
1a00264c:	bf02      	ittt	eq
1a00264e:	ea90 0f02 	teqeq	r0, r2
1a002652:	2000      	moveq	r0, #0
1a002654:	4770      	bxeq	lr
1a002656:	f110 0f00 	cmn.w	r0, #0
1a00265a:	ea91 0f03 	teq	r1, r3
1a00265e:	bf58      	it	pl
1a002660:	4299      	cmppl	r1, r3
1a002662:	bf08      	it	eq
1a002664:	4290      	cmpeq	r0, r2
1a002666:	bf2c      	ite	cs
1a002668:	17d8      	asrcs	r0, r3, #31
1a00266a:	ea6f 70e3 	mvncc.w	r0, r3, asr #31
1a00266e:	f040 0001 	orr.w	r0, r0, #1
1a002672:	4770      	bx	lr
1a002674:	ea4f 0c41 	mov.w	ip, r1, lsl #1
1a002678:	ea7f 5c6c 	mvns.w	ip, ip, asr #21
1a00267c:	d102      	bne.n	1a002684 <__cmpdf2+0x64>
1a00267e:	ea50 3c01 	orrs.w	ip, r0, r1, lsl #12
1a002682:	d107      	bne.n	1a002694 <__cmpdf2+0x74>
1a002684:	ea4f 0c43 	mov.w	ip, r3, lsl #1
1a002688:	ea7f 5c6c 	mvns.w	ip, ip, asr #21
1a00268c:	d1d6      	bne.n	1a00263c <__cmpdf2+0x1c>
1a00268e:	ea52 3c03 	orrs.w	ip, r2, r3, lsl #12
1a002692:	d0d3      	beq.n	1a00263c <__cmpdf2+0x1c>
1a002694:	f85d 0b04 	ldr.w	r0, [sp], #4
1a002698:	4770      	bx	lr
1a00269a:	bf00      	nop

1a00269c <__aeabi_cdrcmple>:
1a00269c:	4684      	mov	ip, r0
1a00269e:	4610      	mov	r0, r2
1a0026a0:	4662      	mov	r2, ip
1a0026a2:	468c      	mov	ip, r1
1a0026a4:	4619      	mov	r1, r3
1a0026a6:	4663      	mov	r3, ip
1a0026a8:	e000      	b.n	1a0026ac <__aeabi_cdcmpeq>
1a0026aa:	bf00      	nop

1a0026ac <__aeabi_cdcmpeq>:
1a0026ac:	b501      	push	{r0, lr}
1a0026ae:	f7ff ffb7 	bl	1a002620 <__cmpdf2>
1a0026b2:	2800      	cmp	r0, #0
1a0026b4:	bf48      	it	mi
1a0026b6:	f110 0f00 	cmnmi.w	r0, #0
1a0026ba:	bd01      	pop	{r0, pc}

1a0026bc <__aeabi_dcmpeq>:
1a0026bc:	f84d ed08 	str.w	lr, [sp, #-8]!
1a0026c0:	f7ff fff4 	bl	1a0026ac <__aeabi_cdcmpeq>
1a0026c4:	bf0c      	ite	eq
1a0026c6:	2001      	moveq	r0, #1
1a0026c8:	2000      	movne	r0, #0
1a0026ca:	f85d fb08 	ldr.w	pc, [sp], #8
1a0026ce:	bf00      	nop

1a0026d0 <__aeabi_dcmplt>:
1a0026d0:	f84d ed08 	str.w	lr, [sp, #-8]!
1a0026d4:	f7ff ffea 	bl	1a0026ac <__aeabi_cdcmpeq>
1a0026d8:	bf34      	ite	cc
1a0026da:	2001      	movcc	r0, #1
1a0026dc:	2000      	movcs	r0, #0
1a0026de:	f85d fb08 	ldr.w	pc, [sp], #8
1a0026e2:	bf00      	nop

1a0026e4 <__aeabi_dcmple>:
1a0026e4:	f84d ed08 	str.w	lr, [sp, #-8]!
1a0026e8:	f7ff ffe0 	bl	1a0026ac <__aeabi_cdcmpeq>
1a0026ec:	bf94      	ite	ls
1a0026ee:	2001      	movls	r0, #1
1a0026f0:	2000      	movhi	r0, #0
1a0026f2:	f85d fb08 	ldr.w	pc, [sp], #8
1a0026f6:	bf00      	nop

1a0026f8 <__aeabi_dcmpge>:
1a0026f8:	f84d ed08 	str.w	lr, [sp, #-8]!
1a0026fc:	f7ff ffce 	bl	1a00269c <__aeabi_cdrcmple>
1a002700:	bf94      	ite	ls
1a002702:	2001      	movls	r0, #1
1a002704:	2000      	movhi	r0, #0
1a002706:	f85d fb08 	ldr.w	pc, [sp], #8
1a00270a:	bf00      	nop

1a00270c <__aeabi_dcmpgt>:
1a00270c:	f84d ed08 	str.w	lr, [sp, #-8]!
1a002710:	f7ff ffc4 	bl	1a00269c <__aeabi_cdrcmple>
1a002714:	bf34      	ite	cc
1a002716:	2001      	movcc	r0, #1
1a002718:	2000      	movcs	r0, #0
1a00271a:	f85d fb08 	ldr.w	pc, [sp], #8
1a00271e:	bf00      	nop

1a002720 <__aeabi_d2f>:
1a002720:	ea4f 0241 	mov.w	r2, r1, lsl #1
1a002724:	f1b2 43e0 	subs.w	r3, r2, #1879048192	; 0x70000000
1a002728:	bf24      	itt	cs
1a00272a:	f5b3 1c00 	subscs.w	ip, r3, #2097152	; 0x200000
1a00272e:	f1dc 5cfe 	rsbscs	ip, ip, #532676608	; 0x1fc00000
1a002732:	d90d      	bls.n	1a002750 <__aeabi_d2f+0x30>
1a002734:	f001 4c00 	and.w	ip, r1, #2147483648	; 0x80000000
1a002738:	ea4f 02c0 	mov.w	r2, r0, lsl #3
1a00273c:	ea4c 7050 	orr.w	r0, ip, r0, lsr #29
1a002740:	f1b2 4f00 	cmp.w	r2, #2147483648	; 0x80000000
1a002744:	eb40 0083 	adc.w	r0, r0, r3, lsl #2
1a002748:	bf08      	it	eq
1a00274a:	f020 0001 	biceq.w	r0, r0, #1
1a00274e:	4770      	bx	lr
1a002750:	f011 4f80 	tst.w	r1, #1073741824	; 0x40000000
1a002754:	d121      	bne.n	1a00279a <__aeabi_d2f+0x7a>
1a002756:	f113 7238 	adds.w	r2, r3, #48234496	; 0x2e00000
1a00275a:	bfbc      	itt	lt
1a00275c:	f001 4000 	andlt.w	r0, r1, #2147483648	; 0x80000000
1a002760:	4770      	bxlt	lr
1a002762:	f441 1180 	orr.w	r1, r1, #1048576	; 0x100000
1a002766:	ea4f 5252 	mov.w	r2, r2, lsr #21
1a00276a:	f1c2 0218 	rsb	r2, r2, #24
1a00276e:	f1c2 0c20 	rsb	ip, r2, #32
1a002772:	fa10 f30c 	lsls.w	r3, r0, ip
1a002776:	fa20 f002 	lsr.w	r0, r0, r2
1a00277a:	bf18      	it	ne
1a00277c:	f040 0001 	orrne.w	r0, r0, #1
1a002780:	ea4f 23c1 	mov.w	r3, r1, lsl #11
1a002784:	ea4f 23d3 	mov.w	r3, r3, lsr #11
1a002788:	fa03 fc0c 	lsl.w	ip, r3, ip
1a00278c:	ea40 000c 	orr.w	r0, r0, ip
1a002790:	fa23 f302 	lsr.w	r3, r3, r2
1a002794:	ea4f 0343 	mov.w	r3, r3, lsl #1
1a002798:	e7cc      	b.n	1a002734 <__aeabi_d2f+0x14>
1a00279a:	ea7f 5362 	mvns.w	r3, r2, asr #21
1a00279e:	d107      	bne.n	1a0027b0 <__aeabi_d2f+0x90>
1a0027a0:	ea50 3301 	orrs.w	r3, r0, r1, lsl #12
1a0027a4:	bf1e      	ittt	ne
1a0027a6:	f04f 40fe 	movne.w	r0, #2130706432	; 0x7f000000
1a0027aa:	f440 0040 	orrne.w	r0, r0, #12582912	; 0xc00000
1a0027ae:	4770      	bxne	lr
1a0027b0:	f001 4000 	and.w	r0, r1, #2147483648	; 0x80000000
1a0027b4:	f040 40fe 	orr.w	r0, r0, #2130706432	; 0x7f000000
1a0027b8:	f440 0000 	orr.w	r0, r0, #8388608	; 0x800000
1a0027bc:	4770      	bx	lr
1a0027be:	bf00      	nop

1a0027c0 <__aeabi_uldivmod>:
1a0027c0:	b953      	cbnz	r3, 1a0027d8 <__aeabi_uldivmod+0x18>
1a0027c2:	b94a      	cbnz	r2, 1a0027d8 <__aeabi_uldivmod+0x18>
1a0027c4:	2900      	cmp	r1, #0
1a0027c6:	bf08      	it	eq
1a0027c8:	2800      	cmpeq	r0, #0
1a0027ca:	bf1c      	itt	ne
1a0027cc:	f04f 31ff 	movne.w	r1, #4294967295	; 0xffffffff
1a0027d0:	f04f 30ff 	movne.w	r0, #4294967295	; 0xffffffff
1a0027d4:	f000 b972 	b.w	1a002abc <__aeabi_idiv0>
1a0027d8:	f1ad 0c08 	sub.w	ip, sp, #8
1a0027dc:	e96d ce04 	strd	ip, lr, [sp, #-16]!
1a0027e0:	f000 f806 	bl	1a0027f0 <__udivmoddi4>
1a0027e4:	f8dd e004 	ldr.w	lr, [sp, #4]
1a0027e8:	e9dd 2302 	ldrd	r2, r3, [sp, #8]
1a0027ec:	b004      	add	sp, #16
1a0027ee:	4770      	bx	lr

1a0027f0 <__udivmoddi4>:
1a0027f0:	e92d 47f0 	stmdb	sp!, {r4, r5, r6, r7, r8, r9, sl, lr}
1a0027f4:	9e08      	ldr	r6, [sp, #32]
1a0027f6:	4604      	mov	r4, r0
1a0027f8:	4688      	mov	r8, r1
1a0027fa:	2b00      	cmp	r3, #0
1a0027fc:	d14b      	bne.n	1a002896 <__udivmoddi4+0xa6>
1a0027fe:	428a      	cmp	r2, r1
1a002800:	4615      	mov	r5, r2
1a002802:	d967      	bls.n	1a0028d4 <__udivmoddi4+0xe4>
1a002804:	fab2 f282 	clz	r2, r2
1a002808:	b14a      	cbz	r2, 1a00281e <__udivmoddi4+0x2e>
1a00280a:	f1c2 0720 	rsb	r7, r2, #32
1a00280e:	fa01 f302 	lsl.w	r3, r1, r2
1a002812:	fa20 f707 	lsr.w	r7, r0, r7
1a002816:	4095      	lsls	r5, r2
1a002818:	ea47 0803 	orr.w	r8, r7, r3
1a00281c:	4094      	lsls	r4, r2
1a00281e:	ea4f 4e15 	mov.w	lr, r5, lsr #16
1a002822:	0c23      	lsrs	r3, r4, #16
1a002824:	fbb8 f7fe 	udiv	r7, r8, lr
1a002828:	fa1f fc85 	uxth.w	ip, r5
1a00282c:	fb0e 8817 	mls	r8, lr, r7, r8
1a002830:	ea43 4308 	orr.w	r3, r3, r8, lsl #16
1a002834:	fb07 f10c 	mul.w	r1, r7, ip
1a002838:	4299      	cmp	r1, r3
1a00283a:	d909      	bls.n	1a002850 <__udivmoddi4+0x60>
1a00283c:	18eb      	adds	r3, r5, r3
1a00283e:	f107 30ff 	add.w	r0, r7, #4294967295	; 0xffffffff
1a002842:	f080 811b 	bcs.w	1a002a7c <__udivmoddi4+0x28c>
1a002846:	4299      	cmp	r1, r3
1a002848:	f240 8118 	bls.w	1a002a7c <__udivmoddi4+0x28c>
1a00284c:	3f02      	subs	r7, #2
1a00284e:	442b      	add	r3, r5
1a002850:	1a5b      	subs	r3, r3, r1
1a002852:	b2a4      	uxth	r4, r4
1a002854:	fbb3 f0fe 	udiv	r0, r3, lr
1a002858:	fb0e 3310 	mls	r3, lr, r0, r3
1a00285c:	ea44 4403 	orr.w	r4, r4, r3, lsl #16
1a002860:	fb00 fc0c 	mul.w	ip, r0, ip
1a002864:	45a4      	cmp	ip, r4
1a002866:	d909      	bls.n	1a00287c <__udivmoddi4+0x8c>
1a002868:	192c      	adds	r4, r5, r4
1a00286a:	f100 33ff 	add.w	r3, r0, #4294967295	; 0xffffffff
1a00286e:	f080 8107 	bcs.w	1a002a80 <__udivmoddi4+0x290>
1a002872:	45a4      	cmp	ip, r4
1a002874:	f240 8104 	bls.w	1a002a80 <__udivmoddi4+0x290>
1a002878:	3802      	subs	r0, #2
1a00287a:	442c      	add	r4, r5
1a00287c:	ea40 4007 	orr.w	r0, r0, r7, lsl #16
1a002880:	eba4 040c 	sub.w	r4, r4, ip
1a002884:	2700      	movs	r7, #0
1a002886:	b11e      	cbz	r6, 1a002890 <__udivmoddi4+0xa0>
1a002888:	40d4      	lsrs	r4, r2
1a00288a:	2300      	movs	r3, #0
1a00288c:	e9c6 4300 	strd	r4, r3, [r6]
1a002890:	4639      	mov	r1, r7
1a002892:	e8bd 87f0 	ldmia.w	sp!, {r4, r5, r6, r7, r8, r9, sl, pc}
1a002896:	428b      	cmp	r3, r1
1a002898:	d909      	bls.n	1a0028ae <__udivmoddi4+0xbe>
1a00289a:	2e00      	cmp	r6, #0
1a00289c:	f000 80eb 	beq.w	1a002a76 <__udivmoddi4+0x286>
1a0028a0:	2700      	movs	r7, #0
1a0028a2:	e9c6 0100 	strd	r0, r1, [r6]
1a0028a6:	4638      	mov	r0, r7
1a0028a8:	4639      	mov	r1, r7
1a0028aa:	e8bd 87f0 	ldmia.w	sp!, {r4, r5, r6, r7, r8, r9, sl, pc}
1a0028ae:	fab3 f783 	clz	r7, r3
1a0028b2:	2f00      	cmp	r7, #0
1a0028b4:	d147      	bne.n	1a002946 <__udivmoddi4+0x156>
1a0028b6:	428b      	cmp	r3, r1
1a0028b8:	d302      	bcc.n	1a0028c0 <__udivmoddi4+0xd0>
1a0028ba:	4282      	cmp	r2, r0
1a0028bc:	f200 80fa 	bhi.w	1a002ab4 <__udivmoddi4+0x2c4>
1a0028c0:	1a84      	subs	r4, r0, r2
1a0028c2:	eb61 0303 	sbc.w	r3, r1, r3
1a0028c6:	2001      	movs	r0, #1
1a0028c8:	4698      	mov	r8, r3
1a0028ca:	2e00      	cmp	r6, #0
1a0028cc:	d0e0      	beq.n	1a002890 <__udivmoddi4+0xa0>
1a0028ce:	e9c6 4800 	strd	r4, r8, [r6]
1a0028d2:	e7dd      	b.n	1a002890 <__udivmoddi4+0xa0>
1a0028d4:	b902      	cbnz	r2, 1a0028d8 <__udivmoddi4+0xe8>
1a0028d6:	deff      	udf	#255	; 0xff
1a0028d8:	fab2 f282 	clz	r2, r2
1a0028dc:	2a00      	cmp	r2, #0
1a0028de:	f040 808f 	bne.w	1a002a00 <__udivmoddi4+0x210>
1a0028e2:	1b49      	subs	r1, r1, r5
1a0028e4:	ea4f 4e15 	mov.w	lr, r5, lsr #16
1a0028e8:	fa1f f885 	uxth.w	r8, r5
1a0028ec:	2701      	movs	r7, #1
1a0028ee:	fbb1 fcfe 	udiv	ip, r1, lr
1a0028f2:	0c23      	lsrs	r3, r4, #16
1a0028f4:	fb0e 111c 	mls	r1, lr, ip, r1
1a0028f8:	ea43 4301 	orr.w	r3, r3, r1, lsl #16
1a0028fc:	fb08 f10c 	mul.w	r1, r8, ip
1a002900:	4299      	cmp	r1, r3
1a002902:	d907      	bls.n	1a002914 <__udivmoddi4+0x124>
1a002904:	18eb      	adds	r3, r5, r3
1a002906:	f10c 30ff 	add.w	r0, ip, #4294967295	; 0xffffffff
1a00290a:	d202      	bcs.n	1a002912 <__udivmoddi4+0x122>
1a00290c:	4299      	cmp	r1, r3
1a00290e:	f200 80cd 	bhi.w	1a002aac <__udivmoddi4+0x2bc>
1a002912:	4684      	mov	ip, r0
1a002914:	1a59      	subs	r1, r3, r1
1a002916:	b2a3      	uxth	r3, r4
1a002918:	fbb1 f0fe 	udiv	r0, r1, lr
1a00291c:	fb0e 1410 	mls	r4, lr, r0, r1
1a002920:	ea43 4404 	orr.w	r4, r3, r4, lsl #16
1a002924:	fb08 f800 	mul.w	r8, r8, r0
1a002928:	45a0      	cmp	r8, r4
1a00292a:	d907      	bls.n	1a00293c <__udivmoddi4+0x14c>
1a00292c:	192c      	adds	r4, r5, r4
1a00292e:	f100 33ff 	add.w	r3, r0, #4294967295	; 0xffffffff
1a002932:	d202      	bcs.n	1a00293a <__udivmoddi4+0x14a>
1a002934:	45a0      	cmp	r8, r4
1a002936:	f200 80b6 	bhi.w	1a002aa6 <__udivmoddi4+0x2b6>
1a00293a:	4618      	mov	r0, r3
1a00293c:	eba4 0408 	sub.w	r4, r4, r8
1a002940:	ea40 400c 	orr.w	r0, r0, ip, lsl #16
1a002944:	e79f      	b.n	1a002886 <__udivmoddi4+0x96>
1a002946:	f1c7 0c20 	rsb	ip, r7, #32
1a00294a:	40bb      	lsls	r3, r7
1a00294c:	fa22 fe0c 	lsr.w	lr, r2, ip
1a002950:	ea4e 0e03 	orr.w	lr, lr, r3
1a002954:	fa01 f407 	lsl.w	r4, r1, r7
1a002958:	fa20 f50c 	lsr.w	r5, r0, ip
1a00295c:	fa21 f30c 	lsr.w	r3, r1, ip
1a002960:	ea4f 481e 	mov.w	r8, lr, lsr #16
1a002964:	4325      	orrs	r5, r4
1a002966:	fbb3 f9f8 	udiv	r9, r3, r8
1a00296a:	0c2c      	lsrs	r4, r5, #16
1a00296c:	fb08 3319 	mls	r3, r8, r9, r3
1a002970:	fa1f fa8e 	uxth.w	sl, lr
1a002974:	ea44 4303 	orr.w	r3, r4, r3, lsl #16
1a002978:	fb09 f40a 	mul.w	r4, r9, sl
1a00297c:	429c      	cmp	r4, r3
1a00297e:	fa02 f207 	lsl.w	r2, r2, r7
1a002982:	fa00 f107 	lsl.w	r1, r0, r7
1a002986:	d90b      	bls.n	1a0029a0 <__udivmoddi4+0x1b0>
1a002988:	eb1e 0303 	adds.w	r3, lr, r3
1a00298c:	f109 30ff 	add.w	r0, r9, #4294967295	; 0xffffffff
1a002990:	f080 8087 	bcs.w	1a002aa2 <__udivmoddi4+0x2b2>
1a002994:	429c      	cmp	r4, r3
1a002996:	f240 8084 	bls.w	1a002aa2 <__udivmoddi4+0x2b2>
1a00299a:	f1a9 0902 	sub.w	r9, r9, #2
1a00299e:	4473      	add	r3, lr
1a0029a0:	1b1b      	subs	r3, r3, r4
1a0029a2:	b2ad      	uxth	r5, r5
1a0029a4:	fbb3 f0f8 	udiv	r0, r3, r8
1a0029a8:	fb08 3310 	mls	r3, r8, r0, r3
1a0029ac:	ea45 4403 	orr.w	r4, r5, r3, lsl #16
1a0029b0:	fb00 fa0a 	mul.w	sl, r0, sl
1a0029b4:	45a2      	cmp	sl, r4
1a0029b6:	d908      	bls.n	1a0029ca <__udivmoddi4+0x1da>
1a0029b8:	eb1e 0404 	adds.w	r4, lr, r4
1a0029bc:	f100 33ff 	add.w	r3, r0, #4294967295	; 0xffffffff
1a0029c0:	d26b      	bcs.n	1a002a9a <__udivmoddi4+0x2aa>
1a0029c2:	45a2      	cmp	sl, r4
1a0029c4:	d969      	bls.n	1a002a9a <__udivmoddi4+0x2aa>
1a0029c6:	3802      	subs	r0, #2
1a0029c8:	4474      	add	r4, lr
1a0029ca:	ea40 4009 	orr.w	r0, r0, r9, lsl #16
1a0029ce:	fba0 8902 	umull	r8, r9, r0, r2
1a0029d2:	eba4 040a 	sub.w	r4, r4, sl
1a0029d6:	454c      	cmp	r4, r9
1a0029d8:	46c2      	mov	sl, r8
1a0029da:	464b      	mov	r3, r9
1a0029dc:	d354      	bcc.n	1a002a88 <__udivmoddi4+0x298>
1a0029de:	d051      	beq.n	1a002a84 <__udivmoddi4+0x294>
1a0029e0:	2e00      	cmp	r6, #0
1a0029e2:	d069      	beq.n	1a002ab8 <__udivmoddi4+0x2c8>
1a0029e4:	ebb1 050a 	subs.w	r5, r1, sl
1a0029e8:	eb64 0403 	sbc.w	r4, r4, r3
1a0029ec:	fa04 fc0c 	lsl.w	ip, r4, ip
1a0029f0:	40fd      	lsrs	r5, r7
1a0029f2:	40fc      	lsrs	r4, r7
1a0029f4:	ea4c 0505 	orr.w	r5, ip, r5
1a0029f8:	e9c6 5400 	strd	r5, r4, [r6]
1a0029fc:	2700      	movs	r7, #0
1a0029fe:	e747      	b.n	1a002890 <__udivmoddi4+0xa0>
1a002a00:	f1c2 0320 	rsb	r3, r2, #32
1a002a04:	fa20 f703 	lsr.w	r7, r0, r3
1a002a08:	4095      	lsls	r5, r2
1a002a0a:	fa01 f002 	lsl.w	r0, r1, r2
1a002a0e:	fa21 f303 	lsr.w	r3, r1, r3
1a002a12:	ea4f 4e15 	mov.w	lr, r5, lsr #16
1a002a16:	4338      	orrs	r0, r7
1a002a18:	0c01      	lsrs	r1, r0, #16
1a002a1a:	fbb3 f7fe 	udiv	r7, r3, lr
1a002a1e:	fa1f f885 	uxth.w	r8, r5
1a002a22:	fb0e 3317 	mls	r3, lr, r7, r3
1a002a26:	ea41 4103 	orr.w	r1, r1, r3, lsl #16
1a002a2a:	fb07 f308 	mul.w	r3, r7, r8
1a002a2e:	428b      	cmp	r3, r1
1a002a30:	fa04 f402 	lsl.w	r4, r4, r2
1a002a34:	d907      	bls.n	1a002a46 <__udivmoddi4+0x256>
1a002a36:	1869      	adds	r1, r5, r1
1a002a38:	f107 3cff 	add.w	ip, r7, #4294967295	; 0xffffffff
1a002a3c:	d22f      	bcs.n	1a002a9e <__udivmoddi4+0x2ae>
1a002a3e:	428b      	cmp	r3, r1
1a002a40:	d92d      	bls.n	1a002a9e <__udivmoddi4+0x2ae>
1a002a42:	3f02      	subs	r7, #2
1a002a44:	4429      	add	r1, r5
1a002a46:	1acb      	subs	r3, r1, r3
1a002a48:	b281      	uxth	r1, r0
1a002a4a:	fbb3 f0fe 	udiv	r0, r3, lr
1a002a4e:	fb0e 3310 	mls	r3, lr, r0, r3
1a002a52:	ea41 4103 	orr.w	r1, r1, r3, lsl #16
1a002a56:	fb00 f308 	mul.w	r3, r0, r8
1a002a5a:	428b      	cmp	r3, r1
1a002a5c:	d907      	bls.n	1a002a6e <__udivmoddi4+0x27e>
1a002a5e:	1869      	adds	r1, r5, r1
1a002a60:	f100 3cff 	add.w	ip, r0, #4294967295	; 0xffffffff
1a002a64:	d217      	bcs.n	1a002a96 <__udivmoddi4+0x2a6>
1a002a66:	428b      	cmp	r3, r1
1a002a68:	d915      	bls.n	1a002a96 <__udivmoddi4+0x2a6>
1a002a6a:	3802      	subs	r0, #2
1a002a6c:	4429      	add	r1, r5
1a002a6e:	1ac9      	subs	r1, r1, r3
1a002a70:	ea40 4707 	orr.w	r7, r0, r7, lsl #16
1a002a74:	e73b      	b.n	1a0028ee <__udivmoddi4+0xfe>
1a002a76:	4637      	mov	r7, r6
1a002a78:	4630      	mov	r0, r6
1a002a7a:	e709      	b.n	1a002890 <__udivmoddi4+0xa0>
1a002a7c:	4607      	mov	r7, r0
1a002a7e:	e6e7      	b.n	1a002850 <__udivmoddi4+0x60>
1a002a80:	4618      	mov	r0, r3
1a002a82:	e6fb      	b.n	1a00287c <__udivmoddi4+0x8c>
1a002a84:	4541      	cmp	r1, r8
1a002a86:	d2ab      	bcs.n	1a0029e0 <__udivmoddi4+0x1f0>
1a002a88:	ebb8 0a02 	subs.w	sl, r8, r2
1a002a8c:	eb69 020e 	sbc.w	r2, r9, lr
1a002a90:	3801      	subs	r0, #1
1a002a92:	4613      	mov	r3, r2
1a002a94:	e7a4      	b.n	1a0029e0 <__udivmoddi4+0x1f0>
1a002a96:	4660      	mov	r0, ip
1a002a98:	e7e9      	b.n	1a002a6e <__udivmoddi4+0x27e>
1a002a9a:	4618      	mov	r0, r3
1a002a9c:	e795      	b.n	1a0029ca <__udivmoddi4+0x1da>
1a002a9e:	4667      	mov	r7, ip
1a002aa0:	e7d1      	b.n	1a002a46 <__udivmoddi4+0x256>
1a002aa2:	4681      	mov	r9, r0
1a002aa4:	e77c      	b.n	1a0029a0 <__udivmoddi4+0x1b0>
1a002aa6:	3802      	subs	r0, #2
1a002aa8:	442c      	add	r4, r5
1a002aaa:	e747      	b.n	1a00293c <__udivmoddi4+0x14c>
1a002aac:	f1ac 0c02 	sub.w	ip, ip, #2
1a002ab0:	442b      	add	r3, r5
1a002ab2:	e72f      	b.n	1a002914 <__udivmoddi4+0x124>
1a002ab4:	4638      	mov	r0, r7
1a002ab6:	e708      	b.n	1a0028ca <__udivmoddi4+0xda>
1a002ab8:	4637      	mov	r7, r6
1a002aba:	e6e9      	b.n	1a002890 <__udivmoddi4+0xa0>

1a002abc <__aeabi_idiv0>:
1a002abc:	4770      	bx	lr
1a002abe:	bf00      	nop

1a002ac0 <__libc_init_array>:
1a002ac0:	b570      	push	{r4, r5, r6, lr}
1a002ac2:	4e0d      	ldr	r6, [pc, #52]	; (1a002af8 <__libc_init_array+0x38>)
1a002ac4:	4d0d      	ldr	r5, [pc, #52]	; (1a002afc <__libc_init_array+0x3c>)
1a002ac6:	1b76      	subs	r6, r6, r5
1a002ac8:	10b6      	asrs	r6, r6, #2
1a002aca:	d006      	beq.n	1a002ada <__libc_init_array+0x1a>
1a002acc:	2400      	movs	r4, #0
1a002ace:	3401      	adds	r4, #1
1a002ad0:	f855 3b04 	ldr.w	r3, [r5], #4
1a002ad4:	4798      	blx	r3
1a002ad6:	42a6      	cmp	r6, r4
1a002ad8:	d1f9      	bne.n	1a002ace <__libc_init_array+0xe>
1a002ada:	4e09      	ldr	r6, [pc, #36]	; (1a002b00 <__libc_init_array+0x40>)
1a002adc:	4d09      	ldr	r5, [pc, #36]	; (1a002b04 <__libc_init_array+0x44>)
1a002ade:	1b76      	subs	r6, r6, r5
1a002ae0:	f7fd ff3f 	bl	1a000962 <_init>
1a002ae4:	10b6      	asrs	r6, r6, #2
1a002ae6:	d006      	beq.n	1a002af6 <__libc_init_array+0x36>
1a002ae8:	2400      	movs	r4, #0
1a002aea:	3401      	adds	r4, #1
1a002aec:	f855 3b04 	ldr.w	r3, [r5], #4
1a002af0:	4798      	blx	r3
1a002af2:	42a6      	cmp	r6, r4
1a002af4:	d1f9      	bne.n	1a002aea <__libc_init_array+0x2a>
1a002af6:	bd70      	pop	{r4, r5, r6, pc}
1a002af8:	1a00db7c 	.word	0x1a00db7c
1a002afc:	1a00db7c 	.word	0x1a00db7c
1a002b00:	1a00db80 	.word	0x1a00db80
1a002b04:	1a00db7c 	.word	0x1a00db7c

1a002b08 <memcpy>:
1a002b08:	4684      	mov	ip, r0
1a002b0a:	ea41 0300 	orr.w	r3, r1, r0
1a002b0e:	f013 0303 	ands.w	r3, r3, #3
1a002b12:	d16d      	bne.n	1a002bf0 <memcpy+0xe8>
1a002b14:	3a40      	subs	r2, #64	; 0x40
1a002b16:	d341      	bcc.n	1a002b9c <memcpy+0x94>
1a002b18:	f851 3b04 	ldr.w	r3, [r1], #4
1a002b1c:	f840 3b04 	str.w	r3, [r0], #4
1a002b20:	f851 3b04 	ldr.w	r3, [r1], #4
1a002b24:	f840 3b04 	str.w	r3, [r0], #4
1a002b28:	f851 3b04 	ldr.w	r3, [r1], #4
1a002b2c:	f840 3b04 	str.w	r3, [r0], #4
1a002b30:	f851 3b04 	ldr.w	r3, [r1], #4
1a002b34:	f840 3b04 	str.w	r3, [r0], #4
1a002b38:	f851 3b04 	ldr.w	r3, [r1], #4
1a002b3c:	f840 3b04 	str.w	r3, [r0], #4
1a002b40:	f851 3b04 	ldr.w	r3, [r1], #4
1a002b44:	f840 3b04 	str.w	r3, [r0], #4
1a002b48:	f851 3b04 	ldr.w	r3, [r1], #4
1a002b4c:	f840 3b04 	str.w	r3, [r0], #4
1a002b50:	f851 3b04 	ldr.w	r3, [r1], #4
1a002b54:	f840 3b04 	str.w	r3, [r0], #4
1a002b58:	f851 3b04 	ldr.w	r3, [r1], #4
1a002b5c:	f840 3b04 	str.w	r3, [r0], #4
1a002b60:	f851 3b04 	ldr.w	r3, [r1], #4
1a002b64:	f840 3b04 	str.w	r3, [r0], #4
1a002b68:	f851 3b04 	ldr.w	r3, [r1], #4
1a002b6c:	f840 3b04 	str.w	r3, [r0], #4
1a002b70:	f851 3b04 	ldr.w	r3, [r1], #4
1a002b74:	f840 3b04 	str.w	r3, [r0], #4
1a002b78:	f851 3b04 	ldr.w	r3, [r1], #4
1a002b7c:	f840 3b04 	str.w	r3, [r0], #4
1a002b80:	f851 3b04 	ldr.w	r3, [r1], #4
1a002b84:	f840 3b04 	str.w	r3, [r0], #4
1a002b88:	f851 3b04 	ldr.w	r3, [r1], #4
1a002b8c:	f840 3b04 	str.w	r3, [r0], #4
1a002b90:	f851 3b04 	ldr.w	r3, [r1], #4
1a002b94:	f840 3b04 	str.w	r3, [r0], #4
1a002b98:	3a40      	subs	r2, #64	; 0x40
1a002b9a:	d2bd      	bcs.n	1a002b18 <memcpy+0x10>
1a002b9c:	3230      	adds	r2, #48	; 0x30
1a002b9e:	d311      	bcc.n	1a002bc4 <memcpy+0xbc>
1a002ba0:	f851 3b04 	ldr.w	r3, [r1], #4
1a002ba4:	f840 3b04 	str.w	r3, [r0], #4
1a002ba8:	f851 3b04 	ldr.w	r3, [r1], #4
1a002bac:	f840 3b04 	str.w	r3, [r0], #4
1a002bb0:	f851 3b04 	ldr.w	r3, [r1], #4
1a002bb4:	f840 3b04 	str.w	r3, [r0], #4
1a002bb8:	f851 3b04 	ldr.w	r3, [r1], #4
1a002bbc:	f840 3b04 	str.w	r3, [r0], #4
1a002bc0:	3a10      	subs	r2, #16
1a002bc2:	d2ed      	bcs.n	1a002ba0 <memcpy+0x98>
1a002bc4:	320c      	adds	r2, #12
1a002bc6:	d305      	bcc.n	1a002bd4 <memcpy+0xcc>
1a002bc8:	f851 3b04 	ldr.w	r3, [r1], #4
1a002bcc:	f840 3b04 	str.w	r3, [r0], #4
1a002bd0:	3a04      	subs	r2, #4
1a002bd2:	d2f9      	bcs.n	1a002bc8 <memcpy+0xc0>
1a002bd4:	3204      	adds	r2, #4
1a002bd6:	d008      	beq.n	1a002bea <memcpy+0xe2>
1a002bd8:	07d2      	lsls	r2, r2, #31
1a002bda:	bf1c      	itt	ne
1a002bdc:	f811 3b01 	ldrbne.w	r3, [r1], #1
1a002be0:	f800 3b01 	strbne.w	r3, [r0], #1
1a002be4:	d301      	bcc.n	1a002bea <memcpy+0xe2>
1a002be6:	880b      	ldrh	r3, [r1, #0]
1a002be8:	8003      	strh	r3, [r0, #0]
1a002bea:	4660      	mov	r0, ip
1a002bec:	4770      	bx	lr
1a002bee:	bf00      	nop
1a002bf0:	2a08      	cmp	r2, #8
1a002bf2:	d313      	bcc.n	1a002c1c <memcpy+0x114>
1a002bf4:	078b      	lsls	r3, r1, #30
1a002bf6:	d08d      	beq.n	1a002b14 <memcpy+0xc>
1a002bf8:	f010 0303 	ands.w	r3, r0, #3
1a002bfc:	d08a      	beq.n	1a002b14 <memcpy+0xc>
1a002bfe:	f1c3 0304 	rsb	r3, r3, #4
1a002c02:	1ad2      	subs	r2, r2, r3
1a002c04:	07db      	lsls	r3, r3, #31
1a002c06:	bf1c      	itt	ne
1a002c08:	f811 3b01 	ldrbne.w	r3, [r1], #1
1a002c0c:	f800 3b01 	strbne.w	r3, [r0], #1
1a002c10:	d380      	bcc.n	1a002b14 <memcpy+0xc>
1a002c12:	f831 3b02 	ldrh.w	r3, [r1], #2
1a002c16:	f820 3b02 	strh.w	r3, [r0], #2
1a002c1a:	e77b      	b.n	1a002b14 <memcpy+0xc>
1a002c1c:	3a04      	subs	r2, #4
1a002c1e:	d3d9      	bcc.n	1a002bd4 <memcpy+0xcc>
1a002c20:	3a01      	subs	r2, #1
1a002c22:	f811 3b01 	ldrb.w	r3, [r1], #1
1a002c26:	f800 3b01 	strb.w	r3, [r0], #1
1a002c2a:	d2f9      	bcs.n	1a002c20 <memcpy+0x118>
1a002c2c:	780b      	ldrb	r3, [r1, #0]
1a002c2e:	7003      	strb	r3, [r0, #0]
1a002c30:	784b      	ldrb	r3, [r1, #1]
1a002c32:	7043      	strb	r3, [r0, #1]
1a002c34:	788b      	ldrb	r3, [r1, #2]
1a002c36:	7083      	strb	r3, [r0, #2]
1a002c38:	4660      	mov	r0, ip
1a002c3a:	4770      	bx	lr

1a002c3c <memset>:
1a002c3c:	b4f0      	push	{r4, r5, r6, r7}
1a002c3e:	0786      	lsls	r6, r0, #30
1a002c40:	d043      	beq.n	1a002cca <memset+0x8e>
1a002c42:	1e54      	subs	r4, r2, #1
1a002c44:	2a00      	cmp	r2, #0
1a002c46:	d03e      	beq.n	1a002cc6 <memset+0x8a>
1a002c48:	b2ca      	uxtb	r2, r1
1a002c4a:	4603      	mov	r3, r0
1a002c4c:	e002      	b.n	1a002c54 <memset+0x18>
1a002c4e:	f114 34ff 	adds.w	r4, r4, #4294967295	; 0xffffffff
1a002c52:	d338      	bcc.n	1a002cc6 <memset+0x8a>
1a002c54:	f803 2b01 	strb.w	r2, [r3], #1
1a002c58:	079d      	lsls	r5, r3, #30
1a002c5a:	d1f8      	bne.n	1a002c4e <memset+0x12>
1a002c5c:	2c03      	cmp	r4, #3
1a002c5e:	d92b      	bls.n	1a002cb8 <memset+0x7c>
1a002c60:	b2cd      	uxtb	r5, r1
1a002c62:	ea45 2505 	orr.w	r5, r5, r5, lsl #8
1a002c66:	2c0f      	cmp	r4, #15
1a002c68:	ea45 4505 	orr.w	r5, r5, r5, lsl #16
1a002c6c:	d916      	bls.n	1a002c9c <memset+0x60>
1a002c6e:	f1a4 0710 	sub.w	r7, r4, #16
1a002c72:	093f      	lsrs	r7, r7, #4
1a002c74:	f103 0620 	add.w	r6, r3, #32
1a002c78:	eb06 1607 	add.w	r6, r6, r7, lsl #4
1a002c7c:	f103 0210 	add.w	r2, r3, #16
1a002c80:	e942 5504 	strd	r5, r5, [r2, #-16]
1a002c84:	e942 5502 	strd	r5, r5, [r2, #-8]
1a002c88:	3210      	adds	r2, #16
1a002c8a:	42b2      	cmp	r2, r6
1a002c8c:	d1f8      	bne.n	1a002c80 <memset+0x44>
1a002c8e:	f004 040f 	and.w	r4, r4, #15
1a002c92:	3701      	adds	r7, #1
1a002c94:	2c03      	cmp	r4, #3
1a002c96:	eb03 1307 	add.w	r3, r3, r7, lsl #4
1a002c9a:	d90d      	bls.n	1a002cb8 <memset+0x7c>
1a002c9c:	461e      	mov	r6, r3
1a002c9e:	4622      	mov	r2, r4
1a002ca0:	3a04      	subs	r2, #4
1a002ca2:	2a03      	cmp	r2, #3
1a002ca4:	f846 5b04 	str.w	r5, [r6], #4
1a002ca8:	d8fa      	bhi.n	1a002ca0 <memset+0x64>
1a002caa:	1f22      	subs	r2, r4, #4
1a002cac:	f022 0203 	bic.w	r2, r2, #3
1a002cb0:	3204      	adds	r2, #4
1a002cb2:	4413      	add	r3, r2
1a002cb4:	f004 0403 	and.w	r4, r4, #3
1a002cb8:	b12c      	cbz	r4, 1a002cc6 <memset+0x8a>
1a002cba:	b2c9      	uxtb	r1, r1
1a002cbc:	441c      	add	r4, r3
1a002cbe:	f803 1b01 	strb.w	r1, [r3], #1
1a002cc2:	429c      	cmp	r4, r3
1a002cc4:	d1fb      	bne.n	1a002cbe <memset+0x82>
1a002cc6:	bcf0      	pop	{r4, r5, r6, r7}
1a002cc8:	4770      	bx	lr
1a002cca:	4614      	mov	r4, r2
1a002ccc:	4603      	mov	r3, r0
1a002cce:	e7c5      	b.n	1a002c5c <memset+0x20>

1a002cd0 <printf>:
1a002cd0:	b40f      	push	{r0, r1, r2, r3}
1a002cd2:	b500      	push	{lr}
1a002cd4:	4907      	ldr	r1, [pc, #28]	; (1a002cf4 <printf+0x24>)
1a002cd6:	b083      	sub	sp, #12
1a002cd8:	ab04      	add	r3, sp, #16
1a002cda:	6808      	ldr	r0, [r1, #0]
1a002cdc:	f853 2b04 	ldr.w	r2, [r3], #4
1a002ce0:	6881      	ldr	r1, [r0, #8]
1a002ce2:	9301      	str	r3, [sp, #4]
1a002ce4:	f000 f9b4 	bl	1a003050 <_vfprintf_r>
1a002ce8:	b003      	add	sp, #12
1a002cea:	f85d eb04 	ldr.w	lr, [sp], #4
1a002cee:	b004      	add	sp, #16
1a002cf0:	4770      	bx	lr
1a002cf2:	bf00      	nop
1a002cf4:	10000048 	.word	0x10000048

1a002cf8 <_puts_r>:
1a002cf8:	b570      	push	{r4, r5, r6, lr}
1a002cfa:	4605      	mov	r5, r0
1a002cfc:	b088      	sub	sp, #32
1a002cfe:	4608      	mov	r0, r1
1a002d00:	460c      	mov	r4, r1
1a002d02:	f000 f87d 	bl	1a002e00 <strlen>
1a002d06:	4a22      	ldr	r2, [pc, #136]	; (1a002d90 <_puts_r+0x98>)
1a002d08:	6bab      	ldr	r3, [r5, #56]	; 0x38
1a002d0a:	9404      	str	r4, [sp, #16]
1a002d0c:	2601      	movs	r6, #1
1a002d0e:	1c44      	adds	r4, r0, #1
1a002d10:	a904      	add	r1, sp, #16
1a002d12:	9206      	str	r2, [sp, #24]
1a002d14:	2202      	movs	r2, #2
1a002d16:	9403      	str	r4, [sp, #12]
1a002d18:	9005      	str	r0, [sp, #20]
1a002d1a:	68ac      	ldr	r4, [r5, #8]
1a002d1c:	9607      	str	r6, [sp, #28]
1a002d1e:	e9cd 1201 	strd	r1, r2, [sp, #4]
1a002d22:	b31b      	cbz	r3, 1a002d6c <_puts_r+0x74>
1a002d24:	6e61      	ldr	r1, [r4, #100]	; 0x64
1a002d26:	f9b4 300c 	ldrsh.w	r3, [r4, #12]
1a002d2a:	07ce      	lsls	r6, r1, #31
1a002d2c:	b29a      	uxth	r2, r3
1a002d2e:	d401      	bmi.n	1a002d34 <_puts_r+0x3c>
1a002d30:	0590      	lsls	r0, r2, #22
1a002d32:	d525      	bpl.n	1a002d80 <_puts_r+0x88>
1a002d34:	0491      	lsls	r1, r2, #18
1a002d36:	d406      	bmi.n	1a002d46 <_puts_r+0x4e>
1a002d38:	6e62      	ldr	r2, [r4, #100]	; 0x64
1a002d3a:	f443 5300 	orr.w	r3, r3, #8192	; 0x2000
1a002d3e:	f422 5200 	bic.w	r2, r2, #8192	; 0x2000
1a002d42:	81a3      	strh	r3, [r4, #12]
1a002d44:	6662      	str	r2, [r4, #100]	; 0x64
1a002d46:	4628      	mov	r0, r5
1a002d48:	aa01      	add	r2, sp, #4
1a002d4a:	4621      	mov	r1, r4
1a002d4c:	f004 fd6a 	bl	1a007824 <__sfvwrite_r>
1a002d50:	6e63      	ldr	r3, [r4, #100]	; 0x64
1a002d52:	2800      	cmp	r0, #0
1a002d54:	bf0c      	ite	eq
1a002d56:	250a      	moveq	r5, #10
1a002d58:	f04f 35ff 	movne.w	r5, #4294967295	; 0xffffffff
1a002d5c:	07da      	lsls	r2, r3, #31
1a002d5e:	d402      	bmi.n	1a002d66 <_puts_r+0x6e>
1a002d60:	89a3      	ldrh	r3, [r4, #12]
1a002d62:	059b      	lsls	r3, r3, #22
1a002d64:	d506      	bpl.n	1a002d74 <_puts_r+0x7c>
1a002d66:	4628      	mov	r0, r5
1a002d68:	b008      	add	sp, #32
1a002d6a:	bd70      	pop	{r4, r5, r6, pc}
1a002d6c:	4628      	mov	r0, r5
1a002d6e:	f004 fb03 	bl	1a007378 <__sinit>
1a002d72:	e7d7      	b.n	1a002d24 <_puts_r+0x2c>
1a002d74:	6da0      	ldr	r0, [r4, #88]	; 0x58
1a002d76:	f004 ff67 	bl	1a007c48 <__retarget_lock_release_recursive>
1a002d7a:	4628      	mov	r0, r5
1a002d7c:	b008      	add	sp, #32
1a002d7e:	bd70      	pop	{r4, r5, r6, pc}
1a002d80:	6da0      	ldr	r0, [r4, #88]	; 0x58
1a002d82:	f004 ff5f 	bl	1a007c44 <__retarget_lock_acquire_recursive>
1a002d86:	f9b4 300c 	ldrsh.w	r3, [r4, #12]
1a002d8a:	b29a      	uxth	r2, r3
1a002d8c:	e7d2      	b.n	1a002d34 <_puts_r+0x3c>
1a002d8e:	bf00      	nop
1a002d90:	1a00d2ac 	.word	0x1a00d2ac

1a002d94 <puts>:
1a002d94:	4b02      	ldr	r3, [pc, #8]	; (1a002da0 <puts+0xc>)
1a002d96:	4601      	mov	r1, r0
1a002d98:	6818      	ldr	r0, [r3, #0]
1a002d9a:	f7ff bfad 	b.w	1a002cf8 <_puts_r>
1a002d9e:	bf00      	nop
1a002da0:	10000048 	.word	0x10000048

1a002da4 <scanf>:
1a002da4:	b40f      	push	{r0, r1, r2, r3}
1a002da6:	b500      	push	{lr}
1a002da8:	4907      	ldr	r1, [pc, #28]	; (1a002dc8 <scanf+0x24>)
1a002daa:	b083      	sub	sp, #12
1a002dac:	ab04      	add	r3, sp, #16
1a002dae:	6808      	ldr	r0, [r1, #0]
1a002db0:	f853 2b04 	ldr.w	r2, [r3], #4
1a002db4:	6841      	ldr	r1, [r0, #4]
1a002db6:	9301      	str	r3, [sp, #4]
1a002db8:	f003 f9a4 	bl	1a006104 <_vfscanf_r>
1a002dbc:	b003      	add	sp, #12
1a002dbe:	f85d eb04 	ldr.w	lr, [sp], #4
1a002dc2:	b004      	add	sp, #16
1a002dc4:	4770      	bx	lr
1a002dc6:	bf00      	nop
1a002dc8:	10000048 	.word	0x10000048
1a002dcc:	ffffffff 	.word	0xffffffff
1a002dd0:	ffffffff 	.word	0xffffffff
1a002dd4:	ffffffff 	.word	0xffffffff
1a002dd8:	ffffffff 	.word	0xffffffff
1a002ddc:	ffffffff 	.word	0xffffffff
1a002de0:	ffffffff 	.word	0xffffffff
1a002de4:	ffffffff 	.word	0xffffffff
1a002de8:	ffffffff 	.word	0xffffffff
1a002dec:	ffffffff 	.word	0xffffffff
1a002df0:	ffffffff 	.word	0xffffffff
1a002df4:	ffffffff 	.word	0xffffffff
1a002df8:	ffffffff 	.word	0xffffffff
1a002dfc:	ffffffff 	.word	0xffffffff

1a002e00 <strlen>:
1a002e00:	f890 f000 	pld	[r0]
1a002e04:	e96d 4502 	strd	r4, r5, [sp, #-8]!
1a002e08:	f020 0107 	bic.w	r1, r0, #7
1a002e0c:	f06f 0c00 	mvn.w	ip, #0
1a002e10:	f010 0407 	ands.w	r4, r0, #7
1a002e14:	f891 f020 	pld	[r1, #32]
1a002e18:	f040 8049 	bne.w	1a002eae <strlen+0xae>
1a002e1c:	f04f 0400 	mov.w	r4, #0
1a002e20:	f06f 0007 	mvn.w	r0, #7
1a002e24:	e9d1 2300 	ldrd	r2, r3, [r1]
1a002e28:	f891 f040 	pld	[r1, #64]	; 0x40
1a002e2c:	f100 0008 	add.w	r0, r0, #8
1a002e30:	fa82 f24c 	uadd8	r2, r2, ip
1a002e34:	faa4 f28c 	sel	r2, r4, ip
1a002e38:	fa83 f34c 	uadd8	r3, r3, ip
1a002e3c:	faa2 f38c 	sel	r3, r2, ip
1a002e40:	bb4b      	cbnz	r3, 1a002e96 <strlen+0x96>
1a002e42:	e9d1 2302 	ldrd	r2, r3, [r1, #8]
1a002e46:	fa82 f24c 	uadd8	r2, r2, ip
1a002e4a:	f100 0008 	add.w	r0, r0, #8
1a002e4e:	faa4 f28c 	sel	r2, r4, ip
1a002e52:	fa83 f34c 	uadd8	r3, r3, ip
1a002e56:	faa2 f38c 	sel	r3, r2, ip
1a002e5a:	b9e3      	cbnz	r3, 1a002e96 <strlen+0x96>
1a002e5c:	e9d1 2304 	ldrd	r2, r3, [r1, #16]
1a002e60:	fa82 f24c 	uadd8	r2, r2, ip
1a002e64:	f100 0008 	add.w	r0, r0, #8
1a002e68:	faa4 f28c 	sel	r2, r4, ip
1a002e6c:	fa83 f34c 	uadd8	r3, r3, ip
1a002e70:	faa2 f38c 	sel	r3, r2, ip
1a002e74:	b97b      	cbnz	r3, 1a002e96 <strlen+0x96>
1a002e76:	e9d1 2306 	ldrd	r2, r3, [r1, #24]
1a002e7a:	f101 0120 	add.w	r1, r1, #32
1a002e7e:	fa82 f24c 	uadd8	r2, r2, ip
1a002e82:	f100 0008 	add.w	r0, r0, #8
1a002e86:	faa4 f28c 	sel	r2, r4, ip
1a002e8a:	fa83 f34c 	uadd8	r3, r3, ip
1a002e8e:	faa2 f38c 	sel	r3, r2, ip
1a002e92:	2b00      	cmp	r3, #0
1a002e94:	d0c6      	beq.n	1a002e24 <strlen+0x24>
1a002e96:	2a00      	cmp	r2, #0
1a002e98:	bf04      	itt	eq
1a002e9a:	3004      	addeq	r0, #4
1a002e9c:	461a      	moveq	r2, r3
1a002e9e:	ba12      	rev	r2, r2
1a002ea0:	fab2 f282 	clz	r2, r2
1a002ea4:	e8fd 4502 	ldrd	r4, r5, [sp], #8
1a002ea8:	eb00 00d2 	add.w	r0, r0, r2, lsr #3
1a002eac:	4770      	bx	lr
1a002eae:	e9d1 2300 	ldrd	r2, r3, [r1]
1a002eb2:	f004 0503 	and.w	r5, r4, #3
1a002eb6:	f1c4 0000 	rsb	r0, r4, #0
1a002eba:	ea4f 05c5 	mov.w	r5, r5, lsl #3
1a002ebe:	f014 0f04 	tst.w	r4, #4
1a002ec2:	f891 f040 	pld	[r1, #64]	; 0x40
1a002ec6:	fa0c f505 	lsl.w	r5, ip, r5
1a002eca:	ea62 0205 	orn	r2, r2, r5
1a002ece:	bf1c      	itt	ne
1a002ed0:	ea63 0305 	ornne	r3, r3, r5
1a002ed4:	4662      	movne	r2, ip
1a002ed6:	f04f 0400 	mov.w	r4, #0
1a002eda:	e7a9      	b.n	1a002e30 <strlen+0x30>

1a002edc <_strtol_l.isra.0>:
1a002edc:	e92d 4ff8 	stmdb	sp!, {r3, r4, r5, r6, r7, r8, r9, sl, fp, lr}
1a002ee0:	460e      	mov	r6, r1
1a002ee2:	4680      	mov	r8, r0
1a002ee4:	4617      	mov	r7, r2
1a002ee6:	4699      	mov	r9, r3
1a002ee8:	460d      	mov	r5, r1
1a002eea:	e000      	b.n	1a002eee <_strtol_l.isra.0+0x12>
1a002eec:	4625      	mov	r5, r4
1a002eee:	462c      	mov	r4, r5
1a002ef0:	980a      	ldr	r0, [sp, #40]	; 0x28
1a002ef2:	f814 bb01 	ldrb.w	fp, [r4], #1
1a002ef6:	f004 fe7f 	bl	1a007bf8 <__locale_ctype_ptr_l>
1a002efa:	4458      	add	r0, fp
1a002efc:	7841      	ldrb	r1, [r0, #1]
1a002efe:	f011 0108 	ands.w	r1, r1, #8
1a002f02:	d1f3      	bne.n	1a002eec <_strtol_l.isra.0+0x10>
1a002f04:	f1bb 0f2d 	cmp.w	fp, #45	; 0x2d
1a002f08:	d057      	beq.n	1a002fba <_strtol_l.isra.0+0xde>
1a002f0a:	f1bb 0f2b 	cmp.w	fp, #43	; 0x2b
1a002f0e:	bf04      	itt	eq
1a002f10:	f895 b001 	ldrbeq.w	fp, [r5, #1]
1a002f14:	1cac      	addeq	r4, r5, #2
1a002f16:	f1b9 0f00 	cmp.w	r9, #0
1a002f1a:	d004      	beq.n	1a002f26 <_strtol_l.isra.0+0x4a>
1a002f1c:	f1b9 0f10 	cmp.w	r9, #16
1a002f20:	d050      	beq.n	1a002fc4 <_strtol_l.isra.0+0xe8>
1a002f22:	46cc      	mov	ip, r9
1a002f24:	e005      	b.n	1a002f32 <_strtol_l.isra.0+0x56>
1a002f26:	f1bb 0f30 	cmp.w	fp, #48	; 0x30
1a002f2a:	d055      	beq.n	1a002fd8 <_strtol_l.isra.0+0xfc>
1a002f2c:	f04f 090a 	mov.w	r9, #10
1a002f30:	46cc      	mov	ip, r9
1a002f32:	2900      	cmp	r1, #0
1a002f34:	bf0c      	ite	eq
1a002f36:	f06f 4e00 	mvneq.w	lr, #2147483648	; 0x80000000
1a002f3a:	f04f 4e00 	movne.w	lr, #2147483648	; 0x80000000
1a002f3e:	2500      	movs	r5, #0
1a002f40:	fbbe f3fc 	udiv	r3, lr, ip
1a002f44:	4628      	mov	r0, r5
1a002f46:	fb0c ea13 	mls	sl, ip, r3, lr
1a002f4a:	e005      	b.n	1a002f58 <_strtol_l.isra.0+0x7c>
1a002f4c:	d029      	beq.n	1a002fa2 <_strtol_l.isra.0+0xc6>
1a002f4e:	fb0c 2000 	mla	r0, ip, r0, r2
1a002f52:	2501      	movs	r5, #1
1a002f54:	f814 bb01 	ldrb.w	fp, [r4], #1
1a002f58:	f1ab 0230 	sub.w	r2, fp, #48	; 0x30
1a002f5c:	2a09      	cmp	r2, #9
1a002f5e:	d905      	bls.n	1a002f6c <_strtol_l.isra.0+0x90>
1a002f60:	f1ab 0241 	sub.w	r2, fp, #65	; 0x41
1a002f64:	2a19      	cmp	r2, #25
1a002f66:	d80b      	bhi.n	1a002f80 <_strtol_l.isra.0+0xa4>
1a002f68:	f1ab 0237 	sub.w	r2, fp, #55	; 0x37
1a002f6c:	4591      	cmp	r9, r2
1a002f6e:	dd0f      	ble.n	1a002f90 <_strtol_l.isra.0+0xb4>
1a002f70:	f1b5 3fff 	cmp.w	r5, #4294967295	; 0xffffffff
1a002f74:	d0ee      	beq.n	1a002f54 <_strtol_l.isra.0+0x78>
1a002f76:	4283      	cmp	r3, r0
1a002f78:	d2e8      	bcs.n	1a002f4c <_strtol_l.isra.0+0x70>
1a002f7a:	f04f 35ff 	mov.w	r5, #4294967295	; 0xffffffff
1a002f7e:	e7e9      	b.n	1a002f54 <_strtol_l.isra.0+0x78>
1a002f80:	f1ab 0261 	sub.w	r2, fp, #97	; 0x61
1a002f84:	2a19      	cmp	r2, #25
1a002f86:	d803      	bhi.n	1a002f90 <_strtol_l.isra.0+0xb4>
1a002f88:	f1ab 0257 	sub.w	r2, fp, #87	; 0x57
1a002f8c:	4591      	cmp	r9, r2
1a002f8e:	dcef      	bgt.n	1a002f70 <_strtol_l.isra.0+0x94>
1a002f90:	1c6b      	adds	r3, r5, #1
1a002f92:	d00b      	beq.n	1a002fac <_strtol_l.isra.0+0xd0>
1a002f94:	b101      	cbz	r1, 1a002f98 <_strtol_l.isra.0+0xbc>
1a002f96:	4240      	negs	r0, r0
1a002f98:	b10f      	cbz	r7, 1a002f9e <_strtol_l.isra.0+0xc2>
1a002f9a:	bb4d      	cbnz	r5, 1a002ff0 <_strtol_l.isra.0+0x114>
1a002f9c:	603e      	str	r6, [r7, #0]
1a002f9e:	e8bd 8ff8 	ldmia.w	sp!, {r3, r4, r5, r6, r7, r8, r9, sl, fp, pc}
1a002fa2:	4592      	cmp	sl, r2
1a002fa4:	dad3      	bge.n	1a002f4e <_strtol_l.isra.0+0x72>
1a002fa6:	f04f 35ff 	mov.w	r5, #4294967295	; 0xffffffff
1a002faa:	e7d3      	b.n	1a002f54 <_strtol_l.isra.0+0x78>
1a002fac:	2322      	movs	r3, #34	; 0x22
1a002fae:	f8c8 3000 	str.w	r3, [r8]
1a002fb2:	b1ff      	cbz	r7, 1a002ff4 <_strtol_l.isra.0+0x118>
1a002fb4:	1e66      	subs	r6, r4, #1
1a002fb6:	4670      	mov	r0, lr
1a002fb8:	e7f0      	b.n	1a002f9c <_strtol_l.isra.0+0xc0>
1a002fba:	1cac      	adds	r4, r5, #2
1a002fbc:	f895 b001 	ldrb.w	fp, [r5, #1]
1a002fc0:	2101      	movs	r1, #1
1a002fc2:	e7a8      	b.n	1a002f16 <_strtol_l.isra.0+0x3a>
1a002fc4:	f1bb 0f30 	cmp.w	fp, #48	; 0x30
1a002fc8:	d1ab      	bne.n	1a002f22 <_strtol_l.isra.0+0x46>
1a002fca:	7823      	ldrb	r3, [r4, #0]
1a002fcc:	f003 03df 	and.w	r3, r3, #223	; 0xdf
1a002fd0:	2b58      	cmp	r3, #88	; 0x58
1a002fd2:	d006      	beq.n	1a002fe2 <_strtol_l.isra.0+0x106>
1a002fd4:	46cc      	mov	ip, r9
1a002fd6:	e7ac      	b.n	1a002f32 <_strtol_l.isra.0+0x56>
1a002fd8:	7823      	ldrb	r3, [r4, #0]
1a002fda:	f003 03df 	and.w	r3, r3, #223	; 0xdf
1a002fde:	2b58      	cmp	r3, #88	; 0x58
1a002fe0:	d10a      	bne.n	1a002ff8 <_strtol_l.isra.0+0x11c>
1a002fe2:	f04f 0c10 	mov.w	ip, #16
1a002fe6:	f894 b001 	ldrb.w	fp, [r4, #1]
1a002fea:	46e1      	mov	r9, ip
1a002fec:	3402      	adds	r4, #2
1a002fee:	e7a0      	b.n	1a002f32 <_strtol_l.isra.0+0x56>
1a002ff0:	4686      	mov	lr, r0
1a002ff2:	e7df      	b.n	1a002fb4 <_strtol_l.isra.0+0xd8>
1a002ff4:	4670      	mov	r0, lr
1a002ff6:	e7d2      	b.n	1a002f9e <_strtol_l.isra.0+0xc2>
1a002ff8:	f04f 0908 	mov.w	r9, #8
1a002ffc:	46cc      	mov	ip, r9
1a002ffe:	e798      	b.n	1a002f32 <_strtol_l.isra.0+0x56>

1a003000 <_strtol_r>:
1a003000:	b530      	push	{r4, r5, lr}
1a003002:	4c06      	ldr	r4, [pc, #24]	; (1a00301c <_strtol_r+0x1c>)
1a003004:	4d06      	ldr	r5, [pc, #24]	; (1a003020 <_strtol_r+0x20>)
1a003006:	6824      	ldr	r4, [r4, #0]
1a003008:	6b64      	ldr	r4, [r4, #52]	; 0x34
1a00300a:	b083      	sub	sp, #12
1a00300c:	2c00      	cmp	r4, #0
1a00300e:	bf08      	it	eq
1a003010:	462c      	moveq	r4, r5
1a003012:	9400      	str	r4, [sp, #0]
1a003014:	f7ff ff62 	bl	1a002edc <_strtol_l.isra.0>
1a003018:	b003      	add	sp, #12
1a00301a:	bd30      	pop	{r4, r5, pc}
1a00301c:	10000048 	.word	0x10000048
1a003020:	10000478 	.word	0x10000478

1a003024 <strtol>:
1a003024:	b530      	push	{r4, r5, lr}
1a003026:	4c08      	ldr	r4, [pc, #32]	; (1a003048 <strtol+0x24>)
1a003028:	4b08      	ldr	r3, [pc, #32]	; (1a00304c <strtol+0x28>)
1a00302a:	6825      	ldr	r5, [r4, #0]
1a00302c:	6b6c      	ldr	r4, [r5, #52]	; 0x34
1a00302e:	b083      	sub	sp, #12
1a003030:	2c00      	cmp	r4, #0
1a003032:	bf08      	it	eq
1a003034:	461c      	moveq	r4, r3
1a003036:	9400      	str	r4, [sp, #0]
1a003038:	4613      	mov	r3, r2
1a00303a:	460a      	mov	r2, r1
1a00303c:	4601      	mov	r1, r0
1a00303e:	4628      	mov	r0, r5
1a003040:	f7ff ff4c 	bl	1a002edc <_strtol_l.isra.0>
1a003044:	b003      	add	sp, #12
1a003046:	bd30      	pop	{r4, r5, pc}
1a003048:	10000048 	.word	0x10000048
1a00304c:	10000478 	.word	0x10000478

1a003050 <_vfprintf_r>:
1a003050:	e92d 4ff0 	stmdb	sp!, {r4, r5, r6, r7, r8, r9, sl, fp, lr}
1a003054:	b0d7      	sub	sp, #348	; 0x15c
1a003056:	461c      	mov	r4, r3
1a003058:	4689      	mov	r9, r1
1a00305a:	4617      	mov	r7, r2
1a00305c:	4605      	mov	r5, r0
1a00305e:	9003      	str	r0, [sp, #12]
1a003060:	f004 fdde 	bl	1a007c20 <_localeconv_r>
1a003064:	6803      	ldr	r3, [r0, #0]
1a003066:	9316      	str	r3, [sp, #88]	; 0x58
1a003068:	4618      	mov	r0, r3
1a00306a:	f7ff fec9 	bl	1a002e00 <strlen>
1a00306e:	9408      	str	r4, [sp, #32]
1a003070:	9015      	str	r0, [sp, #84]	; 0x54
1a003072:	b11d      	cbz	r5, 1a00307c <_vfprintf_r+0x2c>
1a003074:	6bab      	ldr	r3, [r5, #56]	; 0x38
1a003076:	2b00      	cmp	r3, #0
1a003078:	f000 8107 	beq.w	1a00328a <_vfprintf_r+0x23a>
1a00307c:	f8d9 1064 	ldr.w	r1, [r9, #100]	; 0x64
1a003080:	f9b9 200c 	ldrsh.w	r2, [r9, #12]
1a003084:	07c8      	lsls	r0, r1, #31
1a003086:	b293      	uxth	r3, r2
1a003088:	d402      	bmi.n	1a003090 <_vfprintf_r+0x40>
1a00308a:	0599      	lsls	r1, r3, #22
1a00308c:	f140 811f 	bpl.w	1a0032ce <_vfprintf_r+0x27e>
1a003090:	049e      	lsls	r6, r3, #18
1a003092:	d40a      	bmi.n	1a0030aa <_vfprintf_r+0x5a>
1a003094:	f8d9 1064 	ldr.w	r1, [r9, #100]	; 0x64
1a003098:	f442 5300 	orr.w	r3, r2, #8192	; 0x2000
1a00309c:	f421 5100 	bic.w	r1, r1, #8192	; 0x2000
1a0030a0:	f8a9 300c 	strh.w	r3, [r9, #12]
1a0030a4:	f8c9 1064 	str.w	r1, [r9, #100]	; 0x64
1a0030a8:	b29b      	uxth	r3, r3
1a0030aa:	071d      	lsls	r5, r3, #28
1a0030ac:	f140 80b2 	bpl.w	1a003214 <_vfprintf_r+0x1c4>
1a0030b0:	f8d9 2010 	ldr.w	r2, [r9, #16]
1a0030b4:	2a00      	cmp	r2, #0
1a0030b6:	f000 80ad 	beq.w	1a003214 <_vfprintf_r+0x1c4>
1a0030ba:	f003 021a 	and.w	r2, r3, #26
1a0030be:	2a0a      	cmp	r2, #10
1a0030c0:	f000 80c9 	beq.w	1a003256 <_vfprintf_r+0x206>
1a0030c4:	2300      	movs	r3, #0
1a0030c6:	ed9f 7b86 	vldr	d7, [pc, #536]	; 1a0032e0 <_vfprintf_r+0x290>
1a0030ca:	9310      	str	r3, [sp, #64]	; 0x40
1a0030cc:	e9cd 332b 	strd	r3, r3, [sp, #172]	; 0xac
1a0030d0:	9317      	str	r3, [sp, #92]	; 0x5c
1a0030d2:	e9cd 3319 	strd	r3, r3, [sp, #100]	; 0x64
1a0030d6:	931b      	str	r3, [sp, #108]	; 0x6c
1a0030d8:	9318      	str	r3, [sp, #96]	; 0x60
1a0030da:	9305      	str	r3, [sp, #20]
1a0030dc:	ab2d      	add	r3, sp, #180	; 0xb4
1a0030de:	932a      	str	r3, [sp, #168]	; 0xa8
1a0030e0:	469b      	mov	fp, r3
1a0030e2:	783b      	ldrb	r3, [r7, #0]
1a0030e4:	f8cd 901c 	str.w	r9, [sp, #28]
1a0030e8:	ed8d 7b12 	vstr	d7, [sp, #72]	; 0x48
1a0030ec:	2b00      	cmp	r3, #0
1a0030ee:	f000 8259 	beq.w	1a0035a4 <_vfprintf_r+0x554>
1a0030f2:	2b25      	cmp	r3, #37	; 0x25
1a0030f4:	463c      	mov	r4, r7
1a0030f6:	d102      	bne.n	1a0030fe <_vfprintf_r+0xae>
1a0030f8:	e01d      	b.n	1a003136 <_vfprintf_r+0xe6>
1a0030fa:	2b25      	cmp	r3, #37	; 0x25
1a0030fc:	d003      	beq.n	1a003106 <_vfprintf_r+0xb6>
1a0030fe:	f814 3f01 	ldrb.w	r3, [r4, #1]!
1a003102:	2b00      	cmp	r3, #0
1a003104:	d1f9      	bne.n	1a0030fa <_vfprintf_r+0xaa>
1a003106:	1be5      	subs	r5, r4, r7
1a003108:	b18d      	cbz	r5, 1a00312e <_vfprintf_r+0xde>
1a00310a:	e9dd 322b 	ldrd	r3, r2, [sp, #172]	; 0xac
1a00310e:	3301      	adds	r3, #1
1a003110:	442a      	add	r2, r5
1a003112:	2b07      	cmp	r3, #7
1a003114:	f8cb 7000 	str.w	r7, [fp]
1a003118:	f8cb 5004 	str.w	r5, [fp, #4]
1a00311c:	e9cd 322b 	strd	r3, r2, [sp, #172]	; 0xac
1a003120:	f300 80ca 	bgt.w	1a0032b8 <_vfprintf_r+0x268>
1a003124:	f10b 0b08 	add.w	fp, fp, #8
1a003128:	9b05      	ldr	r3, [sp, #20]
1a00312a:	442b      	add	r3, r5
1a00312c:	9305      	str	r3, [sp, #20]
1a00312e:	7823      	ldrb	r3, [r4, #0]
1a003130:	2b00      	cmp	r3, #0
1a003132:	f000 8237 	beq.w	1a0035a4 <_vfprintf_r+0x554>
1a003136:	2300      	movs	r3, #0
1a003138:	7866      	ldrb	r6, [r4, #1]
1a00313a:	9306      	str	r3, [sp, #24]
1a00313c:	4698      	mov	r8, r3
1a00313e:	f88d 308b 	strb.w	r3, [sp, #139]	; 0x8b
1a003142:	f104 0a01 	add.w	sl, r4, #1
1a003146:	f04f 39ff 	mov.w	r9, #4294967295	; 0xffffffff
1a00314a:	252b      	movs	r5, #43	; 0x2b
1a00314c:	f10a 0a01 	add.w	sl, sl, #1
1a003150:	f1a6 0320 	sub.w	r3, r6, #32
1a003154:	2b5a      	cmp	r3, #90	; 0x5a
1a003156:	f200 842a 	bhi.w	1a0039ae <_vfprintf_r+0x95e>
1a00315a:	e8df f013 	tbh	[pc, r3, lsl #1]
1a00315e:	03aa      	.short	0x03aa
1a003160:	04280428 	.word	0x04280428
1a003164:	0428029c 	.word	0x0428029c
1a003168:	04280428 	.word	0x04280428
1a00316c:	042802a7 	.word	0x042802a7
1a003170:	02c60428 	.word	0x02c60428
1a003174:	042802d2 	.word	0x042802d2
1a003178:	02dc02d7 	.word	0x02dc02d7
1a00317c:	02f60428 	.word	0x02f60428
1a003180:	026d026d 	.word	0x026d026d
1a003184:	026d026d 	.word	0x026d026d
1a003188:	026d026d 	.word	0x026d026d
1a00318c:	026d026d 	.word	0x026d026d
1a003190:	0428026d 	.word	0x0428026d
1a003194:	04280428 	.word	0x04280428
1a003198:	04280428 	.word	0x04280428
1a00319c:	04280428 	.word	0x04280428
1a0031a0:	042802fb 	.word	0x042802fb
1a0031a4:	03f3033c 	.word	0x03f3033c
1a0031a8:	02fb02fb 	.word	0x02fb02fb
1a0031ac:	042802fb 	.word	0x042802fb
1a0031b0:	04280428 	.word	0x04280428
1a0031b4:	03ee0428 	.word	0x03ee0428
1a0031b8:	04280428 	.word	0x04280428
1a0031bc:	0428009a 	.word	0x0428009a
1a0031c0:	04280428 	.word	0x04280428
1a0031c4:	04280350 	.word	0x04280350
1a0031c8:	04280379 	.word	0x04280379
1a0031cc:	03900428 	.word	0x03900428
1a0031d0:	04280428 	.word	0x04280428
1a0031d4:	04280428 	.word	0x04280428
1a0031d8:	04280428 	.word	0x04280428
1a0031dc:	04280428 	.word	0x04280428
1a0031e0:	042802fb 	.word	0x042802fb
1a0031e4:	00c5033c 	.word	0x00c5033c
1a0031e8:	02fb02fb 	.word	0x02fb02fb
1a0031ec:	03d102fb 	.word	0x03d102fb
1a0031f0:	007000c5 	.word	0x007000c5
1a0031f4:	03b50428 	.word	0x03b50428
1a0031f8:	03c20428 	.word	0x03c20428
1a0031fc:	03de009c 	.word	0x03de009c
1a003200:	04280070 	.word	0x04280070
1a003204:	00720350 	.word	0x00720350
1a003208:	0428022c 	.word	0x0428022c
1a00320c:	027c0428 	.word	0x027c0428
1a003210:	00720428 	.word	0x00720428
1a003214:	4649      	mov	r1, r9
1a003216:	9803      	ldr	r0, [sp, #12]
1a003218:	f002 ff8e 	bl	1a006138 <__swsetup_r>
1a00321c:	b1a0      	cbz	r0, 1a003248 <_vfprintf_r+0x1f8>
1a00321e:	f8d9 3064 	ldr.w	r3, [r9, #100]	; 0x64
1a003222:	07d8      	lsls	r0, r3, #31
1a003224:	d404      	bmi.n	1a003230 <_vfprintf_r+0x1e0>
1a003226:	f8b9 300c 	ldrh.w	r3, [r9, #12]
1a00322a:	0599      	lsls	r1, r3, #22
1a00322c:	f140 83b7 	bpl.w	1a00399e <_vfprintf_r+0x94e>
1a003230:	f04f 33ff 	mov.w	r3, #4294967295	; 0xffffffff
1a003234:	9305      	str	r3, [sp, #20]
1a003236:	9805      	ldr	r0, [sp, #20]
1a003238:	b057      	add	sp, #348	; 0x15c
1a00323a:	e8bd 8ff0 	ldmia.w	sp!, {r4, r5, r6, r7, r8, r9, sl, fp, pc}
1a00323e:	f048 0820 	orr.w	r8, r8, #32
1a003242:	f89a 6000 	ldrb.w	r6, [sl]
1a003246:	e781      	b.n	1a00314c <_vfprintf_r+0xfc>
1a003248:	f8b9 300c 	ldrh.w	r3, [r9, #12]
1a00324c:	f003 021a 	and.w	r2, r3, #26
1a003250:	2a0a      	cmp	r2, #10
1a003252:	f47f af37 	bne.w	1a0030c4 <_vfprintf_r+0x74>
1a003256:	f9b9 200e 	ldrsh.w	r2, [r9, #14]
1a00325a:	2a00      	cmp	r2, #0
1a00325c:	f6ff af32 	blt.w	1a0030c4 <_vfprintf_r+0x74>
1a003260:	f8d9 2064 	ldr.w	r2, [r9, #100]	; 0x64
1a003264:	07d2      	lsls	r2, r2, #31
1a003266:	d405      	bmi.n	1a003274 <_vfprintf_r+0x224>
1a003268:	059b      	lsls	r3, r3, #22
1a00326a:	d403      	bmi.n	1a003274 <_vfprintf_r+0x224>
1a00326c:	f8d9 0058 	ldr.w	r0, [r9, #88]	; 0x58
1a003270:	f004 fcea 	bl	1a007c48 <__retarget_lock_release_recursive>
1a003274:	4623      	mov	r3, r4
1a003276:	463a      	mov	r2, r7
1a003278:	4649      	mov	r1, r9
1a00327a:	9803      	ldr	r0, [sp, #12]
1a00327c:	f001 fc26 	bl	1a004acc <__sbprintf>
1a003280:	9005      	str	r0, [sp, #20]
1a003282:	9805      	ldr	r0, [sp, #20]
1a003284:	b057      	add	sp, #348	; 0x15c
1a003286:	e8bd 8ff0 	ldmia.w	sp!, {r4, r5, r6, r7, r8, r9, sl, fp, pc}
1a00328a:	9803      	ldr	r0, [sp, #12]
1a00328c:	f004 f874 	bl	1a007378 <__sinit>
1a003290:	e6f4      	b.n	1a00307c <_vfprintf_r+0x2c>
1a003292:	f048 0810 	orr.w	r8, r8, #16
1a003296:	f018 0f20 	tst.w	r8, #32
1a00329a:	f000 836c 	beq.w	1a003976 <_vfprintf_r+0x926>
1a00329e:	9c08      	ldr	r4, [sp, #32]
1a0032a0:	3407      	adds	r4, #7
1a0032a2:	f024 0307 	bic.w	r3, r4, #7
1a0032a6:	e9d3 4500 	ldrd	r4, r5, [r3]
1a0032aa:	f103 0208 	add.w	r2, r3, #8
1a0032ae:	9208      	str	r2, [sp, #32]
1a0032b0:	f428 6380 	bic.w	r3, r8, #1024	; 0x400
1a0032b4:	2200      	movs	r2, #0
1a0032b6:	e18c      	b.n	1a0035d2 <_vfprintf_r+0x582>
1a0032b8:	aa2a      	add	r2, sp, #168	; 0xa8
1a0032ba:	9907      	ldr	r1, [sp, #28]
1a0032bc:	9803      	ldr	r0, [sp, #12]
1a0032be:	f009 f8ed 	bl	1a00c49c <__sprint_r>
1a0032c2:	2800      	cmp	r0, #0
1a0032c4:	f041 8376 	bne.w	1a0049b4 <_vfprintf_r+0x1964>
1a0032c8:	f10d 0bb4 	add.w	fp, sp, #180	; 0xb4
1a0032cc:	e72c      	b.n	1a003128 <_vfprintf_r+0xd8>
1a0032ce:	f8d9 0058 	ldr.w	r0, [r9, #88]	; 0x58
1a0032d2:	f004 fcb7 	bl	1a007c44 <__retarget_lock_acquire_recursive>
1a0032d6:	f9b9 200c 	ldrsh.w	r2, [r9, #12]
1a0032da:	b293      	uxth	r3, r2
1a0032dc:	e6d8      	b.n	1a003090 <_vfprintf_r+0x40>
1a0032de:	bf00      	nop
	...
1a0032e8:	4643      	mov	r3, r8
1a0032ea:	069f      	lsls	r7, r3, #26
1a0032ec:	f140 832f 	bpl.w	1a00394e <_vfprintf_r+0x8fe>
1a0032f0:	9c08      	ldr	r4, [sp, #32]
1a0032f2:	3407      	adds	r4, #7
1a0032f4:	f024 0407 	bic.w	r4, r4, #7
1a0032f8:	e9d4 0100 	ldrd	r0, r1, [r4]
1a0032fc:	f104 0208 	add.w	r2, r4, #8
1a003300:	9208      	str	r2, [sp, #32]
1a003302:	4604      	mov	r4, r0
1a003304:	460d      	mov	r5, r1
1a003306:	2800      	cmp	r0, #0
1a003308:	f171 0200 	sbcs.w	r2, r1, #0
1a00330c:	da05      	bge.n	1a00331a <_vfprintf_r+0x2ca>
1a00330e:	222d      	movs	r2, #45	; 0x2d
1a003310:	4264      	negs	r4, r4
1a003312:	eb65 0545 	sbc.w	r5, r5, r5, lsl #1
1a003316:	f88d 208b 	strb.w	r2, [sp, #139]	; 0x8b
1a00331a:	aa56      	add	r2, sp, #344	; 0x158
1a00331c:	f1b9 3fff 	cmp.w	r9, #4294967295	; 0xffffffff
1a003320:	9204      	str	r2, [sp, #16]
1a003322:	f000 84b2 	beq.w	1a003c8a <_vfprintf_r+0xc3a>
1a003326:	2201      	movs	r2, #1
1a003328:	ea54 0105 	orrs.w	r1, r4, r5
1a00332c:	f023 0880 	bic.w	r8, r3, #128	; 0x80
1a003330:	f040 8159 	bne.w	1a0035e6 <_vfprintf_r+0x596>
1a003334:	f1b9 0f00 	cmp.w	r9, #0
1a003338:	f040 8619 	bne.w	1a003f6e <_vfprintf_r+0xf1e>
1a00333c:	2a00      	cmp	r2, #0
1a00333e:	f040 8508 	bne.w	1a003d52 <_vfprintf_r+0xd02>
1a003342:	f013 0301 	ands.w	r3, r3, #1
1a003346:	af56      	add	r7, sp, #344	; 0x158
1a003348:	9309      	str	r3, [sp, #36]	; 0x24
1a00334a:	d002      	beq.n	1a003352 <_vfprintf_r+0x302>
1a00334c:	2330      	movs	r3, #48	; 0x30
1a00334e:	f807 3d01 	strb.w	r3, [r7, #-1]!
1a003352:	2300      	movs	r3, #0
1a003354:	930a      	str	r3, [sp, #40]	; 0x28
1a003356:	930f      	str	r3, [sp, #60]	; 0x3c
1a003358:	9314      	str	r3, [sp, #80]	; 0x50
1a00335a:	9311      	str	r3, [sp, #68]	; 0x44
1a00335c:	9b09      	ldr	r3, [sp, #36]	; 0x24
1a00335e:	f89d 208b 	ldrb.w	r2, [sp, #139]	; 0x8b
1a003362:	454b      	cmp	r3, r9
1a003364:	bfb8      	it	lt
1a003366:	464b      	movlt	r3, r9
1a003368:	9304      	str	r3, [sp, #16]
1a00336a:	b112      	cbz	r2, 1a003372 <_vfprintf_r+0x322>
1a00336c:	9b04      	ldr	r3, [sp, #16]
1a00336e:	3301      	adds	r3, #1
1a003370:	9304      	str	r3, [sp, #16]
1a003372:	f018 0302 	ands.w	r3, r8, #2
1a003376:	930b      	str	r3, [sp, #44]	; 0x2c
1a003378:	d002      	beq.n	1a003380 <_vfprintf_r+0x330>
1a00337a:	9b04      	ldr	r3, [sp, #16]
1a00337c:	3302      	adds	r3, #2
1a00337e:	9304      	str	r3, [sp, #16]
1a003380:	f018 0384 	ands.w	r3, r8, #132	; 0x84
1a003384:	9c2c      	ldr	r4, [sp, #176]	; 0xb0
1a003386:	930e      	str	r3, [sp, #56]	; 0x38
1a003388:	d13f      	bne.n	1a00340a <_vfprintf_r+0x3ba>
1a00338a:	9b06      	ldr	r3, [sp, #24]
1a00338c:	9904      	ldr	r1, [sp, #16]
1a00338e:	1a5d      	subs	r5, r3, r1
1a003390:	2d00      	cmp	r5, #0
1a003392:	dd3a      	ble.n	1a00340a <_vfprintf_r+0x3ba>
1a003394:	2d10      	cmp	r5, #16
1a003396:	9a2b      	ldr	r2, [sp, #172]	; 0xac
1a003398:	dd29      	ble.n	1a0033ee <_vfprintf_r+0x39e>
1a00339a:	4659      	mov	r1, fp
1a00339c:	4620      	mov	r0, r4
1a00339e:	9620      	str	r6, [sp, #128]	; 0x80
1a0033a0:	2310      	movs	r3, #16
1a0033a2:	9c03      	ldr	r4, [sp, #12]
1a0033a4:	9e07      	ldr	r6, [sp, #28]
1a0033a6:	46bb      	mov	fp, r7
1a0033a8:	e004      	b.n	1a0033b4 <_vfprintf_r+0x364>
1a0033aa:	3d10      	subs	r5, #16
1a0033ac:	2d10      	cmp	r5, #16
1a0033ae:	f101 0108 	add.w	r1, r1, #8
1a0033b2:	dd18      	ble.n	1a0033e6 <_vfprintf_r+0x396>
1a0033b4:	3201      	adds	r2, #1
1a0033b6:	4fba      	ldr	r7, [pc, #744]	; (1a0036a0 <_vfprintf_r+0x650>)
1a0033b8:	3010      	adds	r0, #16
1a0033ba:	2a07      	cmp	r2, #7
1a0033bc:	e9cd 202b 	strd	r2, r0, [sp, #172]	; 0xac
1a0033c0:	e9c1 7300 	strd	r7, r3, [r1]
1a0033c4:	ddf1      	ble.n	1a0033aa <_vfprintf_r+0x35a>
1a0033c6:	aa2a      	add	r2, sp, #168	; 0xa8
1a0033c8:	4631      	mov	r1, r6
1a0033ca:	4620      	mov	r0, r4
1a0033cc:	930c      	str	r3, [sp, #48]	; 0x30
1a0033ce:	f009 f865 	bl	1a00c49c <__sprint_r>
1a0033d2:	2800      	cmp	r0, #0
1a0033d4:	f040 843d 	bne.w	1a003c52 <_vfprintf_r+0xc02>
1a0033d8:	3d10      	subs	r5, #16
1a0033da:	2d10      	cmp	r5, #16
1a0033dc:	e9dd 202b 	ldrd	r2, r0, [sp, #172]	; 0xac
1a0033e0:	a92d      	add	r1, sp, #180	; 0xb4
1a0033e2:	9b0c      	ldr	r3, [sp, #48]	; 0x30
1a0033e4:	dce6      	bgt.n	1a0033b4 <_vfprintf_r+0x364>
1a0033e6:	9e20      	ldr	r6, [sp, #128]	; 0x80
1a0033e8:	465f      	mov	r7, fp
1a0033ea:	4604      	mov	r4, r0
1a0033ec:	468b      	mov	fp, r1
1a0033ee:	3201      	adds	r2, #1
1a0033f0:	4bab      	ldr	r3, [pc, #684]	; (1a0036a0 <_vfprintf_r+0x650>)
1a0033f2:	442c      	add	r4, r5
1a0033f4:	2a07      	cmp	r2, #7
1a0033f6:	e9cd 242b 	strd	r2, r4, [sp, #172]	; 0xac
1a0033fa:	e9cb 3500 	strd	r3, r5, [fp]
1a0033fe:	f300 84ff 	bgt.w	1a003e00 <_vfprintf_r+0xdb0>
1a003402:	f89d 208b 	ldrb.w	r2, [sp, #139]	; 0x8b
1a003406:	f10b 0b08 	add.w	fp, fp, #8
1a00340a:	b172      	cbz	r2, 1a00342a <_vfprintf_r+0x3da>
1a00340c:	9a2b      	ldr	r2, [sp, #172]	; 0xac
1a00340e:	3201      	adds	r2, #1
1a003410:	3401      	adds	r4, #1
1a003412:	f10d 008b 	add.w	r0, sp, #139	; 0x8b
1a003416:	2101      	movs	r1, #1
1a003418:	2a07      	cmp	r2, #7
1a00341a:	e9cd 242b 	strd	r2, r4, [sp, #172]	; 0xac
1a00341e:	e9cb 0100 	strd	r0, r1, [fp]
1a003422:	f300 8418 	bgt.w	1a003c56 <_vfprintf_r+0xc06>
1a003426:	f10b 0b08 	add.w	fp, fp, #8
1a00342a:	9b0b      	ldr	r3, [sp, #44]	; 0x2c
1a00342c:	b16b      	cbz	r3, 1a00344a <_vfprintf_r+0x3fa>
1a00342e:	9b2b      	ldr	r3, [sp, #172]	; 0xac
1a003430:	3301      	adds	r3, #1
1a003432:	3402      	adds	r4, #2
1a003434:	a923      	add	r1, sp, #140	; 0x8c
1a003436:	2202      	movs	r2, #2
1a003438:	2b07      	cmp	r3, #7
1a00343a:	e9cd 342b 	strd	r3, r4, [sp, #172]	; 0xac
1a00343e:	e9cb 1200 	strd	r1, r2, [fp]
1a003442:	f300 8415 	bgt.w	1a003c70 <_vfprintf_r+0xc20>
1a003446:	f10b 0b08 	add.w	fp, fp, #8
1a00344a:	9b0e      	ldr	r3, [sp, #56]	; 0x38
1a00344c:	2b80      	cmp	r3, #128	; 0x80
1a00344e:	f000 8331 	beq.w	1a003ab4 <_vfprintf_r+0xa64>
1a003452:	9b09      	ldr	r3, [sp, #36]	; 0x24
1a003454:	eba9 0503 	sub.w	r5, r9, r3
1a003458:	2d00      	cmp	r5, #0
1a00345a:	dd37      	ble.n	1a0034cc <_vfprintf_r+0x47c>
1a00345c:	2d10      	cmp	r5, #16
1a00345e:	9a2b      	ldr	r2, [sp, #172]	; 0xac
1a003460:	4b90      	ldr	r3, [pc, #576]	; (1a0036a4 <_vfprintf_r+0x654>)
1a003462:	dd28      	ble.n	1a0034b6 <_vfprintf_r+0x466>
1a003464:	4659      	mov	r1, fp
1a003466:	4620      	mov	r0, r4
1a003468:	46bb      	mov	fp, r7
1a00346a:	f04f 0910 	mov.w	r9, #16
1a00346e:	4637      	mov	r7, r6
1a003470:	461c      	mov	r4, r3
1a003472:	9e07      	ldr	r6, [sp, #28]
1a003474:	e004      	b.n	1a003480 <_vfprintf_r+0x430>
1a003476:	3d10      	subs	r5, #16
1a003478:	2d10      	cmp	r5, #16
1a00347a:	f101 0108 	add.w	r1, r1, #8
1a00347e:	dd15      	ble.n	1a0034ac <_vfprintf_r+0x45c>
1a003480:	3201      	adds	r2, #1
1a003482:	3010      	adds	r0, #16
1a003484:	2a07      	cmp	r2, #7
1a003486:	e9cd 202b 	strd	r2, r0, [sp, #172]	; 0xac
1a00348a:	e9c1 4900 	strd	r4, r9, [r1]
1a00348e:	ddf2      	ble.n	1a003476 <_vfprintf_r+0x426>
1a003490:	aa2a      	add	r2, sp, #168	; 0xa8
1a003492:	4631      	mov	r1, r6
1a003494:	9803      	ldr	r0, [sp, #12]
1a003496:	f009 f801 	bl	1a00c49c <__sprint_r>
1a00349a:	2800      	cmp	r0, #0
1a00349c:	f040 83d9 	bne.w	1a003c52 <_vfprintf_r+0xc02>
1a0034a0:	3d10      	subs	r5, #16
1a0034a2:	2d10      	cmp	r5, #16
1a0034a4:	e9dd 202b 	ldrd	r2, r0, [sp, #172]	; 0xac
1a0034a8:	a92d      	add	r1, sp, #180	; 0xb4
1a0034aa:	dce9      	bgt.n	1a003480 <_vfprintf_r+0x430>
1a0034ac:	463e      	mov	r6, r7
1a0034ae:	4623      	mov	r3, r4
1a0034b0:	465f      	mov	r7, fp
1a0034b2:	4604      	mov	r4, r0
1a0034b4:	468b      	mov	fp, r1
1a0034b6:	3201      	adds	r2, #1
1a0034b8:	442c      	add	r4, r5
1a0034ba:	2a07      	cmp	r2, #7
1a0034bc:	e9cd 242b 	strd	r2, r4, [sp, #172]	; 0xac
1a0034c0:	e9cb 3500 	strd	r3, r5, [fp]
1a0034c4:	f300 83ef 	bgt.w	1a003ca6 <_vfprintf_r+0xc56>
1a0034c8:	f10b 0b08 	add.w	fp, fp, #8
1a0034cc:	f418 7f80 	tst.w	r8, #256	; 0x100
1a0034d0:	f040 8280 	bne.w	1a0039d4 <_vfprintf_r+0x984>
1a0034d4:	9b2b      	ldr	r3, [sp, #172]	; 0xac
1a0034d6:	9a09      	ldr	r2, [sp, #36]	; 0x24
1a0034d8:	f8cb 7000 	str.w	r7, [fp]
1a0034dc:	3301      	adds	r3, #1
1a0034de:	4414      	add	r4, r2
1a0034e0:	2b07      	cmp	r3, #7
1a0034e2:	942c      	str	r4, [sp, #176]	; 0xb0
1a0034e4:	f8cb 2004 	str.w	r2, [fp, #4]
1a0034e8:	932b      	str	r3, [sp, #172]	; 0xac
1a0034ea:	f300 8392 	bgt.w	1a003c12 <_vfprintf_r+0xbc2>
1a0034ee:	f10b 0b08 	add.w	fp, fp, #8
1a0034f2:	f018 0f04 	tst.w	r8, #4
1a0034f6:	d03b      	beq.n	1a003570 <_vfprintf_r+0x520>
1a0034f8:	9b06      	ldr	r3, [sp, #24]
1a0034fa:	9a04      	ldr	r2, [sp, #16]
1a0034fc:	1a9d      	subs	r5, r3, r2
1a0034fe:	2d00      	cmp	r5, #0
1a003500:	dd36      	ble.n	1a003570 <_vfprintf_r+0x520>
1a003502:	2d10      	cmp	r5, #16
1a003504:	9b2b      	ldr	r3, [sp, #172]	; 0xac
1a003506:	dd21      	ble.n	1a00354c <_vfprintf_r+0x4fc>
1a003508:	2610      	movs	r6, #16
1a00350a:	9f03      	ldr	r7, [sp, #12]
1a00350c:	f8dd 801c 	ldr.w	r8, [sp, #28]
1a003510:	e004      	b.n	1a00351c <_vfprintf_r+0x4cc>
1a003512:	3d10      	subs	r5, #16
1a003514:	2d10      	cmp	r5, #16
1a003516:	f10b 0b08 	add.w	fp, fp, #8
1a00351a:	dd17      	ble.n	1a00354c <_vfprintf_r+0x4fc>
1a00351c:	3301      	adds	r3, #1
1a00351e:	4a60      	ldr	r2, [pc, #384]	; (1a0036a0 <_vfprintf_r+0x650>)
1a003520:	3410      	adds	r4, #16
1a003522:	2b07      	cmp	r3, #7
1a003524:	e9cd 342b 	strd	r3, r4, [sp, #172]	; 0xac
1a003528:	e9cb 2600 	strd	r2, r6, [fp]
1a00352c:	ddf1      	ble.n	1a003512 <_vfprintf_r+0x4c2>
1a00352e:	aa2a      	add	r2, sp, #168	; 0xa8
1a003530:	4641      	mov	r1, r8
1a003532:	4638      	mov	r0, r7
1a003534:	f008 ffb2 	bl	1a00c49c <__sprint_r>
1a003538:	2800      	cmp	r0, #0
1a00353a:	f040 856c 	bne.w	1a004016 <_vfprintf_r+0xfc6>
1a00353e:	3d10      	subs	r5, #16
1a003540:	2d10      	cmp	r5, #16
1a003542:	e9dd 342b 	ldrd	r3, r4, [sp, #172]	; 0xac
1a003546:	f10d 0bb4 	add.w	fp, sp, #180	; 0xb4
1a00354a:	dce7      	bgt.n	1a00351c <_vfprintf_r+0x4cc>
1a00354c:	3301      	adds	r3, #1
1a00354e:	4a54      	ldr	r2, [pc, #336]	; (1a0036a0 <_vfprintf_r+0x650>)
1a003550:	442c      	add	r4, r5
1a003552:	2b07      	cmp	r3, #7
1a003554:	e9cd 342b 	strd	r3, r4, [sp, #172]	; 0xac
1a003558:	e9cb 2500 	strd	r2, r5, [fp]
1a00355c:	dd08      	ble.n	1a003570 <_vfprintf_r+0x520>
1a00355e:	aa2a      	add	r2, sp, #168	; 0xa8
1a003560:	9907      	ldr	r1, [sp, #28]
1a003562:	9803      	ldr	r0, [sp, #12]
1a003564:	f008 ff9a 	bl	1a00c49c <__sprint_r>
1a003568:	2800      	cmp	r0, #0
1a00356a:	f040 82e9 	bne.w	1a003b40 <_vfprintf_r+0xaf0>
1a00356e:	9c2c      	ldr	r4, [sp, #176]	; 0xb0
1a003570:	9904      	ldr	r1, [sp, #16]
1a003572:	e9dd 3205 	ldrd	r3, r2, [sp, #20]
1a003576:	428a      	cmp	r2, r1
1a003578:	bfac      	ite	ge
1a00357a:	189b      	addge	r3, r3, r2
1a00357c:	185b      	addlt	r3, r3, r1
1a00357e:	9305      	str	r3, [sp, #20]
1a003580:	2c00      	cmp	r4, #0
1a003582:	f040 82d5 	bne.w	1a003b30 <_vfprintf_r+0xae0>
1a003586:	2300      	movs	r3, #0
1a003588:	932b      	str	r3, [sp, #172]	; 0xac
1a00358a:	9b0a      	ldr	r3, [sp, #40]	; 0x28
1a00358c:	b11b      	cbz	r3, 1a003596 <_vfprintf_r+0x546>
1a00358e:	990a      	ldr	r1, [sp, #40]	; 0x28
1a003590:	9803      	ldr	r0, [sp, #12]
1a003592:	f004 f853 	bl	1a00763c <_free_r>
1a003596:	f10d 0bb4 	add.w	fp, sp, #180	; 0xb4
1a00359a:	4657      	mov	r7, sl
1a00359c:	783b      	ldrb	r3, [r7, #0]
1a00359e:	2b00      	cmp	r3, #0
1a0035a0:	f47f ada7 	bne.w	1a0030f2 <_vfprintf_r+0xa2>
1a0035a4:	9b2c      	ldr	r3, [sp, #176]	; 0xb0
1a0035a6:	f8dd 901c 	ldr.w	r9, [sp, #28]
1a0035aa:	2b00      	cmp	r3, #0
1a0035ac:	f041 80e7 	bne.w	1a00477e <_vfprintf_r+0x172e>
1a0035b0:	2300      	movs	r3, #0
1a0035b2:	932b      	str	r3, [sp, #172]	; 0xac
1a0035b4:	e2cb      	b.n	1a003b4e <_vfprintf_r+0xafe>
1a0035b6:	4643      	mov	r3, r8
1a0035b8:	069a      	lsls	r2, r3, #26
1a0035ba:	f140 814e 	bpl.w	1a00385a <_vfprintf_r+0x80a>
1a0035be:	9c08      	ldr	r4, [sp, #32]
1a0035c0:	3407      	adds	r4, #7
1a0035c2:	f024 0207 	bic.w	r2, r4, #7
1a0035c6:	f102 0108 	add.w	r1, r2, #8
1a0035ca:	e9d2 4500 	ldrd	r4, r5, [r2]
1a0035ce:	9108      	str	r1, [sp, #32]
1a0035d0:	2201      	movs	r2, #1
1a0035d2:	2100      	movs	r1, #0
1a0035d4:	f88d 108b 	strb.w	r1, [sp, #139]	; 0x8b
1a0035d8:	f1b9 3fff 	cmp.w	r9, #4294967295	; 0xffffffff
1a0035dc:	a956      	add	r1, sp, #344	; 0x158
1a0035de:	9104      	str	r1, [sp, #16]
1a0035e0:	f47f aea2 	bne.w	1a003328 <_vfprintf_r+0x2d8>
1a0035e4:	4698      	mov	r8, r3
1a0035e6:	2a01      	cmp	r2, #1
1a0035e8:	f000 8350 	beq.w	1a003c8c <_vfprintf_r+0xc3c>
1a0035ec:	2a02      	cmp	r2, #2
1a0035ee:	f000 831b 	beq.w	1a003c28 <_vfprintf_r+0xbd8>
1a0035f2:	a956      	add	r1, sp, #344	; 0x158
1a0035f4:	e000      	b.n	1a0035f8 <_vfprintf_r+0x5a8>
1a0035f6:	4639      	mov	r1, r7
1a0035f8:	08e2      	lsrs	r2, r4, #3
1a0035fa:	ea42 7245 	orr.w	r2, r2, r5, lsl #29
1a0035fe:	08e8      	lsrs	r0, r5, #3
1a003600:	f004 0307 	and.w	r3, r4, #7
1a003604:	4605      	mov	r5, r0
1a003606:	4614      	mov	r4, r2
1a003608:	3330      	adds	r3, #48	; 0x30
1a00360a:	ea54 0205 	orrs.w	r2, r4, r5
1a00360e:	f801 3c01 	strb.w	r3, [r1, #-1]
1a003612:	f101 37ff 	add.w	r7, r1, #4294967295	; 0xffffffff
1a003616:	d1ee      	bne.n	1a0035f6 <_vfprintf_r+0x5a6>
1a003618:	f018 0f01 	tst.w	r8, #1
1a00361c:	f000 8314 	beq.w	1a003c48 <_vfprintf_r+0xbf8>
1a003620:	2b30      	cmp	r3, #48	; 0x30
1a003622:	f000 8311 	beq.w	1a003c48 <_vfprintf_r+0xbf8>
1a003626:	9a04      	ldr	r2, [sp, #16]
1a003628:	3902      	subs	r1, #2
1a00362a:	2330      	movs	r3, #48	; 0x30
1a00362c:	1a52      	subs	r2, r2, r1
1a00362e:	f807 3c01 	strb.w	r3, [r7, #-1]
1a003632:	9209      	str	r2, [sp, #36]	; 0x24
1a003634:	460f      	mov	r7, r1
1a003636:	e68c      	b.n	1a003352 <_vfprintf_r+0x302>
1a003638:	f1a6 0330 	sub.w	r3, r6, #48	; 0x30
1a00363c:	2200      	movs	r2, #0
1a00363e:	f81a 6b01 	ldrb.w	r6, [sl], #1
1a003642:	eb02 0282 	add.w	r2, r2, r2, lsl #2
1a003646:	eb03 0242 	add.w	r2, r3, r2, lsl #1
1a00364a:	f1a6 0330 	sub.w	r3, r6, #48	; 0x30
1a00364e:	2b09      	cmp	r3, #9
1a003650:	d9f5      	bls.n	1a00363e <_vfprintf_r+0x5ee>
1a003652:	9206      	str	r2, [sp, #24]
1a003654:	e57c      	b.n	1a003150 <_vfprintf_r+0x100>
1a003656:	4b14      	ldr	r3, [pc, #80]	; (1a0036a8 <_vfprintf_r+0x658>)
1a003658:	9317      	str	r3, [sp, #92]	; 0x5c
1a00365a:	f018 0f20 	tst.w	r8, #32
1a00365e:	f000 8114 	beq.w	1a00388a <_vfprintf_r+0x83a>
1a003662:	9c08      	ldr	r4, [sp, #32]
1a003664:	3407      	adds	r4, #7
1a003666:	f024 0307 	bic.w	r3, r4, #7
1a00366a:	e9d3 4500 	ldrd	r4, r5, [r3]
1a00366e:	f103 0208 	add.w	r2, r3, #8
1a003672:	9208      	str	r2, [sp, #32]
1a003674:	f018 0f01 	tst.w	r8, #1
1a003678:	d009      	beq.n	1a00368e <_vfprintf_r+0x63e>
1a00367a:	ea54 0305 	orrs.w	r3, r4, r5
1a00367e:	d006      	beq.n	1a00368e <_vfprintf_r+0x63e>
1a003680:	2330      	movs	r3, #48	; 0x30
1a003682:	f88d 608d 	strb.w	r6, [sp, #141]	; 0x8d
1a003686:	f048 0802 	orr.w	r8, r8, #2
1a00368a:	f88d 308c 	strb.w	r3, [sp, #140]	; 0x8c
1a00368e:	f428 6380 	bic.w	r3, r8, #1024	; 0x400
1a003692:	2202      	movs	r2, #2
1a003694:	e79d      	b.n	1a0035d2 <_vfprintf_r+0x582>
1a003696:	f048 0801 	orr.w	r8, r8, #1
1a00369a:	f89a 6000 	ldrb.w	r6, [sl]
1a00369e:	e555      	b.n	1a00314c <_vfprintf_r+0xfc>
1a0036a0:	1a00d784 	.word	0x1a00d784
1a0036a4:	1a00d794 	.word	0x1a00d794
1a0036a8:	1a00d750 	.word	0x1a00d750
1a0036ac:	9e03      	ldr	r6, [sp, #12]
1a0036ae:	4630      	mov	r0, r6
1a0036b0:	f004 fab6 	bl	1a007c20 <_localeconv_r>
1a0036b4:	6843      	ldr	r3, [r0, #4]
1a0036b6:	9318      	str	r3, [sp, #96]	; 0x60
1a0036b8:	4618      	mov	r0, r3
1a0036ba:	f7ff fba1 	bl	1a002e00 <strlen>
1a0036be:	901b      	str	r0, [sp, #108]	; 0x6c
1a0036c0:	4604      	mov	r4, r0
1a0036c2:	4630      	mov	r0, r6
1a0036c4:	f004 faac 	bl	1a007c20 <_localeconv_r>
1a0036c8:	6883      	ldr	r3, [r0, #8]
1a0036ca:	931a      	str	r3, [sp, #104]	; 0x68
1a0036cc:	2c00      	cmp	r4, #0
1a0036ce:	f43f adb8 	beq.w	1a003242 <_vfprintf_r+0x1f2>
1a0036d2:	f89a 6000 	ldrb.w	r6, [sl]
1a0036d6:	2b00      	cmp	r3, #0
1a0036d8:	f43f ad38 	beq.w	1a00314c <_vfprintf_r+0xfc>
1a0036dc:	781b      	ldrb	r3, [r3, #0]
1a0036de:	2b00      	cmp	r3, #0
1a0036e0:	f43f ad34 	beq.w	1a00314c <_vfprintf_r+0xfc>
1a0036e4:	f448 6880 	orr.w	r8, r8, #1024	; 0x400
1a0036e8:	e530      	b.n	1a00314c <_vfprintf_r+0xfc>
1a0036ea:	9b08      	ldr	r3, [sp, #32]
1a0036ec:	f89a 6000 	ldrb.w	r6, [sl]
1a0036f0:	681a      	ldr	r2, [r3, #0]
1a0036f2:	9206      	str	r2, [sp, #24]
1a0036f4:	2a00      	cmp	r2, #0
1a0036f6:	f103 0304 	add.w	r3, r3, #4
1a0036fa:	f2c0 8697 	blt.w	1a00442c <_vfprintf_r+0x13dc>
1a0036fe:	9308      	str	r3, [sp, #32]
1a003700:	e524      	b.n	1a00314c <_vfprintf_r+0xfc>
1a003702:	f88d 508b 	strb.w	r5, [sp, #139]	; 0x8b
1a003706:	f89a 6000 	ldrb.w	r6, [sl]
1a00370a:	e51f      	b.n	1a00314c <_vfprintf_r+0xfc>
1a00370c:	f89a 6000 	ldrb.w	r6, [sl]
1a003710:	f048 0804 	orr.w	r8, r8, #4
1a003714:	e51a      	b.n	1a00314c <_vfprintf_r+0xfc>
1a003716:	f89a 6000 	ldrb.w	r6, [sl]
1a00371a:	2e2a      	cmp	r6, #42	; 0x2a
1a00371c:	f10a 0201 	add.w	r2, sl, #1
1a003720:	f001 81b0 	beq.w	1a004a84 <_vfprintf_r+0x1a34>
1a003724:	f1a6 0330 	sub.w	r3, r6, #48	; 0x30
1a003728:	2b09      	cmp	r3, #9
1a00372a:	4692      	mov	sl, r2
1a00372c:	f04f 0900 	mov.w	r9, #0
1a003730:	f63f ad0e 	bhi.w	1a003150 <_vfprintf_r+0x100>
1a003734:	f81a 6b01 	ldrb.w	r6, [sl], #1
1a003738:	eb09 0989 	add.w	r9, r9, r9, lsl #2
1a00373c:	eb03 0949 	add.w	r9, r3, r9, lsl #1
1a003740:	f1a6 0330 	sub.w	r3, r6, #48	; 0x30
1a003744:	2b09      	cmp	r3, #9
1a003746:	d9f5      	bls.n	1a003734 <_vfprintf_r+0x6e4>
1a003748:	e502      	b.n	1a003150 <_vfprintf_r+0x100>
1a00374a:	f048 0880 	orr.w	r8, r8, #128	; 0x80
1a00374e:	f89a 6000 	ldrb.w	r6, [sl]
1a003752:	e4fb      	b.n	1a00314c <_vfprintf_r+0xfc>
1a003754:	9c08      	ldr	r4, [sp, #32]
1a003756:	3407      	adds	r4, #7
1a003758:	f024 0407 	bic.w	r4, r4, #7
1a00375c:	ed94 7b00 	vldr	d7, [r4]
1a003760:	ec52 1b17 	vmov	r1, r2, d7
1a003764:	f022 4300 	bic.w	r3, r2, #2147483648	; 0x80000000
1a003768:	931d      	str	r3, [sp, #116]	; 0x74
1a00376a:	ed8d 7a1c 	vstr	s14, [sp, #112]	; 0x70
1a00376e:	3408      	adds	r4, #8
1a003770:	e9dd 011c 	ldrd	r0, r1, [sp, #112]	; 0x70
1a003774:	f04f 32ff 	mov.w	r2, #4294967295	; 0xffffffff
1a003778:	4bba      	ldr	r3, [pc, #744]	; (1a003a64 <_vfprintf_r+0xa14>)
1a00377a:	9408      	str	r4, [sp, #32]
1a00377c:	ed8d 7b12 	vstr	d7, [sp, #72]	; 0x48
1a003780:	f009 fcd8 	bl	1a00d134 <__aeabi_dcmpun>
1a003784:	2800      	cmp	r0, #0
1a003786:	f040 846f 	bne.w	1a004068 <_vfprintf_r+0x1018>
1a00378a:	f04f 32ff 	mov.w	r2, #4294967295	; 0xffffffff
1a00378e:	4bb5      	ldr	r3, [pc, #724]	; (1a003a64 <_vfprintf_r+0xa14>)
1a003790:	e9dd 011c 	ldrd	r0, r1, [sp, #112]	; 0x70
1a003794:	f7fe ffa6 	bl	1a0026e4 <__aeabi_dcmple>
1a003798:	2800      	cmp	r0, #0
1a00379a:	f040 8465 	bne.w	1a004068 <_vfprintf_r+0x1018>
1a00379e:	2200      	movs	r2, #0
1a0037a0:	2300      	movs	r3, #0
1a0037a2:	e9dd 0112 	ldrd	r0, r1, [sp, #72]	; 0x48
1a0037a6:	f7fe ff93 	bl	1a0026d0 <__aeabi_dcmplt>
1a0037aa:	2800      	cmp	r0, #0
1a0037ac:	f040 855b 	bne.w	1a004266 <_vfprintf_r+0x1216>
1a0037b0:	f89d 208b 	ldrb.w	r2, [sp, #139]	; 0x8b
1a0037b4:	4fac      	ldr	r7, [pc, #688]	; (1a003a68 <_vfprintf_r+0xa18>)
1a0037b6:	4bad      	ldr	r3, [pc, #692]	; (1a003a6c <_vfprintf_r+0xa1c>)
1a0037b8:	2000      	movs	r0, #0
1a0037ba:	2103      	movs	r1, #3
1a0037bc:	9104      	str	r1, [sp, #16]
1a0037be:	900a      	str	r0, [sp, #40]	; 0x28
1a0037c0:	f028 0880 	bic.w	r8, r8, #128	; 0x80
1a0037c4:	2e47      	cmp	r6, #71	; 0x47
1a0037c6:	bfd8      	it	le
1a0037c8:	461f      	movle	r7, r3
1a0037ca:	9109      	str	r1, [sp, #36]	; 0x24
1a0037cc:	4681      	mov	r9, r0
1a0037ce:	900f      	str	r0, [sp, #60]	; 0x3c
1a0037d0:	9014      	str	r0, [sp, #80]	; 0x50
1a0037d2:	9011      	str	r0, [sp, #68]	; 0x44
1a0037d4:	e5c9      	b.n	1a00336a <_vfprintf_r+0x31a>
1a0037d6:	9808      	ldr	r0, [sp, #32]
1a0037d8:	2300      	movs	r3, #0
1a0037da:	6801      	ldr	r1, [r0, #0]
1a0037dc:	f88d 308b 	strb.w	r3, [sp, #139]	; 0x8b
1a0037e0:	461a      	mov	r2, r3
1a0037e2:	f88d 10f4 	strb.w	r1, [sp, #244]	; 0xf4
1a0037e6:	2301      	movs	r3, #1
1a0037e8:	1d01      	adds	r1, r0, #4
1a0037ea:	9304      	str	r3, [sp, #16]
1a0037ec:	920a      	str	r2, [sp, #40]	; 0x28
1a0037ee:	4691      	mov	r9, r2
1a0037f0:	920f      	str	r2, [sp, #60]	; 0x3c
1a0037f2:	9214      	str	r2, [sp, #80]	; 0x50
1a0037f4:	9211      	str	r2, [sp, #68]	; 0x44
1a0037f6:	e9cd 1308 	strd	r1, r3, [sp, #32]
1a0037fa:	af3d      	add	r7, sp, #244	; 0xf4
1a0037fc:	e5b9      	b.n	1a003372 <_vfprintf_r+0x322>
1a0037fe:	9b08      	ldr	r3, [sp, #32]
1a003800:	681f      	ldr	r7, [r3, #0]
1a003802:	2500      	movs	r5, #0
1a003804:	f88d 508b 	strb.w	r5, [sp, #139]	; 0x8b
1a003808:	1d1c      	adds	r4, r3, #4
1a00380a:	2f00      	cmp	r7, #0
1a00380c:	f000 8639 	beq.w	1a004482 <_vfprintf_r+0x1432>
1a003810:	f1b9 3fff 	cmp.w	r9, #4294967295	; 0xffffffff
1a003814:	f000 8711 	beq.w	1a00463a <_vfprintf_r+0x15ea>
1a003818:	464a      	mov	r2, r9
1a00381a:	4629      	mov	r1, r5
1a00381c:	4638      	mov	r0, r7
1a00381e:	f004 fd87 	bl	1a008330 <memchr>
1a003822:	900a      	str	r0, [sp, #40]	; 0x28
1a003824:	2800      	cmp	r0, #0
1a003826:	f000 85e7 	beq.w	1a0043f8 <_vfprintf_r+0x13a8>
1a00382a:	9b0a      	ldr	r3, [sp, #40]	; 0x28
1a00382c:	1bdb      	subs	r3, r3, r7
1a00382e:	9309      	str	r3, [sp, #36]	; 0x24
1a003830:	46a9      	mov	r9, r5
1a003832:	ea23 73e3 	bic.w	r3, r3, r3, asr #31
1a003836:	9408      	str	r4, [sp, #32]
1a003838:	9304      	str	r3, [sp, #16]
1a00383a:	f8cd 9028 	str.w	r9, [sp, #40]	; 0x28
1a00383e:	f8cd 903c 	str.w	r9, [sp, #60]	; 0x3c
1a003842:	f8cd 9050 	str.w	r9, [sp, #80]	; 0x50
1a003846:	f8cd 9044 	str.w	r9, [sp, #68]	; 0x44
1a00384a:	f89d 208b 	ldrb.w	r2, [sp, #139]	; 0x8b
1a00384e:	e58c      	b.n	1a00336a <_vfprintf_r+0x31a>
1a003850:	f048 0310 	orr.w	r3, r8, #16
1a003854:	069a      	lsls	r2, r3, #26
1a003856:	f53f aeb2 	bmi.w	1a0035be <_vfprintf_r+0x56e>
1a00385a:	9a08      	ldr	r2, [sp, #32]
1a00385c:	06df      	lsls	r7, r3, #27
1a00385e:	f102 0104 	add.w	r1, r2, #4
1a003862:	f100 837e 	bmi.w	1a003f62 <_vfprintf_r+0xf12>
1a003866:	065d      	lsls	r5, r3, #25
1a003868:	9a08      	ldr	r2, [sp, #32]
1a00386a:	f100 84e4 	bmi.w	1a004236 <_vfprintf_r+0x11e6>
1a00386e:	059c      	lsls	r4, r3, #22
1a003870:	f140 8377 	bpl.w	1a003f62 <_vfprintf_r+0xf12>
1a003874:	7814      	ldrb	r4, [r2, #0]
1a003876:	9108      	str	r1, [sp, #32]
1a003878:	2500      	movs	r5, #0
1a00387a:	2201      	movs	r2, #1
1a00387c:	e6a9      	b.n	1a0035d2 <_vfprintf_r+0x582>
1a00387e:	4b7c      	ldr	r3, [pc, #496]	; (1a003a70 <_vfprintf_r+0xa20>)
1a003880:	9317      	str	r3, [sp, #92]	; 0x5c
1a003882:	f018 0f20 	tst.w	r8, #32
1a003886:	f47f aeec 	bne.w	1a003662 <_vfprintf_r+0x612>
1a00388a:	9a08      	ldr	r2, [sp, #32]
1a00388c:	f018 0f10 	tst.w	r8, #16
1a003890:	f102 0304 	add.w	r3, r2, #4
1a003894:	f040 8354 	bne.w	1a003f40 <_vfprintf_r+0xef0>
1a003898:	f018 0f40 	tst.w	r8, #64	; 0x40
1a00389c:	9a08      	ldr	r2, [sp, #32]
1a00389e:	f040 84d0 	bne.w	1a004242 <_vfprintf_r+0x11f2>
1a0038a2:	f418 7f00 	tst.w	r8, #512	; 0x200
1a0038a6:	f000 834b 	beq.w	1a003f40 <_vfprintf_r+0xef0>
1a0038aa:	7814      	ldrb	r4, [r2, #0]
1a0038ac:	9308      	str	r3, [sp, #32]
1a0038ae:	2500      	movs	r5, #0
1a0038b0:	e6e0      	b.n	1a003674 <_vfprintf_r+0x624>
1a0038b2:	f89d 308b 	ldrb.w	r3, [sp, #139]	; 0x8b
1a0038b6:	f89a 6000 	ldrb.w	r6, [sl]
1a0038ba:	2b00      	cmp	r3, #0
1a0038bc:	f47f ac46 	bne.w	1a00314c <_vfprintf_r+0xfc>
1a0038c0:	2320      	movs	r3, #32
1a0038c2:	f88d 308b 	strb.w	r3, [sp, #139]	; 0x8b
1a0038c6:	e441      	b.n	1a00314c <_vfprintf_r+0xfc>
1a0038c8:	f89a 6000 	ldrb.w	r6, [sl]
1a0038cc:	2e6c      	cmp	r6, #108	; 0x6c
1a0038ce:	bf03      	ittte	eq
1a0038d0:	f89a 6001 	ldrbeq.w	r6, [sl, #1]
1a0038d4:	f048 0820 	orreq.w	r8, r8, #32
1a0038d8:	f10a 0a01 	addeq.w	sl, sl, #1
1a0038dc:	f048 0810 	orrne.w	r8, r8, #16
1a0038e0:	e434      	b.n	1a00314c <_vfprintf_r+0xfc>
1a0038e2:	9a08      	ldr	r2, [sp, #32]
1a0038e4:	f018 0f20 	tst.w	r8, #32
1a0038e8:	f852 3b04 	ldr.w	r3, [r2], #4
1a0038ec:	9208      	str	r2, [sp, #32]
1a0038ee:	f000 83a1 	beq.w	1a004034 <_vfprintf_r+0xfe4>
1a0038f2:	9a05      	ldr	r2, [sp, #20]
1a0038f4:	4610      	mov	r0, r2
1a0038f6:	17d1      	asrs	r1, r2, #31
1a0038f8:	e9c3 0100 	strd	r0, r1, [r3]
1a0038fc:	4657      	mov	r7, sl
1a0038fe:	e64d      	b.n	1a00359c <_vfprintf_r+0x54c>
1a003900:	f89a 6000 	ldrb.w	r6, [sl]
1a003904:	2e68      	cmp	r6, #104	; 0x68
1a003906:	bf03      	ittte	eq
1a003908:	f89a 6001 	ldrbeq.w	r6, [sl, #1]
1a00390c:	f448 7800 	orreq.w	r8, r8, #512	; 0x200
1a003910:	f10a 0a01 	addeq.w	sl, sl, #1
1a003914:	f048 0840 	orrne.w	r8, r8, #64	; 0x40
1a003918:	e418      	b.n	1a00314c <_vfprintf_r+0xfc>
1a00391a:	9908      	ldr	r1, [sp, #32]
1a00391c:	4b55      	ldr	r3, [pc, #340]	; (1a003a74 <_vfprintf_r+0xa24>)
1a00391e:	680c      	ldr	r4, [r1, #0]
1a003920:	9317      	str	r3, [sp, #92]	; 0x5c
1a003922:	f647 0230 	movw	r2, #30768	; 0x7830
1a003926:	3104      	adds	r1, #4
1a003928:	f8ad 208c 	strh.w	r2, [sp, #140]	; 0x8c
1a00392c:	f048 0302 	orr.w	r3, r8, #2
1a003930:	9108      	str	r1, [sp, #32]
1a003932:	2500      	movs	r5, #0
1a003934:	2202      	movs	r2, #2
1a003936:	2678      	movs	r6, #120	; 0x78
1a003938:	e64b      	b.n	1a0035d2 <_vfprintf_r+0x582>
1a00393a:	f048 0808 	orr.w	r8, r8, #8
1a00393e:	f89a 6000 	ldrb.w	r6, [sl]
1a003942:	e403      	b.n	1a00314c <_vfprintf_r+0xfc>
1a003944:	f048 0310 	orr.w	r3, r8, #16
1a003948:	069f      	lsls	r7, r3, #26
1a00394a:	f53f acd1 	bmi.w	1a0032f0 <_vfprintf_r+0x2a0>
1a00394e:	9908      	ldr	r1, [sp, #32]
1a003950:	06dd      	lsls	r5, r3, #27
1a003952:	f101 0204 	add.w	r2, r1, #4
1a003956:	f100 82fd 	bmi.w	1a003f54 <_vfprintf_r+0xf04>
1a00395a:	065c      	lsls	r4, r3, #25
1a00395c:	9908      	ldr	r1, [sp, #32]
1a00395e:	f100 8475 	bmi.w	1a00424c <_vfprintf_r+0x11fc>
1a003962:	0598      	lsls	r0, r3, #22
1a003964:	f140 82f6 	bpl.w	1a003f54 <_vfprintf_r+0xf04>
1a003968:	f991 4000 	ldrsb.w	r4, [r1]
1a00396c:	9208      	str	r2, [sp, #32]
1a00396e:	17e5      	asrs	r5, r4, #31
1a003970:	4620      	mov	r0, r4
1a003972:	4629      	mov	r1, r5
1a003974:	e4c7      	b.n	1a003306 <_vfprintf_r+0x2b6>
1a003976:	9a08      	ldr	r2, [sp, #32]
1a003978:	f018 0f10 	tst.w	r8, #16
1a00397c:	f102 0304 	add.w	r3, r2, #4
1a003980:	f040 82e3 	bne.w	1a003f4a <_vfprintf_r+0xefa>
1a003984:	f018 0f40 	tst.w	r8, #64	; 0x40
1a003988:	9a08      	ldr	r2, [sp, #32]
1a00398a:	f040 8467 	bne.w	1a00425c <_vfprintf_r+0x120c>
1a00398e:	f418 7f00 	tst.w	r8, #512	; 0x200
1a003992:	f000 82da 	beq.w	1a003f4a <_vfprintf_r+0xefa>
1a003996:	7814      	ldrb	r4, [r2, #0]
1a003998:	9308      	str	r3, [sp, #32]
1a00399a:	2500      	movs	r5, #0
1a00399c:	e488      	b.n	1a0032b0 <_vfprintf_r+0x260>
1a00399e:	f8d9 0058 	ldr.w	r0, [r9, #88]	; 0x58
1a0039a2:	f004 f951 	bl	1a007c48 <__retarget_lock_release_recursive>
1a0039a6:	f04f 33ff 	mov.w	r3, #4294967295	; 0xffffffff
1a0039aa:	9305      	str	r3, [sp, #20]
1a0039ac:	e443      	b.n	1a003236 <_vfprintf_r+0x1e6>
1a0039ae:	2e00      	cmp	r6, #0
1a0039b0:	f43f adf8 	beq.w	1a0035a4 <_vfprintf_r+0x554>
1a0039b4:	2300      	movs	r3, #0
1a0039b6:	2101      	movs	r1, #1
1a0039b8:	461a      	mov	r2, r3
1a0039ba:	9104      	str	r1, [sp, #16]
1a0039bc:	f88d 60f4 	strb.w	r6, [sp, #244]	; 0xf4
1a0039c0:	f88d 308b 	strb.w	r3, [sp, #139]	; 0x8b
1a0039c4:	930a      	str	r3, [sp, #40]	; 0x28
1a0039c6:	4699      	mov	r9, r3
1a0039c8:	930f      	str	r3, [sp, #60]	; 0x3c
1a0039ca:	9314      	str	r3, [sp, #80]	; 0x50
1a0039cc:	9311      	str	r3, [sp, #68]	; 0x44
1a0039ce:	9109      	str	r1, [sp, #36]	; 0x24
1a0039d0:	af3d      	add	r7, sp, #244	; 0xf4
1a0039d2:	e4ce      	b.n	1a003372 <_vfprintf_r+0x322>
1a0039d4:	2e65      	cmp	r6, #101	; 0x65
1a0039d6:	f340 80ca 	ble.w	1a003b6e <_vfprintf_r+0xb1e>
1a0039da:	2200      	movs	r2, #0
1a0039dc:	2300      	movs	r3, #0
1a0039de:	e9dd 0112 	ldrd	r0, r1, [sp, #72]	; 0x48
1a0039e2:	f7fe fe6b 	bl	1a0026bc <__aeabi_dcmpeq>
1a0039e6:	2800      	cmp	r0, #0
1a0039e8:	f000 8169 	beq.w	1a003cbe <_vfprintf_r+0xc6e>
1a0039ec:	9b2b      	ldr	r3, [sp, #172]	; 0xac
1a0039ee:	4a22      	ldr	r2, [pc, #136]	; (1a003a78 <_vfprintf_r+0xa28>)
1a0039f0:	f8cb 2000 	str.w	r2, [fp]
1a0039f4:	3301      	adds	r3, #1
1a0039f6:	3401      	adds	r4, #1
1a0039f8:	2201      	movs	r2, #1
1a0039fa:	2b07      	cmp	r3, #7
1a0039fc:	e9cd 342b 	strd	r3, r4, [sp, #172]	; 0xac
1a003a00:	f8cb 2004 	str.w	r2, [fp, #4]
1a003a04:	f300 8406 	bgt.w	1a004214 <_vfprintf_r+0x11c4>
1a003a08:	f10b 0b08 	add.w	fp, fp, #8
1a003a0c:	9b24      	ldr	r3, [sp, #144]	; 0x90
1a003a0e:	9a10      	ldr	r2, [sp, #64]	; 0x40
1a003a10:	9c2c      	ldr	r4, [sp, #176]	; 0xb0
1a003a12:	4293      	cmp	r3, r2
1a003a14:	db03      	blt.n	1a003a1e <_vfprintf_r+0x9ce>
1a003a16:	f018 0f01 	tst.w	r8, #1
1a003a1a:	f43f ad6a 	beq.w	1a0034f2 <_vfprintf_r+0x4a2>
1a003a1e:	9b2b      	ldr	r3, [sp, #172]	; 0xac
1a003a20:	9a16      	ldr	r2, [sp, #88]	; 0x58
1a003a22:	f8cb 2000 	str.w	r2, [fp]
1a003a26:	9a15      	ldr	r2, [sp, #84]	; 0x54
1a003a28:	f8cb 2004 	str.w	r2, [fp, #4]
1a003a2c:	3301      	adds	r3, #1
1a003a2e:	4414      	add	r4, r2
1a003a30:	2b07      	cmp	r3, #7
1a003a32:	e9cd 342b 	strd	r3, r4, [sp, #172]	; 0xac
1a003a36:	f300 8517 	bgt.w	1a004468 <_vfprintf_r+0x1418>
1a003a3a:	f10b 0b08 	add.w	fp, fp, #8
1a003a3e:	9b10      	ldr	r3, [sp, #64]	; 0x40
1a003a40:	1e5d      	subs	r5, r3, #1
1a003a42:	2d00      	cmp	r5, #0
1a003a44:	f77f ad55 	ble.w	1a0034f2 <_vfprintf_r+0x4a2>
1a003a48:	2d10      	cmp	r5, #16
1a003a4a:	9a2b      	ldr	r2, [sp, #172]	; 0xac
1a003a4c:	4b0b      	ldr	r3, [pc, #44]	; (1a003a7c <_vfprintf_r+0xa2c>)
1a003a4e:	f340 82e7 	ble.w	1a004020 <_vfprintf_r+0xfd0>
1a003a52:	4619      	mov	r1, r3
1a003a54:	2610      	movs	r6, #16
1a003a56:	4623      	mov	r3, r4
1a003a58:	9f03      	ldr	r7, [sp, #12]
1a003a5a:	f8dd 901c 	ldr.w	r9, [sp, #28]
1a003a5e:	460c      	mov	r4, r1
1a003a60:	e014      	b.n	1a003a8c <_vfprintf_r+0xa3c>
1a003a62:	bf00      	nop
1a003a64:	7fefffff 	.word	0x7fefffff
1a003a68:	1a00d744 	.word	0x1a00d744
1a003a6c:	1a00d740 	.word	0x1a00d740
1a003a70:	1a00d764 	.word	0x1a00d764
1a003a74:	1a00d750 	.word	0x1a00d750
1a003a78:	1a00d780 	.word	0x1a00d780
1a003a7c:	1a00d794 	.word	0x1a00d794
1a003a80:	f10b 0b08 	add.w	fp, fp, #8
1a003a84:	3d10      	subs	r5, #16
1a003a86:	2d10      	cmp	r5, #16
1a003a88:	f340 82c7 	ble.w	1a00401a <_vfprintf_r+0xfca>
1a003a8c:	3201      	adds	r2, #1
1a003a8e:	3310      	adds	r3, #16
1a003a90:	2a07      	cmp	r2, #7
1a003a92:	e9cd 232b 	strd	r2, r3, [sp, #172]	; 0xac
1a003a96:	e9cb 4600 	strd	r4, r6, [fp]
1a003a9a:	ddf1      	ble.n	1a003a80 <_vfprintf_r+0xa30>
1a003a9c:	aa2a      	add	r2, sp, #168	; 0xa8
1a003a9e:	4649      	mov	r1, r9
1a003aa0:	4638      	mov	r0, r7
1a003aa2:	f008 fcfb 	bl	1a00c49c <__sprint_r>
1a003aa6:	2800      	cmp	r0, #0
1a003aa8:	d14c      	bne.n	1a003b44 <_vfprintf_r+0xaf4>
1a003aaa:	e9dd 232b 	ldrd	r2, r3, [sp, #172]	; 0xac
1a003aae:	f10d 0bb4 	add.w	fp, sp, #180	; 0xb4
1a003ab2:	e7e7      	b.n	1a003a84 <_vfprintf_r+0xa34>
1a003ab4:	9b06      	ldr	r3, [sp, #24]
1a003ab6:	9a04      	ldr	r2, [sp, #16]
1a003ab8:	1a9d      	subs	r5, r3, r2
1a003aba:	2d00      	cmp	r5, #0
1a003abc:	f77f acc9 	ble.w	1a003452 <_vfprintf_r+0x402>
1a003ac0:	2d10      	cmp	r5, #16
1a003ac2:	9a2b      	ldr	r2, [sp, #172]	; 0xac
1a003ac4:	4bbc      	ldr	r3, [pc, #752]	; (1a003db8 <_vfprintf_r+0xd68>)
1a003ac6:	dd27      	ble.n	1a003b18 <_vfprintf_r+0xac8>
1a003ac8:	4659      	mov	r1, fp
1a003aca:	4620      	mov	r0, r4
1a003acc:	46bb      	mov	fp, r7
1a003ace:	461c      	mov	r4, r3
1a003ad0:	4637      	mov	r7, r6
1a003ad2:	9e07      	ldr	r6, [sp, #28]
1a003ad4:	e004      	b.n	1a003ae0 <_vfprintf_r+0xa90>
1a003ad6:	3d10      	subs	r5, #16
1a003ad8:	2d10      	cmp	r5, #16
1a003ada:	f101 0108 	add.w	r1, r1, #8
1a003ade:	dd16      	ble.n	1a003b0e <_vfprintf_r+0xabe>
1a003ae0:	3201      	adds	r2, #1
1a003ae2:	3010      	adds	r0, #16
1a003ae4:	2310      	movs	r3, #16
1a003ae6:	2a07      	cmp	r2, #7
1a003ae8:	e9cd 202b 	strd	r2, r0, [sp, #172]	; 0xac
1a003aec:	600c      	str	r4, [r1, #0]
1a003aee:	604b      	str	r3, [r1, #4]
1a003af0:	ddf1      	ble.n	1a003ad6 <_vfprintf_r+0xa86>
1a003af2:	aa2a      	add	r2, sp, #168	; 0xa8
1a003af4:	4631      	mov	r1, r6
1a003af6:	9803      	ldr	r0, [sp, #12]
1a003af8:	f008 fcd0 	bl	1a00c49c <__sprint_r>
1a003afc:	2800      	cmp	r0, #0
1a003afe:	f040 80a8 	bne.w	1a003c52 <_vfprintf_r+0xc02>
1a003b02:	3d10      	subs	r5, #16
1a003b04:	2d10      	cmp	r5, #16
1a003b06:	e9dd 202b 	ldrd	r2, r0, [sp, #172]	; 0xac
1a003b0a:	a92d      	add	r1, sp, #180	; 0xb4
1a003b0c:	dce8      	bgt.n	1a003ae0 <_vfprintf_r+0xa90>
1a003b0e:	463e      	mov	r6, r7
1a003b10:	4623      	mov	r3, r4
1a003b12:	465f      	mov	r7, fp
1a003b14:	4604      	mov	r4, r0
1a003b16:	468b      	mov	fp, r1
1a003b18:	3201      	adds	r2, #1
1a003b1a:	442c      	add	r4, r5
1a003b1c:	2a07      	cmp	r2, #7
1a003b1e:	e9cd 242b 	strd	r2, r4, [sp, #172]	; 0xac
1a003b22:	e9cb 3500 	strd	r3, r5, [fp]
1a003b26:	f300 8292 	bgt.w	1a00404e <_vfprintf_r+0xffe>
1a003b2a:	f10b 0b08 	add.w	fp, fp, #8
1a003b2e:	e490      	b.n	1a003452 <_vfprintf_r+0x402>
1a003b30:	aa2a      	add	r2, sp, #168	; 0xa8
1a003b32:	9907      	ldr	r1, [sp, #28]
1a003b34:	9803      	ldr	r0, [sp, #12]
1a003b36:	f008 fcb1 	bl	1a00c49c <__sprint_r>
1a003b3a:	2800      	cmp	r0, #0
1a003b3c:	f43f ad23 	beq.w	1a003586 <_vfprintf_r+0x536>
1a003b40:	f8dd 901c 	ldr.w	r9, [sp, #28]
1a003b44:	990a      	ldr	r1, [sp, #40]	; 0x28
1a003b46:	b111      	cbz	r1, 1a003b4e <_vfprintf_r+0xafe>
1a003b48:	9803      	ldr	r0, [sp, #12]
1a003b4a:	f003 fd77 	bl	1a00763c <_free_r>
1a003b4e:	f8d9 2064 	ldr.w	r2, [r9, #100]	; 0x64
1a003b52:	f8b9 300c 	ldrh.w	r3, [r9, #12]
1a003b56:	07d0      	lsls	r0, r2, #31
1a003b58:	d402      	bmi.n	1a003b60 <_vfprintf_r+0xb10>
1a003b5a:	0599      	lsls	r1, r3, #22
1a003b5c:	f140 81d0 	bpl.w	1a003f00 <_vfprintf_r+0xeb0>
1a003b60:	065a      	lsls	r2, r3, #25
1a003b62:	f53f ab65 	bmi.w	1a003230 <_vfprintf_r+0x1e0>
1a003b66:	9805      	ldr	r0, [sp, #20]
1a003b68:	b057      	add	sp, #348	; 0x15c
1a003b6a:	e8bd 8ff0 	ldmia.w	sp!, {r4, r5, r6, r7, r8, r9, sl, fp, pc}
1a003b6e:	9a10      	ldr	r2, [sp, #64]	; 0x40
1a003b70:	9b2b      	ldr	r3, [sp, #172]	; 0xac
1a003b72:	2a01      	cmp	r2, #1
1a003b74:	f104 0401 	add.w	r4, r4, #1
1a003b78:	f103 0501 	add.w	r5, r3, #1
1a003b7c:	f10b 0608 	add.w	r6, fp, #8
1a003b80:	f340 811c 	ble.w	1a003dbc <_vfprintf_r+0xd6c>
1a003b84:	2301      	movs	r3, #1
1a003b86:	2d07      	cmp	r5, #7
1a003b88:	f8cb 7000 	str.w	r7, [fp]
1a003b8c:	e9cd 542b 	strd	r5, r4, [sp, #172]	; 0xac
1a003b90:	f8cb 3004 	str.w	r3, [fp, #4]
1a003b94:	f300 81bb 	bgt.w	1a003f0e <_vfprintf_r+0xebe>
1a003b98:	9b15      	ldr	r3, [sp, #84]	; 0x54
1a003b9a:	9a16      	ldr	r2, [sp, #88]	; 0x58
1a003b9c:	1c69      	adds	r1, r5, #1
1a003b9e:	441c      	add	r4, r3
1a003ba0:	2907      	cmp	r1, #7
1a003ba2:	910b      	str	r1, [sp, #44]	; 0x2c
1a003ba4:	e9cd 142b 	strd	r1, r4, [sp, #172]	; 0xac
1a003ba8:	e9c6 2300 	strd	r2, r3, [r6]
1a003bac:	f300 81bb 	bgt.w	1a003f26 <_vfprintf_r+0xed6>
1a003bb0:	3608      	adds	r6, #8
1a003bb2:	9a0b      	ldr	r2, [sp, #44]	; 0x2c
1a003bb4:	1c53      	adds	r3, r2, #1
1a003bb6:	461d      	mov	r5, r3
1a003bb8:	9509      	str	r5, [sp, #36]	; 0x24
1a003bba:	9d10      	ldr	r5, [sp, #64]	; 0x40
1a003bbc:	930e      	str	r3, [sp, #56]	; 0x38
1a003bbe:	2200      	movs	r2, #0
1a003bc0:	2300      	movs	r3, #0
1a003bc2:	e9dd 0112 	ldrd	r0, r1, [sp, #72]	; 0x48
1a003bc6:	f105 39ff 	add.w	r9, r5, #4294967295	; 0xffffffff
1a003bca:	f106 0b08 	add.w	fp, r6, #8
1a003bce:	f7fe fd75 	bl	1a0026bc <__aeabi_dcmpeq>
1a003bd2:	2800      	cmp	r0, #0
1a003bd4:	f040 80c2 	bne.w	1a003d5c <_vfprintf_r+0xd0c>
1a003bd8:	9d09      	ldr	r5, [sp, #36]	; 0x24
1a003bda:	f8c6 9004 	str.w	r9, [r6, #4]
1a003bde:	3701      	adds	r7, #1
1a003be0:	444c      	add	r4, r9
1a003be2:	2d07      	cmp	r5, #7
1a003be4:	6037      	str	r7, [r6, #0]
1a003be6:	942c      	str	r4, [sp, #176]	; 0xb0
1a003be8:	952b      	str	r5, [sp, #172]	; 0xac
1a003bea:	f300 80f9 	bgt.w	1a003de0 <_vfprintf_r+0xd90>
1a003bee:	9a0b      	ldr	r2, [sp, #44]	; 0x2c
1a003bf0:	f106 0310 	add.w	r3, r6, #16
1a003bf4:	3202      	adds	r2, #2
1a003bf6:	465e      	mov	r6, fp
1a003bf8:	9209      	str	r2, [sp, #36]	; 0x24
1a003bfa:	469b      	mov	fp, r3
1a003bfc:	9a19      	ldr	r2, [sp, #100]	; 0x64
1a003bfe:	6072      	str	r2, [r6, #4]
1a003c00:	4414      	add	r4, r2
1a003c02:	9a09      	ldr	r2, [sp, #36]	; 0x24
1a003c04:	942c      	str	r4, [sp, #176]	; 0xb0
1a003c06:	ab26      	add	r3, sp, #152	; 0x98
1a003c08:	2a07      	cmp	r2, #7
1a003c0a:	922b      	str	r2, [sp, #172]	; 0xac
1a003c0c:	6033      	str	r3, [r6, #0]
1a003c0e:	f77f ac70 	ble.w	1a0034f2 <_vfprintf_r+0x4a2>
1a003c12:	aa2a      	add	r2, sp, #168	; 0xa8
1a003c14:	9907      	ldr	r1, [sp, #28]
1a003c16:	9803      	ldr	r0, [sp, #12]
1a003c18:	f008 fc40 	bl	1a00c49c <__sprint_r>
1a003c1c:	2800      	cmp	r0, #0
1a003c1e:	d18f      	bne.n	1a003b40 <_vfprintf_r+0xaf0>
1a003c20:	9c2c      	ldr	r4, [sp, #176]	; 0xb0
1a003c22:	f10d 0bb4 	add.w	fp, sp, #180	; 0xb4
1a003c26:	e464      	b.n	1a0034f2 <_vfprintf_r+0x4a2>
1a003c28:	9817      	ldr	r0, [sp, #92]	; 0x5c
1a003c2a:	af56      	add	r7, sp, #344	; 0x158
1a003c2c:	0923      	lsrs	r3, r4, #4
1a003c2e:	f004 010f 	and.w	r1, r4, #15
1a003c32:	ea43 7305 	orr.w	r3, r3, r5, lsl #28
1a003c36:	092a      	lsrs	r2, r5, #4
1a003c38:	461c      	mov	r4, r3
1a003c3a:	4615      	mov	r5, r2
1a003c3c:	5c43      	ldrb	r3, [r0, r1]
1a003c3e:	f807 3d01 	strb.w	r3, [r7, #-1]!
1a003c42:	ea54 0305 	orrs.w	r3, r4, r5
1a003c46:	d1f1      	bne.n	1a003c2c <_vfprintf_r+0xbdc>
1a003c48:	9b04      	ldr	r3, [sp, #16]
1a003c4a:	1bdb      	subs	r3, r3, r7
1a003c4c:	9309      	str	r3, [sp, #36]	; 0x24
1a003c4e:	f7ff bb80 	b.w	1a003352 <_vfprintf_r+0x302>
1a003c52:	46b1      	mov	r9, r6
1a003c54:	e776      	b.n	1a003b44 <_vfprintf_r+0xaf4>
1a003c56:	aa2a      	add	r2, sp, #168	; 0xa8
1a003c58:	9907      	ldr	r1, [sp, #28]
1a003c5a:	9803      	ldr	r0, [sp, #12]
1a003c5c:	f008 fc1e 	bl	1a00c49c <__sprint_r>
1a003c60:	2800      	cmp	r0, #0
1a003c62:	f47f af6d 	bne.w	1a003b40 <_vfprintf_r+0xaf0>
1a003c66:	9c2c      	ldr	r4, [sp, #176]	; 0xb0
1a003c68:	f10d 0bb4 	add.w	fp, sp, #180	; 0xb4
1a003c6c:	f7ff bbdd 	b.w	1a00342a <_vfprintf_r+0x3da>
1a003c70:	aa2a      	add	r2, sp, #168	; 0xa8
1a003c72:	9907      	ldr	r1, [sp, #28]
1a003c74:	9803      	ldr	r0, [sp, #12]
1a003c76:	f008 fc11 	bl	1a00c49c <__sprint_r>
1a003c7a:	2800      	cmp	r0, #0
1a003c7c:	f47f af60 	bne.w	1a003b40 <_vfprintf_r+0xaf0>
1a003c80:	9c2c      	ldr	r4, [sp, #176]	; 0xb0
1a003c82:	f10d 0bb4 	add.w	fp, sp, #180	; 0xb4
1a003c86:	f7ff bbe0 	b.w	1a00344a <_vfprintf_r+0x3fa>
1a003c8a:	4698      	mov	r8, r3
1a003c8c:	2d00      	cmp	r5, #0
1a003c8e:	bf08      	it	eq
1a003c90:	2c0a      	cmpeq	r4, #10
1a003c92:	f080 8170 	bcs.w	1a003f76 <_vfprintf_r+0xf26>
1a003c96:	af56      	add	r7, sp, #344	; 0x158
1a003c98:	3430      	adds	r4, #48	; 0x30
1a003c9a:	2301      	movs	r3, #1
1a003c9c:	f807 4d01 	strb.w	r4, [r7, #-1]!
1a003ca0:	9309      	str	r3, [sp, #36]	; 0x24
1a003ca2:	f7ff bb56 	b.w	1a003352 <_vfprintf_r+0x302>
1a003ca6:	aa2a      	add	r2, sp, #168	; 0xa8
1a003ca8:	9907      	ldr	r1, [sp, #28]
1a003caa:	9803      	ldr	r0, [sp, #12]
1a003cac:	f008 fbf6 	bl	1a00c49c <__sprint_r>
1a003cb0:	2800      	cmp	r0, #0
1a003cb2:	f47f af45 	bne.w	1a003b40 <_vfprintf_r+0xaf0>
1a003cb6:	9c2c      	ldr	r4, [sp, #176]	; 0xb0
1a003cb8:	f10d 0bb4 	add.w	fp, sp, #180	; 0xb4
1a003cbc:	e406      	b.n	1a0034cc <_vfprintf_r+0x47c>
1a003cbe:	9b24      	ldr	r3, [sp, #144]	; 0x90
1a003cc0:	2b00      	cmp	r3, #0
1a003cc2:	f340 8273 	ble.w	1a0041ac <_vfprintf_r+0x115c>
1a003cc6:	e9dd 2310 	ldrd	r2, r3, [sp, #64]	; 0x40
1a003cca:	4293      	cmp	r3, r2
1a003ccc:	bfa8      	it	ge
1a003cce:	4613      	movge	r3, r2
1a003cd0:	2b00      	cmp	r3, #0
1a003cd2:	461d      	mov	r5, r3
1a003cd4:	dd0d      	ble.n	1a003cf2 <_vfprintf_r+0xca2>
1a003cd6:	9b2b      	ldr	r3, [sp, #172]	; 0xac
1a003cd8:	f8cb 7000 	str.w	r7, [fp]
1a003cdc:	3301      	adds	r3, #1
1a003cde:	442c      	add	r4, r5
1a003ce0:	2b07      	cmp	r3, #7
1a003ce2:	942c      	str	r4, [sp, #176]	; 0xb0
1a003ce4:	f8cb 5004 	str.w	r5, [fp, #4]
1a003ce8:	932b      	str	r3, [sp, #172]	; 0xac
1a003cea:	f300 82c1 	bgt.w	1a004270 <_vfprintf_r+0x1220>
1a003cee:	f10b 0b08 	add.w	fp, fp, #8
1a003cf2:	9b11      	ldr	r3, [sp, #68]	; 0x44
1a003cf4:	2d00      	cmp	r5, #0
1a003cf6:	bfa8      	it	ge
1a003cf8:	1b5b      	subge	r3, r3, r5
1a003cfa:	2b00      	cmp	r3, #0
1a003cfc:	461d      	mov	r5, r3
1a003cfe:	f340 8099 	ble.w	1a003e34 <_vfprintf_r+0xde4>
1a003d02:	2d10      	cmp	r5, #16
1a003d04:	9a2b      	ldr	r2, [sp, #172]	; 0xac
1a003d06:	4b2c      	ldr	r3, [pc, #176]	; (1a003db8 <_vfprintf_r+0xd68>)
1a003d08:	f340 83db 	ble.w	1a0044c2 <_vfprintf_r+0x1472>
1a003d0c:	4618      	mov	r0, r3
1a003d0e:	4621      	mov	r1, r4
1a003d10:	465b      	mov	r3, fp
1a003d12:	2610      	movs	r6, #16
1a003d14:	46bb      	mov	fp, r7
1a003d16:	f8dd 900c 	ldr.w	r9, [sp, #12]
1a003d1a:	9c07      	ldr	r4, [sp, #28]
1a003d1c:	4607      	mov	r7, r0
1a003d1e:	e004      	b.n	1a003d2a <_vfprintf_r+0xcda>
1a003d20:	3308      	adds	r3, #8
1a003d22:	3d10      	subs	r5, #16
1a003d24:	2d10      	cmp	r5, #16
1a003d26:	f340 83c7 	ble.w	1a0044b8 <_vfprintf_r+0x1468>
1a003d2a:	3201      	adds	r2, #1
1a003d2c:	3110      	adds	r1, #16
1a003d2e:	2a07      	cmp	r2, #7
1a003d30:	e9cd 212b 	strd	r2, r1, [sp, #172]	; 0xac
1a003d34:	e9c3 7600 	strd	r7, r6, [r3]
1a003d38:	ddf2      	ble.n	1a003d20 <_vfprintf_r+0xcd0>
1a003d3a:	aa2a      	add	r2, sp, #168	; 0xa8
1a003d3c:	4621      	mov	r1, r4
1a003d3e:	4648      	mov	r0, r9
1a003d40:	f008 fbac 	bl	1a00c49c <__sprint_r>
1a003d44:	2800      	cmp	r0, #0
1a003d46:	f040 84a5 	bne.w	1a004694 <_vfprintf_r+0x1644>
1a003d4a:	e9dd 212b 	ldrd	r2, r1, [sp, #172]	; 0xac
1a003d4e:	ab2d      	add	r3, sp, #180	; 0xb4
1a003d50:	e7e7      	b.n	1a003d22 <_vfprintf_r+0xcd2>
1a003d52:	f8cd 9024 	str.w	r9, [sp, #36]	; 0x24
1a003d56:	af56      	add	r7, sp, #344	; 0x158
1a003d58:	f7ff bafb 	b.w	1a003352 <_vfprintf_r+0x302>
1a003d5c:	f1b9 0f00 	cmp.w	r9, #0
1a003d60:	f77f af4c 	ble.w	1a003bfc <_vfprintf_r+0xbac>
1a003d64:	f1b9 0f10 	cmp.w	r9, #16
1a003d68:	4b13      	ldr	r3, [pc, #76]	; (1a003db8 <_vfprintf_r+0xd68>)
1a003d6a:	f340 8659 	ble.w	1a004a20 <_vfprintf_r+0x19d0>
1a003d6e:	4619      	mov	r1, r3
1a003d70:	4622      	mov	r2, r4
1a003d72:	4633      	mov	r3, r6
1a003d74:	2710      	movs	r7, #16
1a003d76:	f8dd b00c 	ldr.w	fp, [sp, #12]
1a003d7a:	9c07      	ldr	r4, [sp, #28]
1a003d7c:	9d0e      	ldr	r5, [sp, #56]	; 0x38
1a003d7e:	460e      	mov	r6, r1
1a003d80:	e007      	b.n	1a003d92 <_vfprintf_r+0xd42>
1a003d82:	3308      	adds	r3, #8
1a003d84:	f1a9 0910 	sub.w	r9, r9, #16
1a003d88:	f1b9 0f10 	cmp.w	r9, #16
1a003d8c:	f340 8353 	ble.w	1a004436 <_vfprintf_r+0x13e6>
1a003d90:	3501      	adds	r5, #1
1a003d92:	3210      	adds	r2, #16
1a003d94:	2d07      	cmp	r5, #7
1a003d96:	e9cd 522b 	strd	r5, r2, [sp, #172]	; 0xac
1a003d9a:	e9c3 6700 	strd	r6, r7, [r3]
1a003d9e:	ddf0      	ble.n	1a003d82 <_vfprintf_r+0xd32>
1a003da0:	aa2a      	add	r2, sp, #168	; 0xa8
1a003da2:	4621      	mov	r1, r4
1a003da4:	4658      	mov	r0, fp
1a003da6:	f008 fb79 	bl	1a00c49c <__sprint_r>
1a003daa:	2800      	cmp	r0, #0
1a003dac:	f040 8472 	bne.w	1a004694 <_vfprintf_r+0x1644>
1a003db0:	e9dd 522b 	ldrd	r5, r2, [sp, #172]	; 0xac
1a003db4:	ab2d      	add	r3, sp, #180	; 0xb4
1a003db6:	e7e5      	b.n	1a003d84 <_vfprintf_r+0xd34>
1a003db8:	1a00d794 	.word	0x1a00d794
1a003dbc:	f018 0f01 	tst.w	r8, #1
1a003dc0:	f47f aee0 	bne.w	1a003b84 <_vfprintf_r+0xb34>
1a003dc4:	2201      	movs	r2, #1
1a003dc6:	2d07      	cmp	r5, #7
1a003dc8:	f8cb 7000 	str.w	r7, [fp]
1a003dcc:	e9cd 542b 	strd	r5, r4, [sp, #172]	; 0xac
1a003dd0:	f8cb 2004 	str.w	r2, [fp, #4]
1a003dd4:	dc04      	bgt.n	1a003de0 <_vfprintf_r+0xd90>
1a003dd6:	3302      	adds	r3, #2
1a003dd8:	9309      	str	r3, [sp, #36]	; 0x24
1a003dda:	f10b 0b10 	add.w	fp, fp, #16
1a003dde:	e70d      	b.n	1a003bfc <_vfprintf_r+0xbac>
1a003de0:	aa2a      	add	r2, sp, #168	; 0xa8
1a003de2:	9907      	ldr	r1, [sp, #28]
1a003de4:	9803      	ldr	r0, [sp, #12]
1a003de6:	f008 fb59 	bl	1a00c49c <__sprint_r>
1a003dea:	2800      	cmp	r0, #0
1a003dec:	f47f aea8 	bne.w	1a003b40 <_vfprintf_r+0xaf0>
1a003df0:	e9dd 342b 	ldrd	r3, r4, [sp, #172]	; 0xac
1a003df4:	3301      	adds	r3, #1
1a003df6:	9309      	str	r3, [sp, #36]	; 0x24
1a003df8:	f10d 0bbc 	add.w	fp, sp, #188	; 0xbc
1a003dfc:	ae2d      	add	r6, sp, #180	; 0xb4
1a003dfe:	e6fd      	b.n	1a003bfc <_vfprintf_r+0xbac>
1a003e00:	aa2a      	add	r2, sp, #168	; 0xa8
1a003e02:	9907      	ldr	r1, [sp, #28]
1a003e04:	9803      	ldr	r0, [sp, #12]
1a003e06:	f008 fb49 	bl	1a00c49c <__sprint_r>
1a003e0a:	2800      	cmp	r0, #0
1a003e0c:	f47f ae98 	bne.w	1a003b40 <_vfprintf_r+0xaf0>
1a003e10:	f89d 208b 	ldrb.w	r2, [sp, #139]	; 0x8b
1a003e14:	9c2c      	ldr	r4, [sp, #176]	; 0xb0
1a003e16:	f10d 0bb4 	add.w	fp, sp, #180	; 0xb4
1a003e1a:	f7ff baf6 	b.w	1a00340a <_vfprintf_r+0x3ba>
1a003e1e:	aa2a      	add	r2, sp, #168	; 0xa8
1a003e20:	9907      	ldr	r1, [sp, #28]
1a003e22:	9803      	ldr	r0, [sp, #12]
1a003e24:	f008 fb3a 	bl	1a00c49c <__sprint_r>
1a003e28:	2800      	cmp	r0, #0
1a003e2a:	f47f ae89 	bne.w	1a003b40 <_vfprintf_r+0xaf0>
1a003e2e:	9c2c      	ldr	r4, [sp, #176]	; 0xb0
1a003e30:	f10d 0bb4 	add.w	fp, sp, #180	; 0xb4
1a003e34:	9b11      	ldr	r3, [sp, #68]	; 0x44
1a003e36:	f418 6f80 	tst.w	r8, #1024	; 0x400
1a003e3a:	443b      	add	r3, r7
1a003e3c:	4699      	mov	r9, r3
1a003e3e:	f040 8357 	bne.w	1a0044f0 <_vfprintf_r+0x14a0>
1a003e42:	9b24      	ldr	r3, [sp, #144]	; 0x90
1a003e44:	9a10      	ldr	r2, [sp, #64]	; 0x40
1a003e46:	4293      	cmp	r3, r2
1a003e48:	db49      	blt.n	1a003ede <_vfprintf_r+0xe8e>
1a003e4a:	f018 0f01 	tst.w	r8, #1
1a003e4e:	d146      	bne.n	1a003ede <_vfprintf_r+0xe8e>
1a003e50:	9a10      	ldr	r2, [sp, #64]	; 0x40
1a003e52:	18bd      	adds	r5, r7, r2
1a003e54:	eba5 0509 	sub.w	r5, r5, r9
1a003e58:	1ad3      	subs	r3, r2, r3
1a003e5a:	429d      	cmp	r5, r3
1a003e5c:	bfa8      	it	ge
1a003e5e:	461d      	movge	r5, r3
1a003e60:	2d00      	cmp	r5, #0
1a003e62:	dd0d      	ble.n	1a003e80 <_vfprintf_r+0xe30>
1a003e64:	9a2b      	ldr	r2, [sp, #172]	; 0xac
1a003e66:	f8cb 9000 	str.w	r9, [fp]
1a003e6a:	3201      	adds	r2, #1
1a003e6c:	442c      	add	r4, r5
1a003e6e:	2a07      	cmp	r2, #7
1a003e70:	942c      	str	r4, [sp, #176]	; 0xb0
1a003e72:	f8cb 5004 	str.w	r5, [fp, #4]
1a003e76:	922b      	str	r2, [sp, #172]	; 0xac
1a003e78:	f300 8462 	bgt.w	1a004740 <_vfprintf_r+0x16f0>
1a003e7c:	f10b 0b08 	add.w	fp, fp, #8
1a003e80:	2d00      	cmp	r5, #0
1a003e82:	bfac      	ite	ge
1a003e84:	1b5d      	subge	r5, r3, r5
1a003e86:	461d      	movlt	r5, r3
1a003e88:	2d00      	cmp	r5, #0
1a003e8a:	f77f ab32 	ble.w	1a0034f2 <_vfprintf_r+0x4a2>
1a003e8e:	2d10      	cmp	r5, #16
1a003e90:	9a2b      	ldr	r2, [sp, #172]	; 0xac
1a003e92:	4bc5      	ldr	r3, [pc, #788]	; (1a0041a8 <_vfprintf_r+0x1158>)
1a003e94:	f340 80c4 	ble.w	1a004020 <_vfprintf_r+0xfd0>
1a003e98:	4619      	mov	r1, r3
1a003e9a:	2610      	movs	r6, #16
1a003e9c:	4623      	mov	r3, r4
1a003e9e:	9f03      	ldr	r7, [sp, #12]
1a003ea0:	f8dd 901c 	ldr.w	r9, [sp, #28]
1a003ea4:	460c      	mov	r4, r1
1a003ea6:	e005      	b.n	1a003eb4 <_vfprintf_r+0xe64>
1a003ea8:	f10b 0b08 	add.w	fp, fp, #8
1a003eac:	3d10      	subs	r5, #16
1a003eae:	2d10      	cmp	r5, #16
1a003eb0:	f340 80b3 	ble.w	1a00401a <_vfprintf_r+0xfca>
1a003eb4:	3201      	adds	r2, #1
1a003eb6:	3310      	adds	r3, #16
1a003eb8:	2a07      	cmp	r2, #7
1a003eba:	e9cd 232b 	strd	r2, r3, [sp, #172]	; 0xac
1a003ebe:	e9cb 4600 	strd	r4, r6, [fp]
1a003ec2:	ddf1      	ble.n	1a003ea8 <_vfprintf_r+0xe58>
1a003ec4:	aa2a      	add	r2, sp, #168	; 0xa8
1a003ec6:	4649      	mov	r1, r9
1a003ec8:	4638      	mov	r0, r7
1a003eca:	f008 fae7 	bl	1a00c49c <__sprint_r>
1a003ece:	2800      	cmp	r0, #0
1a003ed0:	f47f ae38 	bne.w	1a003b44 <_vfprintf_r+0xaf4>
1a003ed4:	e9dd 232b 	ldrd	r2, r3, [sp, #172]	; 0xac
1a003ed8:	f10d 0bb4 	add.w	fp, sp, #180	; 0xb4
1a003edc:	e7e6      	b.n	1a003eac <_vfprintf_r+0xe5c>
1a003ede:	9a2b      	ldr	r2, [sp, #172]	; 0xac
1a003ee0:	9916      	ldr	r1, [sp, #88]	; 0x58
1a003ee2:	f8cb 1000 	str.w	r1, [fp]
1a003ee6:	9915      	ldr	r1, [sp, #84]	; 0x54
1a003ee8:	f8cb 1004 	str.w	r1, [fp, #4]
1a003eec:	3201      	adds	r2, #1
1a003eee:	440c      	add	r4, r1
1a003ef0:	2a07      	cmp	r2, #7
1a003ef2:	942c      	str	r4, [sp, #176]	; 0xb0
1a003ef4:	922b      	str	r2, [sp, #172]	; 0xac
1a003ef6:	f300 828c 	bgt.w	1a004412 <_vfprintf_r+0x13c2>
1a003efa:	f10b 0b08 	add.w	fp, fp, #8
1a003efe:	e7a7      	b.n	1a003e50 <_vfprintf_r+0xe00>
1a003f00:	f8d9 0058 	ldr.w	r0, [r9, #88]	; 0x58
1a003f04:	f003 fea0 	bl	1a007c48 <__retarget_lock_release_recursive>
1a003f08:	f8b9 300c 	ldrh.w	r3, [r9, #12]
1a003f0c:	e628      	b.n	1a003b60 <_vfprintf_r+0xb10>
1a003f0e:	aa2a      	add	r2, sp, #168	; 0xa8
1a003f10:	9907      	ldr	r1, [sp, #28]
1a003f12:	9803      	ldr	r0, [sp, #12]
1a003f14:	f008 fac2 	bl	1a00c49c <__sprint_r>
1a003f18:	2800      	cmp	r0, #0
1a003f1a:	f47f ae11 	bne.w	1a003b40 <_vfprintf_r+0xaf0>
1a003f1e:	e9dd 542b 	ldrd	r5, r4, [sp, #172]	; 0xac
1a003f22:	ae2d      	add	r6, sp, #180	; 0xb4
1a003f24:	e638      	b.n	1a003b98 <_vfprintf_r+0xb48>
1a003f26:	aa2a      	add	r2, sp, #168	; 0xa8
1a003f28:	9907      	ldr	r1, [sp, #28]
1a003f2a:	9803      	ldr	r0, [sp, #12]
1a003f2c:	f008 fab6 	bl	1a00c49c <__sprint_r>
1a003f30:	2800      	cmp	r0, #0
1a003f32:	f47f ae05 	bne.w	1a003b40 <_vfprintf_r+0xaf0>
1a003f36:	e9dd 342b 	ldrd	r3, r4, [sp, #172]	; 0xac
1a003f3a:	ae2d      	add	r6, sp, #180	; 0xb4
1a003f3c:	930b      	str	r3, [sp, #44]	; 0x2c
1a003f3e:	e638      	b.n	1a003bb2 <_vfprintf_r+0xb62>
1a003f40:	6814      	ldr	r4, [r2, #0]
1a003f42:	9308      	str	r3, [sp, #32]
1a003f44:	2500      	movs	r5, #0
1a003f46:	f7ff bb95 	b.w	1a003674 <_vfprintf_r+0x624>
1a003f4a:	6814      	ldr	r4, [r2, #0]
1a003f4c:	9308      	str	r3, [sp, #32]
1a003f4e:	2500      	movs	r5, #0
1a003f50:	f7ff b9ae 	b.w	1a0032b0 <_vfprintf_r+0x260>
1a003f54:	680c      	ldr	r4, [r1, #0]
1a003f56:	9208      	str	r2, [sp, #32]
1a003f58:	17e5      	asrs	r5, r4, #31
1a003f5a:	4620      	mov	r0, r4
1a003f5c:	4629      	mov	r1, r5
1a003f5e:	f7ff b9d2 	b.w	1a003306 <_vfprintf_r+0x2b6>
1a003f62:	6814      	ldr	r4, [r2, #0]
1a003f64:	9108      	str	r1, [sp, #32]
1a003f66:	2201      	movs	r2, #1
1a003f68:	2500      	movs	r5, #0
1a003f6a:	f7ff bb32 	b.w	1a0035d2 <_vfprintf_r+0x582>
1a003f6e:	2a01      	cmp	r2, #1
1a003f70:	f47f ab3c 	bne.w	1a0035ec <_vfprintf_r+0x59c>
1a003f74:	e68f      	b.n	1a003c96 <_vfprintf_r+0xc46>
1a003f76:	f408 6380 	and.w	r3, r8, #1024	; 0x400
1a003f7a:	2200      	movs	r2, #0
1a003f7c:	e9cd a609 	strd	sl, r6, [sp, #36]	; 0x24
1a003f80:	f8cd 802c 	str.w	r8, [sp, #44]	; 0x2c
1a003f84:	af56      	add	r7, sp, #344	; 0x158
1a003f86:	4692      	mov	sl, r2
1a003f88:	f8dd 8068 	ldr.w	r8, [sp, #104]	; 0x68
1a003f8c:	461e      	mov	r6, r3
1a003f8e:	e00a      	b.n	1a003fa6 <_vfprintf_r+0xf56>
1a003f90:	2300      	movs	r3, #0
1a003f92:	4620      	mov	r0, r4
1a003f94:	4629      	mov	r1, r5
1a003f96:	220a      	movs	r2, #10
1a003f98:	f7fe fc12 	bl	1a0027c0 <__aeabi_uldivmod>
1a003f9c:	4604      	mov	r4, r0
1a003f9e:	460d      	mov	r5, r1
1a003fa0:	ea54 0305 	orrs.w	r3, r4, r5
1a003fa4:	d029      	beq.n	1a003ffa <_vfprintf_r+0xfaa>
1a003fa6:	220a      	movs	r2, #10
1a003fa8:	2300      	movs	r3, #0
1a003faa:	4620      	mov	r0, r4
1a003fac:	4629      	mov	r1, r5
1a003fae:	f7fe fc07 	bl	1a0027c0 <__aeabi_uldivmod>
1a003fb2:	3230      	adds	r2, #48	; 0x30
1a003fb4:	f807 2c01 	strb.w	r2, [r7, #-1]
1a003fb8:	f10a 0a01 	add.w	sl, sl, #1
1a003fbc:	3f01      	subs	r7, #1
1a003fbe:	2e00      	cmp	r6, #0
1a003fc0:	d0e6      	beq.n	1a003f90 <_vfprintf_r+0xf40>
1a003fc2:	f898 3000 	ldrb.w	r3, [r8]
1a003fc6:	459a      	cmp	sl, r3
1a003fc8:	d1e2      	bne.n	1a003f90 <_vfprintf_r+0xf40>
1a003fca:	f1ba 0fff 	cmp.w	sl, #255	; 0xff
1a003fce:	d0df      	beq.n	1a003f90 <_vfprintf_r+0xf40>
1a003fd0:	2d00      	cmp	r5, #0
1a003fd2:	bf08      	it	eq
1a003fd4:	2c0a      	cmpeq	r4, #10
1a003fd6:	d3db      	bcc.n	1a003f90 <_vfprintf_r+0xf40>
1a003fd8:	9b1b      	ldr	r3, [sp, #108]	; 0x6c
1a003fda:	9918      	ldr	r1, [sp, #96]	; 0x60
1a003fdc:	1aff      	subs	r7, r7, r3
1a003fde:	461a      	mov	r2, r3
1a003fe0:	4638      	mov	r0, r7
1a003fe2:	f005 f9e7 	bl	1a0093b4 <strncpy>
1a003fe6:	f898 3001 	ldrb.w	r3, [r8, #1]
1a003fea:	2b00      	cmp	r3, #0
1a003fec:	f000 8496 	beq.w	1a00491c <_vfprintf_r+0x18cc>
1a003ff0:	f108 0801 	add.w	r8, r8, #1
1a003ff4:	f04f 0a00 	mov.w	sl, #0
1a003ff8:	e7ca      	b.n	1a003f90 <_vfprintf_r+0xf40>
1a003ffa:	9b04      	ldr	r3, [sp, #16]
1a003ffc:	f8cd 8068 	str.w	r8, [sp, #104]	; 0x68
1a004000:	1bdb      	subs	r3, r3, r7
1a004002:	f8cd a040 	str.w	sl, [sp, #64]	; 0x40
1a004006:	9e0a      	ldr	r6, [sp, #40]	; 0x28
1a004008:	f8dd a024 	ldr.w	sl, [sp, #36]	; 0x24
1a00400c:	f8dd 802c 	ldr.w	r8, [sp, #44]	; 0x2c
1a004010:	9309      	str	r3, [sp, #36]	; 0x24
1a004012:	f7ff b99e 	b.w	1a003352 <_vfprintf_r+0x302>
1a004016:	46c1      	mov	r9, r8
1a004018:	e594      	b.n	1a003b44 <_vfprintf_r+0xaf4>
1a00401a:	4621      	mov	r1, r4
1a00401c:	461c      	mov	r4, r3
1a00401e:	460b      	mov	r3, r1
1a004020:	3201      	adds	r2, #1
1a004022:	442c      	add	r4, r5
1a004024:	2a07      	cmp	r2, #7
1a004026:	e9cd 242b 	strd	r2, r4, [sp, #172]	; 0xac
1a00402a:	e9cb 3500 	strd	r3, r5, [fp]
1a00402e:	f77f aa5e 	ble.w	1a0034ee <_vfprintf_r+0x49e>
1a004032:	e5ee      	b.n	1a003c12 <_vfprintf_r+0xbc2>
1a004034:	f018 0f10 	tst.w	r8, #16
1a004038:	f040 80f8 	bne.w	1a00422c <_vfprintf_r+0x11dc>
1a00403c:	f018 0f40 	tst.w	r8, #64	; 0x40
1a004040:	f000 8351 	beq.w	1a0046e6 <_vfprintf_r+0x1696>
1a004044:	9a05      	ldr	r2, [sp, #20]
1a004046:	801a      	strh	r2, [r3, #0]
1a004048:	4657      	mov	r7, sl
1a00404a:	f7ff baa7 	b.w	1a00359c <_vfprintf_r+0x54c>
1a00404e:	aa2a      	add	r2, sp, #168	; 0xa8
1a004050:	9907      	ldr	r1, [sp, #28]
1a004052:	9803      	ldr	r0, [sp, #12]
1a004054:	f008 fa22 	bl	1a00c49c <__sprint_r>
1a004058:	2800      	cmp	r0, #0
1a00405a:	f47f ad71 	bne.w	1a003b40 <_vfprintf_r+0xaf0>
1a00405e:	9c2c      	ldr	r4, [sp, #176]	; 0xb0
1a004060:	f10d 0bb4 	add.w	fp, sp, #180	; 0xb4
1a004064:	f7ff b9f5 	b.w	1a003452 <_vfprintf_r+0x402>
1a004068:	e9dd 0112 	ldrd	r0, r1, [sp, #72]	; 0x48
1a00406c:	4602      	mov	r2, r0
1a00406e:	460b      	mov	r3, r1
1a004070:	f009 f860 	bl	1a00d134 <__aeabi_dcmpun>
1a004074:	2800      	cmp	r0, #0
1a004076:	f040 8491 	bne.w	1a00499c <_vfprintf_r+0x194c>
1a00407a:	2e61      	cmp	r6, #97	; 0x61
1a00407c:	f000 8111 	beq.w	1a0042a2 <_vfprintf_r+0x1252>
1a004080:	2e41      	cmp	r6, #65	; 0x41
1a004082:	f000 8377 	beq.w	1a004774 <_vfprintf_r+0x1724>
1a004086:	f448 7380 	orr.w	r3, r8, #256	; 0x100
1a00408a:	f026 0220 	bic.w	r2, r6, #32
1a00408e:	f1b9 3fff 	cmp.w	r9, #4294967295	; 0xffffffff
1a004092:	930e      	str	r3, [sp, #56]	; 0x38
1a004094:	9204      	str	r2, [sp, #16]
1a004096:	9b13      	ldr	r3, [sp, #76]	; 0x4c
1a004098:	f000 842d 	beq.w	1a0048f6 <_vfprintf_r+0x18a6>
1a00409c:	2a47      	cmp	r2, #71	; 0x47
1a00409e:	f000 8424 	beq.w	1a0048ea <_vfprintf_r+0x189a>
1a0040a2:	2b00      	cmp	r3, #0
1a0040a4:	f2c0 82f9 	blt.w	1a00469a <_vfprintf_r+0x164a>
1a0040a8:	ed9d 7b12 	vldr	d7, [sp, #72]	; 0x48
1a0040ac:	e9cd 000a 	strd	r0, r0, [sp, #40]	; 0x28
1a0040b0:	ed8d 7b1e 	vstr	d7, [sp, #120]	; 0x78
1a0040b4:	2e66      	cmp	r6, #102	; 0x66
1a0040b6:	f000 83eb 	beq.w	1a004890 <_vfprintf_r+0x1840>
1a0040ba:	2e46      	cmp	r6, #70	; 0x46
1a0040bc:	f000 847e 	beq.w	1a0049bc <_vfprintf_r+0x196c>
1a0040c0:	9b04      	ldr	r3, [sp, #16]
1a0040c2:	9803      	ldr	r0, [sp, #12]
1a0040c4:	2b45      	cmp	r3, #69	; 0x45
1a0040c6:	bf0c      	ite	eq
1a0040c8:	f109 0501 	addeq.w	r5, r9, #1
1a0040cc:	464d      	movne	r5, r9
1a0040ce:	aa28      	add	r2, sp, #160	; 0xa0
1a0040d0:	ab25      	add	r3, sp, #148	; 0x94
1a0040d2:	e9cd 3200 	strd	r3, r2, [sp]
1a0040d6:	2102      	movs	r1, #2
1a0040d8:	ab24      	add	r3, sp, #144	; 0x90
1a0040da:	462a      	mov	r2, r5
1a0040dc:	ed9d 0b1e 	vldr	d0, [sp, #120]	; 0x78
1a0040e0:	f002 f922 	bl	1a006328 <_dtoa_r>
1a0040e4:	2e67      	cmp	r6, #103	; 0x67
1a0040e6:	4607      	mov	r7, r0
1a0040e8:	f040 849c 	bne.w	1a004a24 <_vfprintf_r+0x19d4>
1a0040ec:	f018 0f01 	tst.w	r8, #1
1a0040f0:	f040 83f9 	bne.w	1a0048e6 <_vfprintf_r+0x1896>
1a0040f4:	9b28      	ldr	r3, [sp, #160]	; 0xa0
1a0040f6:	4640      	mov	r0, r8
1a0040f8:	1bdb      	subs	r3, r3, r7
1a0040fa:	f8dd 8038 	ldr.w	r8, [sp, #56]	; 0x38
1a0040fe:	9310      	str	r3, [sp, #64]	; 0x40
1a004100:	9b24      	ldr	r3, [sp, #144]	; 0x90
1a004102:	9311      	str	r3, [sp, #68]	; 0x44
1a004104:	9b04      	ldr	r3, [sp, #16]
1a004106:	2b47      	cmp	r3, #71	; 0x47
1a004108:	f000 81e7 	beq.w	1a0044da <_vfprintf_r+0x148a>
1a00410c:	9b04      	ldr	r3, [sp, #16]
1a00410e:	2b46      	cmp	r3, #70	; 0x46
1a004110:	f000 8300 	beq.w	1a004714 <_vfprintf_r+0x16c4>
1a004114:	9904      	ldr	r1, [sp, #16]
1a004116:	9b11      	ldr	r3, [sp, #68]	; 0x44
1a004118:	b2f2      	uxtb	r2, r6
1a00411a:	2941      	cmp	r1, #65	; 0x41
1a00411c:	bf08      	it	eq
1a00411e:	320f      	addeq	r2, #15
1a004120:	f103 33ff 	add.w	r3, r3, #4294967295	; 0xffffffff
1a004124:	bf06      	itte	eq
1a004126:	b2d2      	uxtbeq	r2, r2
1a004128:	2101      	moveq	r1, #1
1a00412a:	2100      	movne	r1, #0
1a00412c:	2b00      	cmp	r3, #0
1a00412e:	9324      	str	r3, [sp, #144]	; 0x90
1a004130:	bfb8      	it	lt
1a004132:	9b11      	ldrlt	r3, [sp, #68]	; 0x44
1a004134:	f88d 2098 	strb.w	r2, [sp, #152]	; 0x98
1a004138:	bfba      	itte	lt
1a00413a:	f1c3 0301 	rsblt	r3, r3, #1
1a00413e:	222d      	movlt	r2, #45	; 0x2d
1a004140:	222b      	movge	r2, #43	; 0x2b
1a004142:	2b09      	cmp	r3, #9
1a004144:	f88d 2099 	strb.w	r2, [sp, #153]	; 0x99
1a004148:	f300 83f9 	bgt.w	1a00493e <_vfprintf_r+0x18ee>
1a00414c:	2900      	cmp	r1, #0
1a00414e:	f040 8487 	bne.w	1a004a60 <_vfprintf_r+0x1a10>
1a004152:	2230      	movs	r2, #48	; 0x30
1a004154:	f88d 209a 	strb.w	r2, [sp, #154]	; 0x9a
1a004158:	f10d 029b 	add.w	r2, sp, #155	; 0x9b
1a00415c:	3330      	adds	r3, #48	; 0x30
1a00415e:	7013      	strb	r3, [r2, #0]
1a004160:	1c53      	adds	r3, r2, #1
1a004162:	aa26      	add	r2, sp, #152	; 0x98
1a004164:	1a9b      	subs	r3, r3, r2
1a004166:	9a10      	ldr	r2, [sp, #64]	; 0x40
1a004168:	9319      	str	r3, [sp, #100]	; 0x64
1a00416a:	2a01      	cmp	r2, #1
1a00416c:	4413      	add	r3, r2
1a00416e:	9309      	str	r3, [sp, #36]	; 0x24
1a004170:	f340 8442 	ble.w	1a0049f8 <_vfprintf_r+0x19a8>
1a004174:	9b09      	ldr	r3, [sp, #36]	; 0x24
1a004176:	9a15      	ldr	r2, [sp, #84]	; 0x54
1a004178:	4413      	add	r3, r2
1a00417a:	9309      	str	r3, [sp, #36]	; 0x24
1a00417c:	2300      	movs	r3, #0
1a00417e:	930f      	str	r3, [sp, #60]	; 0x3c
1a004180:	9314      	str	r3, [sp, #80]	; 0x50
1a004182:	9311      	str	r3, [sp, #68]	; 0x44
1a004184:	9b09      	ldr	r3, [sp, #36]	; 0x24
1a004186:	f420 6080 	bic.w	r0, r0, #1024	; 0x400
1a00418a:	ea23 73e3 	bic.w	r3, r3, r3, asr #31
1a00418e:	f440 7880 	orr.w	r8, r0, #256	; 0x100
1a004192:	9304      	str	r3, [sp, #16]
1a004194:	9b0b      	ldr	r3, [sp, #44]	; 0x2c
1a004196:	2b00      	cmp	r3, #0
1a004198:	f040 8275 	bne.w	1a004686 <_vfprintf_r+0x1636>
1a00419c:	4699      	mov	r9, r3
1a00419e:	f89d 208b 	ldrb.w	r2, [sp, #139]	; 0x8b
1a0041a2:	f7ff b8e2 	b.w	1a00336a <_vfprintf_r+0x31a>
1a0041a6:	bf00      	nop
1a0041a8:	1a00d794 	.word	0x1a00d794
1a0041ac:	9a2b      	ldr	r2, [sp, #172]	; 0xac
1a0041ae:	49bd      	ldr	r1, [pc, #756]	; (1a0044a4 <_vfprintf_r+0x1454>)
1a0041b0:	f8cb 1000 	str.w	r1, [fp]
1a0041b4:	3201      	adds	r2, #1
1a0041b6:	3401      	adds	r4, #1
1a0041b8:	2101      	movs	r1, #1
1a0041ba:	2a07      	cmp	r2, #7
1a0041bc:	e9cd 242b 	strd	r2, r4, [sp, #172]	; 0xac
1a0041c0:	f8cb 1004 	str.w	r1, [fp, #4]
1a0041c4:	dc60      	bgt.n	1a004288 <_vfprintf_r+0x1238>
1a0041c6:	f10b 0b08 	add.w	fp, fp, #8
1a0041ca:	b92b      	cbnz	r3, 1a0041d8 <_vfprintf_r+0x1188>
1a0041cc:	9a10      	ldr	r2, [sp, #64]	; 0x40
1a0041ce:	b91a      	cbnz	r2, 1a0041d8 <_vfprintf_r+0x1188>
1a0041d0:	f018 0f01 	tst.w	r8, #1
1a0041d4:	f43f a98d 	beq.w	1a0034f2 <_vfprintf_r+0x4a2>
1a0041d8:	9a2b      	ldr	r2, [sp, #172]	; 0xac
1a0041da:	9916      	ldr	r1, [sp, #88]	; 0x58
1a0041dc:	f8cb 1000 	str.w	r1, [fp]
1a0041e0:	9915      	ldr	r1, [sp, #84]	; 0x54
1a0041e2:	f8cb 1004 	str.w	r1, [fp, #4]
1a0041e6:	3201      	adds	r2, #1
1a0041e8:	440c      	add	r4, r1
1a0041ea:	2a07      	cmp	r2, #7
1a0041ec:	942c      	str	r4, [sp, #176]	; 0xb0
1a0041ee:	922b      	str	r2, [sp, #172]	; 0xac
1a0041f0:	f300 8282 	bgt.w	1a0046f8 <_vfprintf_r+0x16a8>
1a0041f4:	f10b 0b08 	add.w	fp, fp, #8
1a0041f8:	2b00      	cmp	r3, #0
1a0041fa:	f2c0 82e7 	blt.w	1a0047cc <_vfprintf_r+0x177c>
1a0041fe:	9b10      	ldr	r3, [sp, #64]	; 0x40
1a004200:	3201      	adds	r2, #1
1a004202:	441c      	add	r4, r3
1a004204:	2a07      	cmp	r2, #7
1a004206:	e9cd 242b 	strd	r2, r4, [sp, #172]	; 0xac
1a00420a:	e9cb 7300 	strd	r7, r3, [fp]
1a00420e:	f77f a96e 	ble.w	1a0034ee <_vfprintf_r+0x49e>
1a004212:	e4fe      	b.n	1a003c12 <_vfprintf_r+0xbc2>
1a004214:	aa2a      	add	r2, sp, #168	; 0xa8
1a004216:	9907      	ldr	r1, [sp, #28]
1a004218:	9803      	ldr	r0, [sp, #12]
1a00421a:	f008 f93f 	bl	1a00c49c <__sprint_r>
1a00421e:	2800      	cmp	r0, #0
1a004220:	f47f ac8e 	bne.w	1a003b40 <_vfprintf_r+0xaf0>
1a004224:	f10d 0bb4 	add.w	fp, sp, #180	; 0xb4
1a004228:	f7ff bbf0 	b.w	1a003a0c <_vfprintf_r+0x9bc>
1a00422c:	9a05      	ldr	r2, [sp, #20]
1a00422e:	601a      	str	r2, [r3, #0]
1a004230:	4657      	mov	r7, sl
1a004232:	f7ff b9b3 	b.w	1a00359c <_vfprintf_r+0x54c>
1a004236:	8814      	ldrh	r4, [r2, #0]
1a004238:	9108      	str	r1, [sp, #32]
1a00423a:	2500      	movs	r5, #0
1a00423c:	2201      	movs	r2, #1
1a00423e:	f7ff b9c8 	b.w	1a0035d2 <_vfprintf_r+0x582>
1a004242:	8814      	ldrh	r4, [r2, #0]
1a004244:	9308      	str	r3, [sp, #32]
1a004246:	2500      	movs	r5, #0
1a004248:	f7ff ba14 	b.w	1a003674 <_vfprintf_r+0x624>
1a00424c:	f9b1 4000 	ldrsh.w	r4, [r1]
1a004250:	9208      	str	r2, [sp, #32]
1a004252:	17e5      	asrs	r5, r4, #31
1a004254:	4620      	mov	r0, r4
1a004256:	4629      	mov	r1, r5
1a004258:	f7ff b855 	b.w	1a003306 <_vfprintf_r+0x2b6>
1a00425c:	8814      	ldrh	r4, [r2, #0]
1a00425e:	9308      	str	r3, [sp, #32]
1a004260:	2500      	movs	r5, #0
1a004262:	f7ff b825 	b.w	1a0032b0 <_vfprintf_r+0x260>
1a004266:	222d      	movs	r2, #45	; 0x2d
1a004268:	f88d 208b 	strb.w	r2, [sp, #139]	; 0x8b
1a00426c:	f7ff baa2 	b.w	1a0037b4 <_vfprintf_r+0x764>
1a004270:	aa2a      	add	r2, sp, #168	; 0xa8
1a004272:	9907      	ldr	r1, [sp, #28]
1a004274:	9803      	ldr	r0, [sp, #12]
1a004276:	f008 f911 	bl	1a00c49c <__sprint_r>
1a00427a:	2800      	cmp	r0, #0
1a00427c:	f47f ac60 	bne.w	1a003b40 <_vfprintf_r+0xaf0>
1a004280:	9c2c      	ldr	r4, [sp, #176]	; 0xb0
1a004282:	f10d 0bb4 	add.w	fp, sp, #180	; 0xb4
1a004286:	e534      	b.n	1a003cf2 <_vfprintf_r+0xca2>
1a004288:	aa2a      	add	r2, sp, #168	; 0xa8
1a00428a:	9907      	ldr	r1, [sp, #28]
1a00428c:	9803      	ldr	r0, [sp, #12]
1a00428e:	f008 f905 	bl	1a00c49c <__sprint_r>
1a004292:	2800      	cmp	r0, #0
1a004294:	f47f ac54 	bne.w	1a003b40 <_vfprintf_r+0xaf0>
1a004298:	9b24      	ldr	r3, [sp, #144]	; 0x90
1a00429a:	9c2c      	ldr	r4, [sp, #176]	; 0xb0
1a00429c:	f10d 0bb4 	add.w	fp, sp, #180	; 0xb4
1a0042a0:	e793      	b.n	1a0041ca <_vfprintf_r+0x117a>
1a0042a2:	2330      	movs	r3, #48	; 0x30
1a0042a4:	f88d 308c 	strb.w	r3, [sp, #140]	; 0x8c
1a0042a8:	2378      	movs	r3, #120	; 0x78
1a0042aa:	f1b9 0f63 	cmp.w	r9, #99	; 0x63
1a0042ae:	f88d 308d 	strb.w	r3, [sp, #141]	; 0x8d
1a0042b2:	f048 0402 	orr.w	r4, r8, #2
1a0042b6:	f300 82b0 	bgt.w	1a00481a <_vfprintf_r+0x17ca>
1a0042ba:	f448 7381 	orr.w	r3, r8, #258	; 0x102
1a0042be:	930e      	str	r3, [sp, #56]	; 0x38
1a0042c0:	f026 0320 	bic.w	r3, r6, #32
1a0042c4:	9304      	str	r3, [sp, #16]
1a0042c6:	2200      	movs	r2, #0
1a0042c8:	9b13      	ldr	r3, [sp, #76]	; 0x4c
1a0042ca:	920a      	str	r2, [sp, #40]	; 0x28
1a0042cc:	46a0      	mov	r8, r4
1a0042ce:	af3d      	add	r7, sp, #244	; 0xf4
1a0042d0:	2b00      	cmp	r3, #0
1a0042d2:	f2c0 81e3 	blt.w	1a00469c <_vfprintf_r+0x164c>
1a0042d6:	ed9d 7b12 	vldr	d7, [sp, #72]	; 0x48
1a0042da:	ed8d 7b1e 	vstr	d7, [sp, #120]	; 0x78
1a0042de:	2300      	movs	r3, #0
1a0042e0:	930b      	str	r3, [sp, #44]	; 0x2c
1a0042e2:	2e61      	cmp	r6, #97	; 0x61
1a0042e4:	f000 8255 	beq.w	1a004792 <_vfprintf_r+0x1742>
1a0042e8:	2e41      	cmp	r6, #65	; 0x41
1a0042ea:	f47f aee3 	bne.w	1a0040b4 <_vfprintf_r+0x1064>
1a0042ee:	a824      	add	r0, sp, #144	; 0x90
1a0042f0:	ed9d 0b1e 	vldr	d0, [sp, #120]	; 0x78
1a0042f4:	f004 ff86 	bl	1a009204 <frexp>
1a0042f8:	2200      	movs	r2, #0
1a0042fa:	f04f 537f 	mov.w	r3, #1069547520	; 0x3fc00000
1a0042fe:	ec51 0b10 	vmov	r0, r1, d0
1a004302:	f7fd ff73 	bl	1a0021ec <__aeabi_dmul>
1a004306:	2200      	movs	r2, #0
1a004308:	2300      	movs	r3, #0
1a00430a:	e9cd 010c 	strd	r0, r1, [sp, #48]	; 0x30
1a00430e:	f7fe f9d5 	bl	1a0026bc <__aeabi_dcmpeq>
1a004312:	2800      	cmp	r0, #0
1a004314:	f040 8305 	bne.w	1a004922 <_vfprintf_r+0x18d2>
1a004318:	4b63      	ldr	r3, [pc, #396]	; (1a0044a8 <_vfprintf_r+0x1458>)
1a00431a:	9309      	str	r3, [sp, #36]	; 0x24
1a00431c:	e9cd a60f 	strd	sl, r6, [sp, #60]	; 0x3c
1a004320:	f109 34ff 	add.w	r4, r9, #4294967295	; 0xffffffff
1a004324:	f8cd 9050 	str.w	r9, [sp, #80]	; 0x50
1a004328:	9721      	str	r7, [sp, #132]	; 0x84
1a00432a:	46b9      	mov	r9, r7
1a00432c:	f8cd b044 	str.w	fp, [sp, #68]	; 0x44
1a004330:	f8cd 8080 	str.w	r8, [sp, #128]	; 0x80
1a004334:	f8dd a024 	ldr.w	sl, [sp, #36]	; 0x24
1a004338:	e9dd 670c 	ldrd	r6, r7, [sp, #48]	; 0x30
1a00433c:	e003      	b.n	1a004346 <_vfprintf_r+0x12f6>
1a00433e:	f7fe f9bd 	bl	1a0026bc <__aeabi_dcmpeq>
1a004342:	bb20      	cbnz	r0, 1a00438e <_vfprintf_r+0x133e>
1a004344:	46a9      	mov	r9, r5
1a004346:	2200      	movs	r2, #0
1a004348:	4b58      	ldr	r3, [pc, #352]	; (1a0044ac <_vfprintf_r+0x145c>)
1a00434a:	4630      	mov	r0, r6
1a00434c:	4639      	mov	r1, r7
1a00434e:	f7fd ff4d 	bl	1a0021ec <__aeabi_dmul>
1a004352:	460f      	mov	r7, r1
1a004354:	4606      	mov	r6, r0
1a004356:	f008 ff03 	bl	1a00d160 <__aeabi_d2iz>
1a00435a:	4680      	mov	r8, r0
1a00435c:	f7fd fedc 	bl	1a002118 <__aeabi_i2d>
1a004360:	4602      	mov	r2, r0
1a004362:	460b      	mov	r3, r1
1a004364:	4630      	mov	r0, r6
1a004366:	4639      	mov	r1, r7
1a004368:	f7fd fd88 	bl	1a001e7c <__aeabi_dsub>
1a00436c:	464d      	mov	r5, r9
1a00436e:	f81a c008 	ldrb.w	ip, [sl, r8]
1a004372:	f805 cb01 	strb.w	ip, [r5], #1
1a004376:	f1b4 3fff 	cmp.w	r4, #4294967295	; 0xffffffff
1a00437a:	46a3      	mov	fp, r4
1a00437c:	4606      	mov	r6, r0
1a00437e:	460f      	mov	r7, r1
1a004380:	f04f 0200 	mov.w	r2, #0
1a004384:	f04f 0300 	mov.w	r3, #0
1a004388:	f104 34ff 	add.w	r4, r4, #4294967295	; 0xffffffff
1a00438c:	d1d7      	bne.n	1a00433e <_vfprintf_r+0x12ee>
1a00438e:	4630      	mov	r0, r6
1a004390:	4639      	mov	r1, r7
1a004392:	2200      	movs	r2, #0
1a004394:	4b46      	ldr	r3, [pc, #280]	; (1a0044b0 <_vfprintf_r+0x1460>)
1a004396:	f8dd a03c 	ldr.w	sl, [sp, #60]	; 0x3c
1a00439a:	9e10      	ldr	r6, [sp, #64]	; 0x40
1a00439c:	f8cd b03c 	str.w	fp, [sp, #60]	; 0x3c
1a0043a0:	4644      	mov	r4, r8
1a0043a2:	f8cd 9040 	str.w	r9, [sp, #64]	; 0x40
1a0043a6:	f8dd 8080 	ldr.w	r8, [sp, #128]	; 0x80
1a0043aa:	f8dd 9050 	ldr.w	r9, [sp, #80]	; 0x50
1a0043ae:	f8dd b044 	ldr.w	fp, [sp, #68]	; 0x44
1a0043b2:	9f21      	ldr	r7, [sp, #132]	; 0x84
1a0043b4:	e9cd 010c 	strd	r0, r1, [sp, #48]	; 0x30
1a0043b8:	f7fe f9a8 	bl	1a00270c <__aeabi_dcmpgt>
1a0043bc:	2800      	cmp	r0, #0
1a0043be:	f040 8176 	bne.w	1a0046ae <_vfprintf_r+0x165e>
1a0043c2:	e9dd 010c 	ldrd	r0, r1, [sp, #48]	; 0x30
1a0043c6:	2200      	movs	r2, #0
1a0043c8:	4b39      	ldr	r3, [pc, #228]	; (1a0044b0 <_vfprintf_r+0x1460>)
1a0043ca:	f7fe f977 	bl	1a0026bc <__aeabi_dcmpeq>
1a0043ce:	b110      	cbz	r0, 1a0043d6 <_vfprintf_r+0x1386>
1a0043d0:	07e2      	lsls	r2, r4, #31
1a0043d2:	f100 816c 	bmi.w	1a0046ae <_vfprintf_r+0x165e>
1a0043d6:	9b0f      	ldr	r3, [sp, #60]	; 0x3c
1a0043d8:	2b00      	cmp	r3, #0
1a0043da:	db07      	blt.n	1a0043ec <_vfprintf_r+0x139c>
1a0043dc:	9b0f      	ldr	r3, [sp, #60]	; 0x3c
1a0043de:	3301      	adds	r3, #1
1a0043e0:	442b      	add	r3, r5
1a0043e2:	2230      	movs	r2, #48	; 0x30
1a0043e4:	f805 2b01 	strb.w	r2, [r5], #1
1a0043e8:	42ab      	cmp	r3, r5
1a0043ea:	d1fb      	bne.n	1a0043e4 <_vfprintf_r+0x1394>
1a0043ec:	1beb      	subs	r3, r5, r7
1a0043ee:	4640      	mov	r0, r8
1a0043f0:	9310      	str	r3, [sp, #64]	; 0x40
1a0043f2:	f8dd 8038 	ldr.w	r8, [sp, #56]	; 0x38
1a0043f6:	e683      	b.n	1a004100 <_vfprintf_r+0x10b0>
1a0043f8:	f8cd 9010 	str.w	r9, [sp, #16]
1a0043fc:	f8cd 9024 	str.w	r9, [sp, #36]	; 0x24
1a004400:	9408      	str	r4, [sp, #32]
1a004402:	4681      	mov	r9, r0
1a004404:	900f      	str	r0, [sp, #60]	; 0x3c
1a004406:	9014      	str	r0, [sp, #80]	; 0x50
1a004408:	9011      	str	r0, [sp, #68]	; 0x44
1a00440a:	f89d 208b 	ldrb.w	r2, [sp, #139]	; 0x8b
1a00440e:	f7fe bfac 	b.w	1a00336a <_vfprintf_r+0x31a>
1a004412:	aa2a      	add	r2, sp, #168	; 0xa8
1a004414:	9907      	ldr	r1, [sp, #28]
1a004416:	9803      	ldr	r0, [sp, #12]
1a004418:	f008 f840 	bl	1a00c49c <__sprint_r>
1a00441c:	2800      	cmp	r0, #0
1a00441e:	f47f ab8f 	bne.w	1a003b40 <_vfprintf_r+0xaf0>
1a004422:	9b24      	ldr	r3, [sp, #144]	; 0x90
1a004424:	9c2c      	ldr	r4, [sp, #176]	; 0xb0
1a004426:	f10d 0bb4 	add.w	fp, sp, #180	; 0xb4
1a00442a:	e511      	b.n	1a003e50 <_vfprintf_r+0xe00>
1a00442c:	4252      	negs	r2, r2
1a00442e:	9206      	str	r2, [sp, #24]
1a004430:	9308      	str	r3, [sp, #32]
1a004432:	f7ff b96d 	b.w	1a003710 <_vfprintf_r+0x6c0>
1a004436:	4614      	mov	r4, r2
1a004438:	4632      	mov	r2, r6
1a00443a:	461e      	mov	r6, r3
1a00443c:	4613      	mov	r3, r2
1a00443e:	462a      	mov	r2, r5
1a004440:	3201      	adds	r2, #1
1a004442:	9209      	str	r2, [sp, #36]	; 0x24
1a004444:	f106 0208 	add.w	r2, r6, #8
1a004448:	e9c6 3900 	strd	r3, r9, [r6]
1a00444c:	9b09      	ldr	r3, [sp, #36]	; 0x24
1a00444e:	932b      	str	r3, [sp, #172]	; 0xac
1a004450:	444c      	add	r4, r9
1a004452:	2b07      	cmp	r3, #7
1a004454:	942c      	str	r4, [sp, #176]	; 0xb0
1a004456:	f73f acc3 	bgt.w	1a003de0 <_vfprintf_r+0xd90>
1a00445a:	3301      	adds	r3, #1
1a00445c:	9309      	str	r3, [sp, #36]	; 0x24
1a00445e:	f102 0b08 	add.w	fp, r2, #8
1a004462:	4616      	mov	r6, r2
1a004464:	f7ff bbca 	b.w	1a003bfc <_vfprintf_r+0xbac>
1a004468:	aa2a      	add	r2, sp, #168	; 0xa8
1a00446a:	9907      	ldr	r1, [sp, #28]
1a00446c:	9803      	ldr	r0, [sp, #12]
1a00446e:	f008 f815 	bl	1a00c49c <__sprint_r>
1a004472:	2800      	cmp	r0, #0
1a004474:	f47f ab64 	bne.w	1a003b40 <_vfprintf_r+0xaf0>
1a004478:	9c2c      	ldr	r4, [sp, #176]	; 0xb0
1a00447a:	f10d 0bb4 	add.w	fp, sp, #180	; 0xb4
1a00447e:	f7ff bade 	b.w	1a003a3e <_vfprintf_r+0x9ee>
1a004482:	464b      	mov	r3, r9
1a004484:	2b06      	cmp	r3, #6
1a004486:	bf28      	it	cs
1a004488:	2306      	movcs	r3, #6
1a00448a:	46b9      	mov	r9, r7
1a00448c:	970f      	str	r7, [sp, #60]	; 0x3c
1a00448e:	9714      	str	r7, [sp, #80]	; 0x50
1a004490:	9711      	str	r7, [sp, #68]	; 0x44
1a004492:	970a      	str	r7, [sp, #40]	; 0x28
1a004494:	463a      	mov	r2, r7
1a004496:	9304      	str	r3, [sp, #16]
1a004498:	e9cd 4308 	strd	r4, r3, [sp, #32]
1a00449c:	4f05      	ldr	r7, [pc, #20]	; (1a0044b4 <_vfprintf_r+0x1464>)
1a00449e:	f7fe bf64 	b.w	1a00336a <_vfprintf_r+0x31a>
1a0044a2:	bf00      	nop
1a0044a4:	1a00d780 	.word	0x1a00d780
1a0044a8:	1a00d764 	.word	0x1a00d764
1a0044ac:	40300000 	.word	0x40300000
1a0044b0:	3fe00000 	.word	0x3fe00000
1a0044b4:	1a00d778 	.word	0x1a00d778
1a0044b8:	460c      	mov	r4, r1
1a0044ba:	4639      	mov	r1, r7
1a0044bc:	465f      	mov	r7, fp
1a0044be:	469b      	mov	fp, r3
1a0044c0:	460b      	mov	r3, r1
1a0044c2:	3201      	adds	r2, #1
1a0044c4:	442c      	add	r4, r5
1a0044c6:	2a07      	cmp	r2, #7
1a0044c8:	e9cd 242b 	strd	r2, r4, [sp, #172]	; 0xac
1a0044cc:	e9cb 3500 	strd	r3, r5, [fp]
1a0044d0:	f73f aca5 	bgt.w	1a003e1e <_vfprintf_r+0xdce>
1a0044d4:	f10b 0b08 	add.w	fp, fp, #8
1a0044d8:	e4ac      	b.n	1a003e34 <_vfprintf_r+0xde4>
1a0044da:	9b11      	ldr	r3, [sp, #68]	; 0x44
1a0044dc:	1cda      	adds	r2, r3, #3
1a0044de:	db02      	blt.n	1a0044e6 <_vfprintf_r+0x1496>
1a0044e0:	4599      	cmp	r9, r3
1a0044e2:	f280 80b5 	bge.w	1a004650 <_vfprintf_r+0x1600>
1a0044e6:	3e02      	subs	r6, #2
1a0044e8:	f026 0320 	bic.w	r3, r6, #32
1a0044ec:	9304      	str	r3, [sp, #16]
1a0044ee:	e611      	b.n	1a004114 <_vfprintf_r+0x10c4>
1a0044f0:	9b10      	ldr	r3, [sp, #64]	; 0x40
1a0044f2:	f8cd 8038 	str.w	r8, [sp, #56]	; 0x38
1a0044f6:	465a      	mov	r2, fp
1a0044f8:	e9dd 8b1a 	ldrd	r8, fp, [sp, #104]	; 0x68
1a0044fc:	18fb      	adds	r3, r7, r3
1a0044fe:	f8cd a02c 	str.w	sl, [sp, #44]	; 0x2c
1a004502:	970c      	str	r7, [sp, #48]	; 0x30
1a004504:	4eaf      	ldr	r6, [pc, #700]	; (1a0047c4 <_vfprintf_r+0x1774>)
1a004506:	f8dd a01c 	ldr.w	sl, [sp, #28]
1a00450a:	9309      	str	r3, [sp, #36]	; 0x24
1a00450c:	464f      	mov	r7, r9
1a00450e:	f8dd 900c 	ldr.w	r9, [sp, #12]
1a004512:	4621      	mov	r1, r4
1a004514:	9b14      	ldr	r3, [sp, #80]	; 0x50
1a004516:	2b00      	cmp	r3, #0
1a004518:	d05b      	beq.n	1a0045d2 <_vfprintf_r+0x1582>
1a00451a:	9b0f      	ldr	r3, [sp, #60]	; 0x3c
1a00451c:	2b00      	cmp	r3, #0
1a00451e:	d154      	bne.n	1a0045ca <_vfprintf_r+0x157a>
1a004520:	9b14      	ldr	r3, [sp, #80]	; 0x50
1a004522:	3b01      	subs	r3, #1
1a004524:	f108 38ff 	add.w	r8, r8, #4294967295	; 0xffffffff
1a004528:	9314      	str	r3, [sp, #80]	; 0x50
1a00452a:	9b2b      	ldr	r3, [sp, #172]	; 0xac
1a00452c:	9818      	ldr	r0, [sp, #96]	; 0x60
1a00452e:	6010      	str	r0, [r2, #0]
1a004530:	3301      	adds	r3, #1
1a004532:	4459      	add	r1, fp
1a004534:	2b07      	cmp	r3, #7
1a004536:	912c      	str	r1, [sp, #176]	; 0xb0
1a004538:	f8c2 b004 	str.w	fp, [r2, #4]
1a00453c:	932b      	str	r3, [sp, #172]	; 0xac
1a00453e:	dc68      	bgt.n	1a004612 <_vfprintf_r+0x15c2>
1a004540:	3208      	adds	r2, #8
1a004542:	9809      	ldr	r0, [sp, #36]	; 0x24
1a004544:	f898 3000 	ldrb.w	r3, [r8]
1a004548:	1bc5      	subs	r5, r0, r7
1a00454a:	429d      	cmp	r5, r3
1a00454c:	bfa8      	it	ge
1a00454e:	461d      	movge	r5, r3
1a004550:	2d00      	cmp	r5, #0
1a004552:	dd0b      	ble.n	1a00456c <_vfprintf_r+0x151c>
1a004554:	9b2b      	ldr	r3, [sp, #172]	; 0xac
1a004556:	6017      	str	r7, [r2, #0]
1a004558:	3301      	adds	r3, #1
1a00455a:	4429      	add	r1, r5
1a00455c:	2b07      	cmp	r3, #7
1a00455e:	912c      	str	r1, [sp, #176]	; 0xb0
1a004560:	6055      	str	r5, [r2, #4]
1a004562:	932b      	str	r3, [sp, #172]	; 0xac
1a004564:	dc5e      	bgt.n	1a004624 <_vfprintf_r+0x15d4>
1a004566:	f898 3000 	ldrb.w	r3, [r8]
1a00456a:	3208      	adds	r2, #8
1a00456c:	2d00      	cmp	r5, #0
1a00456e:	bfac      	ite	ge
1a004570:	1b5d      	subge	r5, r3, r5
1a004572:	461d      	movlt	r5, r3
1a004574:	2d00      	cmp	r5, #0
1a004576:	dd26      	ble.n	1a0045c6 <_vfprintf_r+0x1576>
1a004578:	2d10      	cmp	r5, #16
1a00457a:	982b      	ldr	r0, [sp, #172]	; 0xac
1a00457c:	dd3c      	ble.n	1a0045f8 <_vfprintf_r+0x15a8>
1a00457e:	2410      	movs	r4, #16
1a004580:	e003      	b.n	1a00458a <_vfprintf_r+0x153a>
1a004582:	3208      	adds	r2, #8
1a004584:	3d10      	subs	r5, #16
1a004586:	2d10      	cmp	r5, #16
1a004588:	dd36      	ble.n	1a0045f8 <_vfprintf_r+0x15a8>
1a00458a:	3001      	adds	r0, #1
1a00458c:	3110      	adds	r1, #16
1a00458e:	2807      	cmp	r0, #7
1a004590:	e9cd 012b 	strd	r0, r1, [sp, #172]	; 0xac
1a004594:	e9c2 6400 	strd	r6, r4, [r2]
1a004598:	ddf3      	ble.n	1a004582 <_vfprintf_r+0x1532>
1a00459a:	aa2a      	add	r2, sp, #168	; 0xa8
1a00459c:	4651      	mov	r1, sl
1a00459e:	4648      	mov	r0, r9
1a0045a0:	f007 ff7c 	bl	1a00c49c <__sprint_r>
1a0045a4:	2800      	cmp	r0, #0
1a0045a6:	d150      	bne.n	1a00464a <_vfprintf_r+0x15fa>
1a0045a8:	e9dd 012b 	ldrd	r0, r1, [sp, #172]	; 0xac
1a0045ac:	aa2d      	add	r2, sp, #180	; 0xb4
1a0045ae:	e7e9      	b.n	1a004584 <_vfprintf_r+0x1534>
1a0045b0:	aa2a      	add	r2, sp, #168	; 0xa8
1a0045b2:	4651      	mov	r1, sl
1a0045b4:	4648      	mov	r0, r9
1a0045b6:	f007 ff71 	bl	1a00c49c <__sprint_r>
1a0045ba:	2800      	cmp	r0, #0
1a0045bc:	d145      	bne.n	1a00464a <_vfprintf_r+0x15fa>
1a0045be:	f898 3000 	ldrb.w	r3, [r8]
1a0045c2:	992c      	ldr	r1, [sp, #176]	; 0xb0
1a0045c4:	aa2d      	add	r2, sp, #180	; 0xb4
1a0045c6:	441f      	add	r7, r3
1a0045c8:	e7a4      	b.n	1a004514 <_vfprintf_r+0x14c4>
1a0045ca:	9b0f      	ldr	r3, [sp, #60]	; 0x3c
1a0045cc:	3b01      	subs	r3, #1
1a0045ce:	930f      	str	r3, [sp, #60]	; 0x3c
1a0045d0:	e7ab      	b.n	1a00452a <_vfprintf_r+0x14da>
1a0045d2:	9b0f      	ldr	r3, [sp, #60]	; 0x3c
1a0045d4:	2b00      	cmp	r3, #0
1a0045d6:	d1f8      	bne.n	1a0045ca <_vfprintf_r+0x157a>
1a0045d8:	46b9      	mov	r9, r7
1a0045da:	9b10      	ldr	r3, [sp, #64]	; 0x40
1a0045dc:	9f0c      	ldr	r7, [sp, #48]	; 0x30
1a0045de:	f8cd 8068 	str.w	r8, [sp, #104]	; 0x68
1a0045e2:	18fb      	adds	r3, r7, r3
1a0045e4:	4599      	cmp	r9, r3
1a0045e6:	f8dd a02c 	ldr.w	sl, [sp, #44]	; 0x2c
1a0045ea:	f8dd 8038 	ldr.w	r8, [sp, #56]	; 0x38
1a0045ee:	4693      	mov	fp, r2
1a0045f0:	460c      	mov	r4, r1
1a0045f2:	bf28      	it	cs
1a0045f4:	4699      	movcs	r9, r3
1a0045f6:	e424      	b.n	1a003e42 <_vfprintf_r+0xdf2>
1a0045f8:	3001      	adds	r0, #1
1a0045fa:	4429      	add	r1, r5
1a0045fc:	2807      	cmp	r0, #7
1a0045fe:	e9cd 012b 	strd	r0, r1, [sp, #172]	; 0xac
1a004602:	e9c2 6500 	strd	r6, r5, [r2]
1a004606:	dcd3      	bgt.n	1a0045b0 <_vfprintf_r+0x1560>
1a004608:	f898 3000 	ldrb.w	r3, [r8]
1a00460c:	3208      	adds	r2, #8
1a00460e:	441f      	add	r7, r3
1a004610:	e780      	b.n	1a004514 <_vfprintf_r+0x14c4>
1a004612:	aa2a      	add	r2, sp, #168	; 0xa8
1a004614:	4651      	mov	r1, sl
1a004616:	4648      	mov	r0, r9
1a004618:	f007 ff40 	bl	1a00c49c <__sprint_r>
1a00461c:	b9a8      	cbnz	r0, 1a00464a <_vfprintf_r+0x15fa>
1a00461e:	992c      	ldr	r1, [sp, #176]	; 0xb0
1a004620:	aa2d      	add	r2, sp, #180	; 0xb4
1a004622:	e78e      	b.n	1a004542 <_vfprintf_r+0x14f2>
1a004624:	aa2a      	add	r2, sp, #168	; 0xa8
1a004626:	4651      	mov	r1, sl
1a004628:	4648      	mov	r0, r9
1a00462a:	f007 ff37 	bl	1a00c49c <__sprint_r>
1a00462e:	b960      	cbnz	r0, 1a00464a <_vfprintf_r+0x15fa>
1a004630:	f898 3000 	ldrb.w	r3, [r8]
1a004634:	992c      	ldr	r1, [sp, #176]	; 0xb0
1a004636:	aa2d      	add	r2, sp, #180	; 0xb4
1a004638:	e798      	b.n	1a00456c <_vfprintf_r+0x151c>
1a00463a:	4638      	mov	r0, r7
1a00463c:	f7fe fbe0 	bl	1a002e00 <strlen>
1a004640:	46a9      	mov	r9, r5
1a004642:	4603      	mov	r3, r0
1a004644:	9009      	str	r0, [sp, #36]	; 0x24
1a004646:	f7ff b8f4 	b.w	1a003832 <_vfprintf_r+0x7e2>
1a00464a:	46d1      	mov	r9, sl
1a00464c:	f7ff ba7a 	b.w	1a003b44 <_vfprintf_r+0xaf4>
1a004650:	9b10      	ldr	r3, [sp, #64]	; 0x40
1a004652:	4619      	mov	r1, r3
1a004654:	9b11      	ldr	r3, [sp, #68]	; 0x44
1a004656:	4299      	cmp	r1, r3
1a004658:	f300 8082 	bgt.w	1a004760 <_vfprintf_r+0x1710>
1a00465c:	07c4      	lsls	r4, r0, #31
1a00465e:	f140 816b 	bpl.w	1a004938 <_vfprintf_r+0x18e8>
1a004662:	9a15      	ldr	r2, [sp, #84]	; 0x54
1a004664:	4413      	add	r3, r2
1a004666:	9309      	str	r3, [sp, #36]	; 0x24
1a004668:	0541      	lsls	r1, r0, #21
1a00466a:	d503      	bpl.n	1a004674 <_vfprintf_r+0x1624>
1a00466c:	9b11      	ldr	r3, [sp, #68]	; 0x44
1a00466e:	2b00      	cmp	r3, #0
1a004670:	f300 80e6 	bgt.w	1a004840 <_vfprintf_r+0x17f0>
1a004674:	9b09      	ldr	r3, [sp, #36]	; 0x24
1a004676:	ea23 73e3 	bic.w	r3, r3, r3, asr #31
1a00467a:	9304      	str	r3, [sp, #16]
1a00467c:	2667      	movs	r6, #103	; 0x67
1a00467e:	2300      	movs	r3, #0
1a004680:	930f      	str	r3, [sp, #60]	; 0x3c
1a004682:	9314      	str	r3, [sp, #80]	; 0x50
1a004684:	e586      	b.n	1a004194 <_vfprintf_r+0x1144>
1a004686:	222d      	movs	r2, #45	; 0x2d
1a004688:	f88d 208b 	strb.w	r2, [sp, #139]	; 0x8b
1a00468c:	f04f 0900 	mov.w	r9, #0
1a004690:	f7fe be6c 	b.w	1a00336c <_vfprintf_r+0x31c>
1a004694:	46a1      	mov	r9, r4
1a004696:	f7ff ba55 	b.w	1a003b44 <_vfprintf_r+0xaf4>
1a00469a:	900a      	str	r0, [sp, #40]	; 0x28
1a00469c:	e9dd 1212 	ldrd	r1, r2, [sp, #72]	; 0x48
1a0046a0:	f102 4300 	add.w	r3, r2, #2147483648	; 0x80000000
1a0046a4:	931f      	str	r3, [sp, #124]	; 0x7c
1a0046a6:	232d      	movs	r3, #45	; 0x2d
1a0046a8:	911e      	str	r1, [sp, #120]	; 0x78
1a0046aa:	930b      	str	r3, [sp, #44]	; 0x2c
1a0046ac:	e619      	b.n	1a0042e2 <_vfprintf_r+0x1292>
1a0046ae:	9b10      	ldr	r3, [sp, #64]	; 0x40
1a0046b0:	9328      	str	r3, [sp, #160]	; 0xa0
1a0046b2:	9b09      	ldr	r3, [sp, #36]	; 0x24
1a0046b4:	f815 2c01 	ldrb.w	r2, [r5, #-1]
1a0046b8:	7bd9      	ldrb	r1, [r3, #15]
1a0046ba:	4291      	cmp	r1, r2
1a0046bc:	462b      	mov	r3, r5
1a0046be:	d109      	bne.n	1a0046d4 <_vfprintf_r+0x1684>
1a0046c0:	2030      	movs	r0, #48	; 0x30
1a0046c2:	f803 0c01 	strb.w	r0, [r3, #-1]
1a0046c6:	9b28      	ldr	r3, [sp, #160]	; 0xa0
1a0046c8:	1e5a      	subs	r2, r3, #1
1a0046ca:	9228      	str	r2, [sp, #160]	; 0xa0
1a0046cc:	f813 2c01 	ldrb.w	r2, [r3, #-1]
1a0046d0:	4291      	cmp	r1, r2
1a0046d2:	d0f6      	beq.n	1a0046c2 <_vfprintf_r+0x1672>
1a0046d4:	2a39      	cmp	r2, #57	; 0x39
1a0046d6:	bf0b      	itete	eq
1a0046d8:	9a09      	ldreq	r2, [sp, #36]	; 0x24
1a0046da:	3201      	addne	r2, #1
1a0046dc:	7a92      	ldrbeq	r2, [r2, #10]
1a0046de:	b2d2      	uxtbne	r2, r2
1a0046e0:	f803 2c01 	strb.w	r2, [r3, #-1]
1a0046e4:	e682      	b.n	1a0043ec <_vfprintf_r+0x139c>
1a0046e6:	f418 7f00 	tst.w	r8, #512	; 0x200
1a0046ea:	f43f ad9f 	beq.w	1a00422c <_vfprintf_r+0x11dc>
1a0046ee:	9a05      	ldr	r2, [sp, #20]
1a0046f0:	701a      	strb	r2, [r3, #0]
1a0046f2:	4657      	mov	r7, sl
1a0046f4:	f7fe bf52 	b.w	1a00359c <_vfprintf_r+0x54c>
1a0046f8:	aa2a      	add	r2, sp, #168	; 0xa8
1a0046fa:	9907      	ldr	r1, [sp, #28]
1a0046fc:	9803      	ldr	r0, [sp, #12]
1a0046fe:	f007 fecd 	bl	1a00c49c <__sprint_r>
1a004702:	2800      	cmp	r0, #0
1a004704:	f47f aa1c 	bne.w	1a003b40 <_vfprintf_r+0xaf0>
1a004708:	9b24      	ldr	r3, [sp, #144]	; 0x90
1a00470a:	e9dd 242b 	ldrd	r2, r4, [sp, #172]	; 0xac
1a00470e:	f10d 0bb4 	add.w	fp, sp, #180	; 0xb4
1a004712:	e571      	b.n	1a0041f8 <_vfprintf_r+0x11a8>
1a004714:	9b11      	ldr	r3, [sp, #68]	; 0x44
1a004716:	2b00      	cmp	r3, #0
1a004718:	f340 8164 	ble.w	1a0049e4 <_vfprintf_r+0x1994>
1a00471c:	9b11      	ldr	r3, [sp, #68]	; 0x44
1a00471e:	f1b9 0f00 	cmp.w	r9, #0
1a004722:	f040 8103 	bne.w	1a00492c <_vfprintf_r+0x18dc>
1a004726:	07c6      	lsls	r6, r0, #31
1a004728:	f100 8100 	bmi.w	1a00492c <_vfprintf_r+0x18dc>
1a00472c:	9309      	str	r3, [sp, #36]	; 0x24
1a00472e:	2666      	movs	r6, #102	; 0x66
1a004730:	0543      	lsls	r3, r0, #21
1a004732:	f100 8086 	bmi.w	1a004842 <_vfprintf_r+0x17f2>
1a004736:	9b09      	ldr	r3, [sp, #36]	; 0x24
1a004738:	ea23 73e3 	bic.w	r3, r3, r3, asr #31
1a00473c:	9304      	str	r3, [sp, #16]
1a00473e:	e79e      	b.n	1a00467e <_vfprintf_r+0x162e>
1a004740:	aa2a      	add	r2, sp, #168	; 0xa8
1a004742:	9907      	ldr	r1, [sp, #28]
1a004744:	9803      	ldr	r0, [sp, #12]
1a004746:	f007 fea9 	bl	1a00c49c <__sprint_r>
1a00474a:	2800      	cmp	r0, #0
1a00474c:	f47f a9f8 	bne.w	1a003b40 <_vfprintf_r+0xaf0>
1a004750:	9b24      	ldr	r3, [sp, #144]	; 0x90
1a004752:	9a10      	ldr	r2, [sp, #64]	; 0x40
1a004754:	9c2c      	ldr	r4, [sp, #176]	; 0xb0
1a004756:	1ad3      	subs	r3, r2, r3
1a004758:	f10d 0bb4 	add.w	fp, sp, #180	; 0xb4
1a00475c:	f7ff bb90 	b.w	1a003e80 <_vfprintf_r+0xe30>
1a004760:	9b10      	ldr	r3, [sp, #64]	; 0x40
1a004762:	9a15      	ldr	r2, [sp, #84]	; 0x54
1a004764:	4413      	add	r3, r2
1a004766:	9309      	str	r3, [sp, #36]	; 0x24
1a004768:	9b11      	ldr	r3, [sp, #68]	; 0x44
1a00476a:	2b00      	cmp	r3, #0
1a00476c:	f340 8149 	ble.w	1a004a02 <_vfprintf_r+0x19b2>
1a004770:	2667      	movs	r6, #103	; 0x67
1a004772:	e7dd      	b.n	1a004730 <_vfprintf_r+0x16e0>
1a004774:	2330      	movs	r3, #48	; 0x30
1a004776:	f88d 308c 	strb.w	r3, [sp, #140]	; 0x8c
1a00477a:	2358      	movs	r3, #88	; 0x58
1a00477c:	e595      	b.n	1a0042aa <_vfprintf_r+0x125a>
1a00477e:	9803      	ldr	r0, [sp, #12]
1a004780:	aa2a      	add	r2, sp, #168	; 0xa8
1a004782:	4649      	mov	r1, r9
1a004784:	f007 fe8a 	bl	1a00c49c <__sprint_r>
1a004788:	2800      	cmp	r0, #0
1a00478a:	f47f a9e0 	bne.w	1a003b4e <_vfprintf_r+0xafe>
1a00478e:	f7fe bf0f 	b.w	1a0035b0 <_vfprintf_r+0x560>
1a004792:	a824      	add	r0, sp, #144	; 0x90
1a004794:	ed9d 0b1e 	vldr	d0, [sp, #120]	; 0x78
1a004798:	f004 fd34 	bl	1a009204 <frexp>
1a00479c:	2200      	movs	r2, #0
1a00479e:	f04f 537f 	mov.w	r3, #1069547520	; 0x3fc00000
1a0047a2:	ec51 0b10 	vmov	r0, r1, d0
1a0047a6:	f7fd fd21 	bl	1a0021ec <__aeabi_dmul>
1a0047aa:	2200      	movs	r2, #0
1a0047ac:	2300      	movs	r3, #0
1a0047ae:	e9cd 010c 	strd	r0, r1, [sp, #48]	; 0x30
1a0047b2:	f7fd ff83 	bl	1a0026bc <__aeabi_dcmpeq>
1a0047b6:	b108      	cbz	r0, 1a0047bc <_vfprintf_r+0x176c>
1a0047b8:	2301      	movs	r3, #1
1a0047ba:	9324      	str	r3, [sp, #144]	; 0x90
1a0047bc:	4b02      	ldr	r3, [pc, #8]	; (1a0047c8 <_vfprintf_r+0x1778>)
1a0047be:	9309      	str	r3, [sp, #36]	; 0x24
1a0047c0:	e5ac      	b.n	1a00431c <_vfprintf_r+0x12cc>
1a0047c2:	bf00      	nop
1a0047c4:	1a00d794 	.word	0x1a00d794
1a0047c8:	1a00d750 	.word	0x1a00d750
1a0047cc:	425d      	negs	r5, r3
1a0047ce:	3310      	adds	r3, #16
1a0047d0:	4bb9      	ldr	r3, [pc, #740]	; (1a004ab8 <_vfprintf_r+0x1a68>)
1a0047d2:	f280 8097 	bge.w	1a004904 <_vfprintf_r+0x18b4>
1a0047d6:	4619      	mov	r1, r3
1a0047d8:	2610      	movs	r6, #16
1a0047da:	4623      	mov	r3, r4
1a0047dc:	f8dd 900c 	ldr.w	r9, [sp, #12]
1a0047e0:	460c      	mov	r4, r1
1a0047e2:	e005      	b.n	1a0047f0 <_vfprintf_r+0x17a0>
1a0047e4:	f10b 0b08 	add.w	fp, fp, #8
1a0047e8:	3d10      	subs	r5, #16
1a0047ea:	2d10      	cmp	r5, #16
1a0047ec:	f340 8087 	ble.w	1a0048fe <_vfprintf_r+0x18ae>
1a0047f0:	3201      	adds	r2, #1
1a0047f2:	3310      	adds	r3, #16
1a0047f4:	2a07      	cmp	r2, #7
1a0047f6:	e9cd 232b 	strd	r2, r3, [sp, #172]	; 0xac
1a0047fa:	e9cb 4600 	strd	r4, r6, [fp]
1a0047fe:	ddf1      	ble.n	1a0047e4 <_vfprintf_r+0x1794>
1a004800:	aa2a      	add	r2, sp, #168	; 0xa8
1a004802:	9907      	ldr	r1, [sp, #28]
1a004804:	4648      	mov	r0, r9
1a004806:	f007 fe49 	bl	1a00c49c <__sprint_r>
1a00480a:	2800      	cmp	r0, #0
1a00480c:	f47f a998 	bne.w	1a003b40 <_vfprintf_r+0xaf0>
1a004810:	e9dd 232b 	ldrd	r2, r3, [sp, #172]	; 0xac
1a004814:	f10d 0bb4 	add.w	fp, sp, #180	; 0xb4
1a004818:	e7e6      	b.n	1a0047e8 <_vfprintf_r+0x1798>
1a00481a:	f109 0101 	add.w	r1, r9, #1
1a00481e:	9803      	ldr	r0, [sp, #12]
1a004820:	f003 fa9c 	bl	1a007d5c <_malloc_r>
1a004824:	4607      	mov	r7, r0
1a004826:	2800      	cmp	r0, #0
1a004828:	f000 813b 	beq.w	1a004aa2 <_vfprintf_r+0x1a52>
1a00482c:	f448 7381 	orr.w	r3, r8, #258	; 0x102
1a004830:	930e      	str	r3, [sp, #56]	; 0x38
1a004832:	f026 0320 	bic.w	r3, r6, #32
1a004836:	9304      	str	r3, [sp, #16]
1a004838:	46a0      	mov	r8, r4
1a00483a:	9b13      	ldr	r3, [sp, #76]	; 0x4c
1a00483c:	900a      	str	r0, [sp, #40]	; 0x28
1a00483e:	e547      	b.n	1a0042d0 <_vfprintf_r+0x1280>
1a004840:	2667      	movs	r6, #103	; 0x67
1a004842:	981a      	ldr	r0, [sp, #104]	; 0x68
1a004844:	2200      	movs	r2, #0
1a004846:	920f      	str	r2, [sp, #60]	; 0x3c
1a004848:	9214      	str	r2, [sp, #80]	; 0x50
1a00484a:	7803      	ldrb	r3, [r0, #0]
1a00484c:	9a11      	ldr	r2, [sp, #68]	; 0x44
1a00484e:	2bff      	cmp	r3, #255	; 0xff
1a004850:	d00c      	beq.n	1a00486c <_vfprintf_r+0x181c>
1a004852:	4293      	cmp	r3, r2
1a004854:	da0a      	bge.n	1a00486c <_vfprintf_r+0x181c>
1a004856:	7841      	ldrb	r1, [r0, #1]
1a004858:	1ad2      	subs	r2, r2, r3
1a00485a:	b1a9      	cbz	r1, 1a004888 <_vfprintf_r+0x1838>
1a00485c:	9b14      	ldr	r3, [sp, #80]	; 0x50
1a00485e:	3301      	adds	r3, #1
1a004860:	9314      	str	r3, [sp, #80]	; 0x50
1a004862:	460b      	mov	r3, r1
1a004864:	2bff      	cmp	r3, #255	; 0xff
1a004866:	f100 0001 	add.w	r0, r0, #1
1a00486a:	d1f2      	bne.n	1a004852 <_vfprintf_r+0x1802>
1a00486c:	9211      	str	r2, [sp, #68]	; 0x44
1a00486e:	9b14      	ldr	r3, [sp, #80]	; 0x50
1a004870:	9a0f      	ldr	r2, [sp, #60]	; 0x3c
1a004872:	9909      	ldr	r1, [sp, #36]	; 0x24
1a004874:	901a      	str	r0, [sp, #104]	; 0x68
1a004876:	4413      	add	r3, r2
1a004878:	9a1b      	ldr	r2, [sp, #108]	; 0x6c
1a00487a:	fb02 1303 	mla	r3, r2, r3, r1
1a00487e:	9309      	str	r3, [sp, #36]	; 0x24
1a004880:	ea23 73e3 	bic.w	r3, r3, r3, asr #31
1a004884:	9304      	str	r3, [sp, #16]
1a004886:	e485      	b.n	1a004194 <_vfprintf_r+0x1144>
1a004888:	990f      	ldr	r1, [sp, #60]	; 0x3c
1a00488a:	3101      	adds	r1, #1
1a00488c:	910f      	str	r1, [sp, #60]	; 0x3c
1a00488e:	e7de      	b.n	1a00484e <_vfprintf_r+0x17fe>
1a004890:	aa28      	add	r2, sp, #160	; 0xa0
1a004892:	ab25      	add	r3, sp, #148	; 0x94
1a004894:	e9cd 3200 	strd	r3, r2, [sp]
1a004898:	2103      	movs	r1, #3
1a00489a:	ab24      	add	r3, sp, #144	; 0x90
1a00489c:	464a      	mov	r2, r9
1a00489e:	ed9d 0b1e 	vldr	d0, [sp, #120]	; 0x78
1a0048a2:	9803      	ldr	r0, [sp, #12]
1a0048a4:	f001 fd40 	bl	1a006328 <_dtoa_r>
1a0048a8:	464d      	mov	r5, r9
1a0048aa:	4607      	mov	r7, r0
1a0048ac:	eb00 0409 	add.w	r4, r0, r9
1a0048b0:	783b      	ldrb	r3, [r7, #0]
1a0048b2:	2b30      	cmp	r3, #48	; 0x30
1a0048b4:	f000 80be 	beq.w	1a004a34 <_vfprintf_r+0x19e4>
1a0048b8:	9d24      	ldr	r5, [sp, #144]	; 0x90
1a0048ba:	442c      	add	r4, r5
1a0048bc:	2200      	movs	r2, #0
1a0048be:	2300      	movs	r3, #0
1a0048c0:	e9dd 011e 	ldrd	r0, r1, [sp, #120]	; 0x78
1a0048c4:	f7fd fefa 	bl	1a0026bc <__aeabi_dcmpeq>
1a0048c8:	b108      	cbz	r0, 1a0048ce <_vfprintf_r+0x187e>
1a0048ca:	4623      	mov	r3, r4
1a0048cc:	e413      	b.n	1a0040f6 <_vfprintf_r+0x10a6>
1a0048ce:	9b28      	ldr	r3, [sp, #160]	; 0xa0
1a0048d0:	42a3      	cmp	r3, r4
1a0048d2:	f4bf ac10 	bcs.w	1a0040f6 <_vfprintf_r+0x10a6>
1a0048d6:	2130      	movs	r1, #48	; 0x30
1a0048d8:	1c5a      	adds	r2, r3, #1
1a0048da:	9228      	str	r2, [sp, #160]	; 0xa0
1a0048dc:	7019      	strb	r1, [r3, #0]
1a0048de:	9b28      	ldr	r3, [sp, #160]	; 0xa0
1a0048e0:	429c      	cmp	r4, r3
1a0048e2:	d8f9      	bhi.n	1a0048d8 <_vfprintf_r+0x1888>
1a0048e4:	e407      	b.n	1a0040f6 <_vfprintf_r+0x10a6>
1a0048e6:	197c      	adds	r4, r7, r5
1a0048e8:	e7e8      	b.n	1a0048bc <_vfprintf_r+0x186c>
1a0048ea:	f1b9 0f00 	cmp.w	r9, #0
1a0048ee:	f000 8092 	beq.w	1a004a16 <_vfprintf_r+0x19c6>
1a0048f2:	900a      	str	r0, [sp, #40]	; 0x28
1a0048f4:	e4ec      	b.n	1a0042d0 <_vfprintf_r+0x1280>
1a0048f6:	900a      	str	r0, [sp, #40]	; 0x28
1a0048f8:	f04f 0906 	mov.w	r9, #6
1a0048fc:	e4e8      	b.n	1a0042d0 <_vfprintf_r+0x1280>
1a0048fe:	4621      	mov	r1, r4
1a004900:	461c      	mov	r4, r3
1a004902:	460b      	mov	r3, r1
1a004904:	3201      	adds	r2, #1
1a004906:	442c      	add	r4, r5
1a004908:	2a07      	cmp	r2, #7
1a00490a:	e9cd 242b 	strd	r2, r4, [sp, #172]	; 0xac
1a00490e:	e9cb 3500 	strd	r3, r5, [fp]
1a004912:	f300 80a9 	bgt.w	1a004a68 <_vfprintf_r+0x1a18>
1a004916:	f10b 0b08 	add.w	fp, fp, #8
1a00491a:	e470      	b.n	1a0041fe <_vfprintf_r+0x11ae>
1a00491c:	469a      	mov	sl, r3
1a00491e:	f7ff bb37 	b.w	1a003f90 <_vfprintf_r+0xf40>
1a004922:	2301      	movs	r3, #1
1a004924:	9324      	str	r3, [sp, #144]	; 0x90
1a004926:	4b65      	ldr	r3, [pc, #404]	; (1a004abc <_vfprintf_r+0x1a6c>)
1a004928:	9309      	str	r3, [sp, #36]	; 0x24
1a00492a:	e4f7      	b.n	1a00431c <_vfprintf_r+0x12cc>
1a00492c:	9a15      	ldr	r2, [sp, #84]	; 0x54
1a00492e:	4413      	add	r3, r2
1a004930:	444b      	add	r3, r9
1a004932:	9309      	str	r3, [sp, #36]	; 0x24
1a004934:	2666      	movs	r6, #102	; 0x66
1a004936:	e6fb      	b.n	1a004730 <_vfprintf_r+0x16e0>
1a004938:	9b11      	ldr	r3, [sp, #68]	; 0x44
1a00493a:	9309      	str	r3, [sp, #36]	; 0x24
1a00493c:	e694      	b.n	1a004668 <_vfprintf_r+0x1618>
1a00493e:	f10d 0ca7 	add.w	ip, sp, #167	; 0xa7
1a004942:	4664      	mov	r4, ip
1a004944:	4d5e      	ldr	r5, [pc, #376]	; (1a004ac0 <_vfprintf_r+0x1a70>)
1a004946:	e000      	b.n	1a00494a <_vfprintf_r+0x18fa>
1a004948:	4614      	mov	r4, r2
1a00494a:	fba5 1203 	umull	r1, r2, r5, r3
1a00494e:	08d2      	lsrs	r2, r2, #3
1a004950:	eb02 0182 	add.w	r1, r2, r2, lsl #2
1a004954:	eba3 0341 	sub.w	r3, r3, r1, lsl #1
1a004958:	f103 0130 	add.w	r1, r3, #48	; 0x30
1a00495c:	4613      	mov	r3, r2
1a00495e:	2b09      	cmp	r3, #9
1a004960:	f804 1c01 	strb.w	r1, [r4, #-1]
1a004964:	f104 32ff 	add.w	r2, r4, #4294967295	; 0xffffffff
1a004968:	dcee      	bgt.n	1a004948 <_vfprintf_r+0x18f8>
1a00496a:	3330      	adds	r3, #48	; 0x30
1a00496c:	3c02      	subs	r4, #2
1a00496e:	b2db      	uxtb	r3, r3
1a004970:	45a4      	cmp	ip, r4
1a004972:	f802 3c01 	strb.w	r3, [r2, #-1]
1a004976:	f240 8090 	bls.w	1a004a9a <_vfprintf_r+0x1a4a>
1a00497a:	f10d 049a 	add.w	r4, sp, #154	; 0x9a
1a00497e:	4611      	mov	r1, r2
1a004980:	e001      	b.n	1a004986 <_vfprintf_r+0x1936>
1a004982:	f811 3b01 	ldrb.w	r3, [r1], #1
1a004986:	f804 3b01 	strb.w	r3, [r4], #1
1a00498a:	458c      	cmp	ip, r1
1a00498c:	d1f9      	bne.n	1a004982 <_vfprintf_r+0x1932>
1a00498e:	ab2a      	add	r3, sp, #168	; 0xa8
1a004990:	1a9b      	subs	r3, r3, r2
1a004992:	f10d 029a 	add.w	r2, sp, #154	; 0x9a
1a004996:	4413      	add	r3, r2
1a004998:	f7ff bbe3 	b.w	1a004162 <_vfprintf_r+0x1112>
1a00499c:	9b13      	ldr	r3, [sp, #76]	; 0x4c
1a00499e:	4f49      	ldr	r7, [pc, #292]	; (1a004ac4 <_vfprintf_r+0x1a74>)
1a0049a0:	2b00      	cmp	r3, #0
1a0049a2:	bfb6      	itet	lt
1a0049a4:	222d      	movlt	r2, #45	; 0x2d
1a0049a6:	f89d 208b 	ldrbge.w	r2, [sp, #139]	; 0x8b
1a0049aa:	f88d 208b 	strblt.w	r2, [sp, #139]	; 0x8b
1a0049ae:	4b46      	ldr	r3, [pc, #280]	; (1a004ac8 <_vfprintf_r+0x1a78>)
1a0049b0:	f7fe bf02 	b.w	1a0037b8 <_vfprintf_r+0x768>
1a0049b4:	f8dd 901c 	ldr.w	r9, [sp, #28]
1a0049b8:	f7ff b8c9 	b.w	1a003b4e <_vfprintf_r+0xafe>
1a0049bc:	aa28      	add	r2, sp, #160	; 0xa0
1a0049be:	ab25      	add	r3, sp, #148	; 0x94
1a0049c0:	e9cd 3200 	strd	r3, r2, [sp]
1a0049c4:	2103      	movs	r1, #3
1a0049c6:	ab24      	add	r3, sp, #144	; 0x90
1a0049c8:	464a      	mov	r2, r9
1a0049ca:	ed9d 0b1e 	vldr	d0, [sp, #120]	; 0x78
1a0049ce:	9803      	ldr	r0, [sp, #12]
1a0049d0:	f001 fcaa 	bl	1a006328 <_dtoa_r>
1a0049d4:	464d      	mov	r5, r9
1a0049d6:	4607      	mov	r7, r0
1a0049d8:	2e46      	cmp	r6, #70	; 0x46
1a0049da:	eb07 0405 	add.w	r4, r7, r5
1a0049de:	f43f af67 	beq.w	1a0048b0 <_vfprintf_r+0x1860>
1a0049e2:	e76b      	b.n	1a0048bc <_vfprintf_r+0x186c>
1a0049e4:	f1b9 0f00 	cmp.w	r9, #0
1a0049e8:	d131      	bne.n	1a004a4e <_vfprintf_r+0x19fe>
1a0049ea:	07c5      	lsls	r5, r0, #31
1a0049ec:	d42f      	bmi.n	1a004a4e <_vfprintf_r+0x19fe>
1a0049ee:	2301      	movs	r3, #1
1a0049f0:	9304      	str	r3, [sp, #16]
1a0049f2:	9309      	str	r3, [sp, #36]	; 0x24
1a0049f4:	2666      	movs	r6, #102	; 0x66
1a0049f6:	e642      	b.n	1a00467e <_vfprintf_r+0x162e>
1a0049f8:	07c3      	lsls	r3, r0, #31
1a0049fa:	f57f abbf 	bpl.w	1a00417c <_vfprintf_r+0x112c>
1a0049fe:	f7ff bbb9 	b.w	1a004174 <_vfprintf_r+0x1124>
1a004a02:	9a09      	ldr	r2, [sp, #36]	; 0x24
1a004a04:	f1c3 0301 	rsb	r3, r3, #1
1a004a08:	441a      	add	r2, r3
1a004a0a:	ea22 73e2 	bic.w	r3, r2, r2, asr #31
1a004a0e:	9209      	str	r2, [sp, #36]	; 0x24
1a004a10:	9304      	str	r3, [sp, #16]
1a004a12:	2667      	movs	r6, #103	; 0x67
1a004a14:	e633      	b.n	1a00467e <_vfprintf_r+0x162e>
1a004a16:	f8cd 9028 	str.w	r9, [sp, #40]	; 0x28
1a004a1a:	f04f 0901 	mov.w	r9, #1
1a004a1e:	e457      	b.n	1a0042d0 <_vfprintf_r+0x1280>
1a004a20:	465a      	mov	r2, fp
1a004a22:	e511      	b.n	1a004448 <_vfprintf_r+0x13f8>
1a004a24:	2e47      	cmp	r6, #71	; 0x47
1a004a26:	f47f af5e 	bne.w	1a0048e6 <_vfprintf_r+0x1896>
1a004a2a:	f018 0f01 	tst.w	r8, #1
1a004a2e:	f43f ab61 	beq.w	1a0040f4 <_vfprintf_r+0x10a4>
1a004a32:	e7d1      	b.n	1a0049d8 <_vfprintf_r+0x1988>
1a004a34:	2200      	movs	r2, #0
1a004a36:	2300      	movs	r3, #0
1a004a38:	e9dd 011e 	ldrd	r0, r1, [sp, #120]	; 0x78
1a004a3c:	f7fd fe3e 	bl	1a0026bc <__aeabi_dcmpeq>
1a004a40:	2800      	cmp	r0, #0
1a004a42:	f47f af39 	bne.w	1a0048b8 <_vfprintf_r+0x1868>
1a004a46:	f1c5 0501 	rsb	r5, r5, #1
1a004a4a:	9524      	str	r5, [sp, #144]	; 0x90
1a004a4c:	e735      	b.n	1a0048ba <_vfprintf_r+0x186a>
1a004a4e:	9b15      	ldr	r3, [sp, #84]	; 0x54
1a004a50:	3301      	adds	r3, #1
1a004a52:	444b      	add	r3, r9
1a004a54:	9309      	str	r3, [sp, #36]	; 0x24
1a004a56:	ea23 73e3 	bic.w	r3, r3, r3, asr #31
1a004a5a:	9304      	str	r3, [sp, #16]
1a004a5c:	2666      	movs	r6, #102	; 0x66
1a004a5e:	e60e      	b.n	1a00467e <_vfprintf_r+0x162e>
1a004a60:	f10d 029a 	add.w	r2, sp, #154	; 0x9a
1a004a64:	f7ff bb7a 	b.w	1a00415c <_vfprintf_r+0x110c>
1a004a68:	aa2a      	add	r2, sp, #168	; 0xa8
1a004a6a:	9907      	ldr	r1, [sp, #28]
1a004a6c:	9803      	ldr	r0, [sp, #12]
1a004a6e:	f007 fd15 	bl	1a00c49c <__sprint_r>
1a004a72:	2800      	cmp	r0, #0
1a004a74:	f47f a864 	bne.w	1a003b40 <_vfprintf_r+0xaf0>
1a004a78:	e9dd 242b 	ldrd	r2, r4, [sp, #172]	; 0xac
1a004a7c:	f10d 0bb4 	add.w	fp, sp, #180	; 0xb4
1a004a80:	f7ff bbbd 	b.w	1a0041fe <_vfprintf_r+0x11ae>
1a004a84:	9908      	ldr	r1, [sp, #32]
1a004a86:	f89a 6001 	ldrb.w	r6, [sl, #1]
1a004a8a:	680b      	ldr	r3, [r1, #0]
1a004a8c:	ea43 79e3 	orr.w	r9, r3, r3, asr #31
1a004a90:	1d0b      	adds	r3, r1, #4
1a004a92:	4692      	mov	sl, r2
1a004a94:	9308      	str	r3, [sp, #32]
1a004a96:	f7fe bb59 	b.w	1a00314c <_vfprintf_r+0xfc>
1a004a9a:	f10d 039a 	add.w	r3, sp, #154	; 0x9a
1a004a9e:	f7ff bb60 	b.w	1a004162 <_vfprintf_r+0x1112>
1a004aa2:	f8dd 901c 	ldr.w	r9, [sp, #28]
1a004aa6:	f8b9 300c 	ldrh.w	r3, [r9, #12]
1a004aaa:	f043 0340 	orr.w	r3, r3, #64	; 0x40
1a004aae:	f8a9 300c 	strh.w	r3, [r9, #12]
1a004ab2:	f7ff b84c 	b.w	1a003b4e <_vfprintf_r+0xafe>
1a004ab6:	bf00      	nop
1a004ab8:	1a00d794 	.word	0x1a00d794
1a004abc:	1a00d764 	.word	0x1a00d764
1a004ac0:	cccccccd 	.word	0xcccccccd
1a004ac4:	1a00d74c 	.word	0x1a00d74c
1a004ac8:	1a00d748 	.word	0x1a00d748

1a004acc <__sbprintf>:
1a004acc:	e92d 41f0 	stmdb	sp!, {r4, r5, r6, r7, r8, lr}
1a004ad0:	460c      	mov	r4, r1
1a004ad2:	f5ad 6d8d 	sub.w	sp, sp, #1128	; 0x468
1a004ad6:	8989      	ldrh	r1, [r1, #12]
1a004ad8:	6e66      	ldr	r6, [r4, #100]	; 0x64
1a004ada:	89e5      	ldrh	r5, [r4, #14]
1a004adc:	9619      	str	r6, [sp, #100]	; 0x64
1a004ade:	f021 0102 	bic.w	r1, r1, #2
1a004ae2:	4606      	mov	r6, r0
1a004ae4:	69e0      	ldr	r0, [r4, #28]
1a004ae6:	f8ad 100c 	strh.w	r1, [sp, #12]
1a004aea:	4617      	mov	r7, r2
1a004aec:	f44f 6180 	mov.w	r1, #1024	; 0x400
1a004af0:	6a62      	ldr	r2, [r4, #36]	; 0x24
1a004af2:	f8ad 500e 	strh.w	r5, [sp, #14]
1a004af6:	4698      	mov	r8, r3
1a004af8:	ad1a      	add	r5, sp, #104	; 0x68
1a004afa:	2300      	movs	r3, #0
1a004afc:	9007      	str	r0, [sp, #28]
1a004afe:	a816      	add	r0, sp, #88	; 0x58
1a004b00:	9209      	str	r2, [sp, #36]	; 0x24
1a004b02:	9306      	str	r3, [sp, #24]
1a004b04:	9500      	str	r5, [sp, #0]
1a004b06:	9504      	str	r5, [sp, #16]
1a004b08:	9102      	str	r1, [sp, #8]
1a004b0a:	9105      	str	r1, [sp, #20]
1a004b0c:	f003 f896 	bl	1a007c3c <__retarget_lock_init_recursive>
1a004b10:	4643      	mov	r3, r8
1a004b12:	463a      	mov	r2, r7
1a004b14:	4669      	mov	r1, sp
1a004b16:	4630      	mov	r0, r6
1a004b18:	f7fe fa9a 	bl	1a003050 <_vfprintf_r>
1a004b1c:	1e05      	subs	r5, r0, #0
1a004b1e:	db07      	blt.n	1a004b30 <__sbprintf+0x64>
1a004b20:	4630      	mov	r0, r6
1a004b22:	4669      	mov	r1, sp
1a004b24:	f002 fbba 	bl	1a00729c <_fflush_r>
1a004b28:	2800      	cmp	r0, #0
1a004b2a:	bf18      	it	ne
1a004b2c:	f04f 35ff 	movne.w	r5, #4294967295	; 0xffffffff
1a004b30:	f8bd 300c 	ldrh.w	r3, [sp, #12]
1a004b34:	065b      	lsls	r3, r3, #25
1a004b36:	d503      	bpl.n	1a004b40 <__sbprintf+0x74>
1a004b38:	89a3      	ldrh	r3, [r4, #12]
1a004b3a:	f043 0340 	orr.w	r3, r3, #64	; 0x40
1a004b3e:	81a3      	strh	r3, [r4, #12]
1a004b40:	9816      	ldr	r0, [sp, #88]	; 0x58
1a004b42:	f003 f87d 	bl	1a007c40 <__retarget_lock_close_recursive>
1a004b46:	4628      	mov	r0, r5
1a004b48:	f50d 6d8d 	add.w	sp, sp, #1128	; 0x468
1a004b4c:	e8bd 81f0 	ldmia.w	sp!, {r4, r5, r6, r7, r8, pc}

1a004b50 <__svfscanf_r>:
1a004b50:	e92d 4ff0 	stmdb	sp!, {r4, r5, r6, r7, r8, r9, sl, fp, lr}
1a004b54:	ed2d 8b02 	vpush	{d8}
1a004b58:	f5ad 7d31 	sub.w	sp, sp, #708	; 0x2c4
1a004b5c:	468b      	mov	fp, r1
1a004b5e:	af02      	add	r7, sp, #8
1a004b60:	f9b1 100c 	ldrsh.w	r1, [r1, #12]
1a004b64:	63f8      	str	r0, [r7, #60]	; 0x3c
1a004b66:	f8db 0064 	ldr.w	r0, [fp, #100]	; 0x64
1a004b6a:	62fb      	str	r3, [r7, #44]	; 0x2c
1a004b6c:	07c5      	lsls	r5, r0, #31
1a004b6e:	63ba      	str	r2, [r7, #56]	; 0x38
1a004b70:	b28b      	uxth	r3, r1
1a004b72:	d402      	bmi.n	1a004b7a <__svfscanf_r+0x2a>
1a004b74:	059c      	lsls	r4, r3, #22
1a004b76:	f140 87e7 	bpl.w	1a005b48 <__svfscanf_r+0xff8>
1a004b7a:	0498      	lsls	r0, r3, #18
1a004b7c:	d409      	bmi.n	1a004b92 <__svfscanf_r+0x42>
1a004b7e:	f8db 3064 	ldr.w	r3, [fp, #100]	; 0x64
1a004b82:	f441 5100 	orr.w	r1, r1, #8192	; 0x2000
1a004b86:	f423 5300 	bic.w	r3, r3, #8192	; 0x2000
1a004b8a:	f8ab 100c 	strh.w	r1, [fp, #12]
1a004b8e:	f8cb 3064 	str.w	r3, [fp, #100]	; 0x64
1a004b92:	2300      	movs	r3, #0
1a004b94:	61fb      	str	r3, [r7, #28]
1a004b96:	633b      	str	r3, [r7, #48]	; 0x30
1a004b98:	627b      	str	r3, [r7, #36]	; 0x24
1a004b9a:	469a      	mov	sl, r3
1a004b9c:	637b      	str	r3, [r7, #52]	; 0x34
1a004b9e:	f8d7 8038 	ldr.w	r8, [r7, #56]	; 0x38
1a004ba2:	f818 3b01 	ldrb.w	r3, [r8], #1
1a004ba6:	647b      	str	r3, [r7, #68]	; 0x44
1a004ba8:	2b00      	cmp	r3, #0
1a004baa:	f000 808d 	beq.w	1a004cc8 <__svfscanf_r+0x178>
1a004bae:	f003 f827 	bl	1a007c00 <__locale_ctype_ptr>
1a004bb2:	6c7b      	ldr	r3, [r7, #68]	; 0x44
1a004bb4:	4418      	add	r0, r3
1a004bb6:	7846      	ldrb	r6, [r0, #1]
1a004bb8:	f016 0608 	ands.w	r6, r6, #8
1a004bbc:	f040 80a0 	bne.w	1a004d00 <__svfscanf_r+0x1b0>
1a004bc0:	2b25      	cmp	r3, #37	; 0x25
1a004bc2:	f040 80c0 	bne.w	1a004d46 <__svfscanf_r+0x1f6>
1a004bc6:	6bbb      	ldr	r3, [r7, #56]	; 0x38
1a004bc8:	785a      	ldrb	r2, [r3, #1]
1a004bca:	4635      	mov	r5, r6
1a004bcc:	4634      	mov	r4, r6
1a004bce:	f1a2 0325 	sub.w	r3, r2, #37	; 0x25
1a004bd2:	f108 0101 	add.w	r1, r8, #1
1a004bd6:	2b55      	cmp	r3, #85	; 0x55
1a004bd8:	d876      	bhi.n	1a004cc8 <__svfscanf_r+0x178>
1a004bda:	e8df f013 	tbh	[pc, r3, lsl #1]
1a004bde:	00b3      	.short	0x00b3
1a004be0:	00750075 	.word	0x00750075
1a004be4:	00750075 	.word	0x00750075
1a004be8:	0075044b 	.word	0x0075044b
1a004bec:	00750075 	.word	0x00750075
1a004bf0:	00750075 	.word	0x00750075
1a004bf4:	045b045b 	.word	0x045b045b
1a004bf8:	045b045b 	.word	0x045b045b
1a004bfc:	045b045b 	.word	0x045b045b
1a004c00:	045b045b 	.word	0x045b045b
1a004c04:	045b045b 	.word	0x045b045b
1a004c08:	00750075 	.word	0x00750075
1a004c0c:	00750075 	.word	0x00750075
1a004c10:	00750075 	.word	0x00750075
1a004c14:	04570075 	.word	0x04570075
1a004c18:	04be0075 	.word	0x04be0075
1a004c1c:	045704ba 	.word	0x045704ba
1a004c20:	04570457 	.word	0x04570457
1a004c24:	00750075 	.word	0x00750075
1a004c28:	00750075 	.word	0x00750075
1a004c2c:	007500cd 	.word	0x007500cd
1a004c30:	04b60075 	.word	0x04b60075
1a004c34:	00750075 	.word	0x00750075
1a004c38:	04c60075 	.word	0x04c60075
1a004c3c:	00750075 	.word	0x00750075
1a004c40:	00750075 	.word	0x00750075
1a004c44:	007504c2 	.word	0x007504c2
1a004c48:	04cc0075 	.word	0x04cc0075
1a004c4c:	00750075 	.word	0x00750075
1a004c50:	00750075 	.word	0x00750075
1a004c54:	04570075 	.word	0x04570075
1a004c58:	00fa0075 	.word	0x00fa0075
1a004c5c:	0457042a 	.word	0x0457042a
1a004c60:	04570457 	.word	0x04570457
1a004c64:	04ae043e 	.word	0x04ae043e
1a004c68:	007500cd 	.word	0x007500cd
1a004c6c:	049204a1 	.word	0x049204a1
1a004c70:	047b0483 	.word	0x047b0483
1a004c74:	00750471 	.word	0x00750471
1a004c78:	046d0075 	.word	0x046d0075
1a004c7c:	046500d5 	.word	0x046500d5
1a004c80:	00750075 	.word	0x00750075
1a004c84:	007504c2 	.word	0x007504c2
1a004c88:	00d5      	.short	0x00d5
1a004c8a:	687b      	ldr	r3, [r7, #4]
1a004c8c:	3302      	adds	r3, #2
1a004c8e:	f041 8223 	bne.w	1a0060d8 <__svfscanf_r+0x1588>
1a004c92:	f8db 3004 	ldr.w	r3, [fp, #4]
1a004c96:	2b00      	cmp	r3, #0
1a004c98:	f300 8177 	bgt.w	1a004f8a <__svfscanf_r+0x43a>
1a004c9c:	4659      	mov	r1, fp
1a004c9e:	6bf8      	ldr	r0, [r7, #60]	; 0x3c
1a004ca0:	f004 fa24 	bl	1a0090ec <__srefill_r>
1a004ca4:	2800      	cmp	r0, #0
1a004ca6:	f000 8170 	beq.w	1a004f8a <__svfscanf_r+0x43a>
1a004caa:	2d00      	cmp	r5, #0
1a004cac:	f001 8054 	beq.w	1a005d58 <__svfscanf_r+0x1208>
1a004cb0:	6b7a      	ldr	r2, [r7, #52]	; 0x34
1a004cb2:	2a00      	cmp	r2, #0
1a004cb4:	f001 8132 	beq.w	1a005f1c <__svfscanf_r+0x13cc>
1a004cb8:	f8bb 300c 	ldrh.w	r3, [fp, #12]
1a004cbc:	f013 0f40 	tst.w	r3, #64	; 0x40
1a004cc0:	bf18      	it	ne
1a004cc2:	f04f 32ff 	movne.w	r2, #4294967295	; 0xffffffff
1a004cc6:	637a      	str	r2, [r7, #52]	; 0x34
1a004cc8:	f8db 3064 	ldr.w	r3, [fp, #100]	; 0x64
1a004ccc:	07d9      	lsls	r1, r3, #31
1a004cce:	d404      	bmi.n	1a004cda <__svfscanf_r+0x18a>
1a004cd0:	f8bb 300c 	ldrh.w	r3, [fp, #12]
1a004cd4:	059a      	lsls	r2, r3, #22
1a004cd6:	f140 8731 	bpl.w	1a005b3c <__svfscanf_r+0xfec>
1a004cda:	6b3b      	ldr	r3, [r7, #48]	; 0x30
1a004cdc:	b143      	cbz	r3, 1a004cf0 <__svfscanf_r+0x1a0>
1a004cde:	6b3b      	ldr	r3, [r7, #48]	; 0x30
1a004ce0:	681e      	ldr	r6, [r3, #0]
1a004ce2:	6b7b      	ldr	r3, [r7, #52]	; 0x34
1a004ce4:	3301      	adds	r3, #1
1a004ce6:	d05c      	beq.n	1a004da2 <__svfscanf_r+0x252>
1a004ce8:	b116      	cbz	r6, 1a004cf0 <__svfscanf_r+0x1a0>
1a004cea:	4630      	mov	r0, r6
1a004cec:	f003 f82e 	bl	1a007d4c <free>
1a004cf0:	6b78      	ldr	r0, [r7, #52]	; 0x34
1a004cf2:	f507 772f 	add.w	r7, r7, #700	; 0x2bc
1a004cf6:	46bd      	mov	sp, r7
1a004cf8:	ecbd 8b02 	vpop	{d8}
1a004cfc:	e8bd 8ff0 	ldmia.w	sp!, {r4, r5, r6, r7, r8, r9, sl, fp, pc}
1a004d00:	f8db 2004 	ldr.w	r2, [fp, #4]
1a004d04:	6bfc      	ldr	r4, [r7, #60]	; 0x3c
1a004d06:	e012      	b.n	1a004d2e <__svfscanf_r+0x1de>
1a004d08:	f002 ff7a 	bl	1a007c00 <__locale_ctype_ptr>
1a004d0c:	f8db 3000 	ldr.w	r3, [fp]
1a004d10:	781a      	ldrb	r2, [r3, #0]
1a004d12:	4410      	add	r0, r2
1a004d14:	3301      	adds	r3, #1
1a004d16:	7842      	ldrb	r2, [r0, #1]
1a004d18:	0712      	lsls	r2, r2, #28
1a004d1a:	d510      	bpl.n	1a004d3e <__svfscanf_r+0x1ee>
1a004d1c:	f8db 2004 	ldr.w	r2, [fp, #4]
1a004d20:	f8cb 3000 	str.w	r3, [fp]
1a004d24:	3a01      	subs	r2, #1
1a004d26:	f10a 0a01 	add.w	sl, sl, #1
1a004d2a:	f8cb 2004 	str.w	r2, [fp, #4]
1a004d2e:	2a00      	cmp	r2, #0
1a004d30:	dcea      	bgt.n	1a004d08 <__svfscanf_r+0x1b8>
1a004d32:	4659      	mov	r1, fp
1a004d34:	4620      	mov	r0, r4
1a004d36:	f004 f9d9 	bl	1a0090ec <__srefill_r>
1a004d3a:	2800      	cmp	r0, #0
1a004d3c:	d0e4      	beq.n	1a004d08 <__svfscanf_r+0x1b8>
1a004d3e:	f8c7 8038 	str.w	r8, [r7, #56]	; 0x38
1a004d42:	e72c      	b.n	1a004b9e <__svfscanf_r+0x4e>
1a004d44:	4688      	mov	r8, r1
1a004d46:	f8db 3004 	ldr.w	r3, [fp, #4]
1a004d4a:	2b00      	cmp	r3, #0
1a004d4c:	f340 86e4 	ble.w	1a005b18 <__svfscanf_r+0xfc8>
1a004d50:	f8db 3000 	ldr.w	r3, [fp]
1a004d54:	f818 2c01 	ldrb.w	r2, [r8, #-1]
1a004d58:	7819      	ldrb	r1, [r3, #0]
1a004d5a:	4291      	cmp	r1, r2
1a004d5c:	d1b4      	bne.n	1a004cc8 <__svfscanf_r+0x178>
1a004d5e:	f8db 2004 	ldr.w	r2, [fp, #4]
1a004d62:	f8c7 8038 	str.w	r8, [r7, #56]	; 0x38
1a004d66:	3301      	adds	r3, #1
1a004d68:	3a01      	subs	r2, #1
1a004d6a:	f8cb 3000 	str.w	r3, [fp]
1a004d6e:	f10a 0a01 	add.w	sl, sl, #1
1a004d72:	f8cb 2004 	str.w	r2, [fp, #4]
1a004d76:	e712      	b.n	1a004b9e <__svfscanf_r+0x4e>
1a004d78:	072a      	lsls	r2, r5, #28
1a004d7a:	d1a5      	bne.n	1a004cc8 <__svfscanf_r+0x178>
1a004d7c:	f898 2001 	ldrb.w	r2, [r8, #1]
1a004d80:	f045 0502 	orr.w	r5, r5, #2
1a004d84:	4688      	mov	r8, r1
1a004d86:	e722      	b.n	1a004bce <__svfscanf_r+0x7e>
1a004d88:	072b      	lsls	r3, r5, #28
1a004d8a:	d19d      	bne.n	1a004cc8 <__svfscanf_r+0x178>
1a004d8c:	f898 2001 	ldrb.w	r2, [r8, #1]
1a004d90:	4688      	mov	r8, r1
1a004d92:	e71c      	b.n	1a004bce <__svfscanf_r+0x7e>
1a004d94:	f8db 3064 	ldr.w	r3, [fp, #100]	; 0x64
1a004d98:	07db      	lsls	r3, r3, #31
1a004d9a:	f140 86c6 	bpl.w	1a005b2a <__svfscanf_r+0xfda>
1a004d9e:	6b3b      	ldr	r3, [r7, #48]	; 0x30
1a004da0:	681e      	ldr	r6, [r3, #0]
1a004da2:	6b3b      	ldr	r3, [r7, #48]	; 0x30
1a004da4:	88dd      	ldrh	r5, [r3, #6]
1a004da6:	b175      	cbz	r5, 1a004dc6 <__svfscanf_r+0x276>
1a004da8:	eb06 0585 	add.w	r5, r6, r5, lsl #2
1a004dac:	4634      	mov	r4, r6
1a004dae:	f04f 0800 	mov.w	r8, #0
1a004db2:	6823      	ldr	r3, [r4, #0]
1a004db4:	6818      	ldr	r0, [r3, #0]
1a004db6:	f002 ffc9 	bl	1a007d4c <free>
1a004dba:	f854 3b04 	ldr.w	r3, [r4], #4
1a004dbe:	42ac      	cmp	r4, r5
1a004dc0:	f8c3 8000 	str.w	r8, [r3]
1a004dc4:	d1f5      	bne.n	1a004db2 <__svfscanf_r+0x262>
1a004dc6:	f04f 33ff 	mov.w	r3, #4294967295	; 0xffffffff
1a004dca:	637b      	str	r3, [r7, #52]	; 0x34
1a004dcc:	2e00      	cmp	r6, #0
1a004dce:	d18c      	bne.n	1a004cea <__svfscanf_r+0x19a>
1a004dd0:	e78e      	b.n	1a004cf0 <__svfscanf_r+0x1a0>
1a004dd2:	63b9      	str	r1, [r7, #56]	; 0x38
1a004dd4:	f045 0540 	orr.w	r5, r5, #64	; 0x40
1a004dd8:	f04f 0800 	mov.w	r8, #0
1a004ddc:	f8db 3004 	ldr.w	r3, [fp, #4]
1a004de0:	2b00      	cmp	r3, #0
1a004de2:	f340 8332 	ble.w	1a00544a <__svfscanf_r+0x8fa>
1a004de6:	0668      	lsls	r0, r5, #25
1a004de8:	d512      	bpl.n	1a004e10 <__svfscanf_r+0x2c0>
1a004dea:	f108 38ff 	add.w	r8, r8, #4294967295	; 0xffffffff
1a004dee:	f1b8 0f03 	cmp.w	r8, #3
1a004df2:	f200 8123 	bhi.w	1a00503c <__svfscanf_r+0x4ec>
1a004df6:	e8df f018 	tbh	[pc, r8, lsl #1]
1a004dfa:	01d1      	.short	0x01d1
1a004dfc:	00210091 	.word	0x00210091
1a004e00:	03db      	.short	0x03db
1a004e02:	4659      	mov	r1, fp
1a004e04:	6bf8      	ldr	r0, [r7, #60]	; 0x3c
1a004e06:	f004 f971 	bl	1a0090ec <__srefill_r>
1a004e0a:	2800      	cmp	r0, #0
1a004e0c:	f47f af50 	bne.w	1a004cb0 <__svfscanf_r+0x160>
1a004e10:	f002 fef6 	bl	1a007c00 <__locale_ctype_ptr>
1a004e14:	f8db 3000 	ldr.w	r3, [fp]
1a004e18:	781a      	ldrb	r2, [r3, #0]
1a004e1a:	4410      	add	r0, r2
1a004e1c:	3301      	adds	r3, #1
1a004e1e:	7842      	ldrb	r2, [r0, #1]
1a004e20:	0711      	lsls	r1, r2, #28
1a004e22:	d5e2      	bpl.n	1a004dea <__svfscanf_r+0x29a>
1a004e24:	f8db 2004 	ldr.w	r2, [fp, #4]
1a004e28:	3a01      	subs	r2, #1
1a004e2a:	2a00      	cmp	r2, #0
1a004e2c:	f10a 0a01 	add.w	sl, sl, #1
1a004e30:	f8cb 2004 	str.w	r2, [fp, #4]
1a004e34:	dde5      	ble.n	1a004e02 <__svfscanf_r+0x2b2>
1a004e36:	f8cb 3000 	str.w	r3, [fp]
1a004e3a:	e7e9      	b.n	1a004e10 <__svfscanf_r+0x2c0>
1a004e3c:	1e63      	subs	r3, r4, #1
1a004e3e:	f5b3 7fae 	cmp.w	r3, #348	; 0x15c
1a004e42:	bf86      	itte	hi
1a004e44:	f46f 72ae 	mvnhi.w	r2, #348	; 0x15c
1a004e48:	eb04 0902 	addhi.w	r9, r4, r2
1a004e4c:	f04f 0900 	movls.w	r9, #0
1a004e50:	f507 76ac 	add.w	r6, r7, #344	; 0x158
1a004e54:	f8c7 9028 	str.w	r9, [r7, #40]	; 0x28
1a004e58:	f8d7 9024 	ldr.w	r9, [r7, #36]	; 0x24
1a004e5c:	623e      	str	r6, [r7, #32]
1a004e5e:	bf88      	it	hi
1a004e60:	f240 145d 	movwhi	r4, #349	; 0x15d
1a004e64:	f445 6558 	orr.w	r5, r5, #3456	; 0xd80
1a004e68:	f04f 0800 	mov.w	r8, #0
1a004e6c:	f8db 1000 	ldr.w	r1, [fp]
1a004e70:	7808      	ldrb	r0, [r1, #0]
1a004e72:	f1a0 032b 	sub.w	r3, r0, #43	; 0x2b
1a004e76:	2b4d      	cmp	r3, #77	; 0x4d
1a004e78:	f200 8287 	bhi.w	1a00538a <__svfscanf_r+0x83a>
1a004e7c:	e8df f013 	tbh	[pc, r3, lsl #1]
1a004e80:	028502b2 	.word	0x028502b2
1a004e84:	028502b2 	.word	0x028502b2
1a004e88:	02b70285 	.word	0x02b70285
1a004e8c:	02700270 	.word	0x02700270
1a004e90:	02700270 	.word	0x02700270
1a004e94:	02700270 	.word	0x02700270
1a004e98:	02d20270 	.word	0x02d20270
1a004e9c:	028502d2 	.word	0x028502d2
1a004ea0:	02850285 	.word	0x02850285
1a004ea4:	02850285 	.word	0x02850285
1a004ea8:	02850285 	.word	0x02850285
1a004eac:	02ac02ac 	.word	0x02ac02ac
1a004eb0:	02ac02ac 	.word	0x02ac02ac
1a004eb4:	02ac02ac 	.word	0x02ac02ac
1a004eb8:	02850285 	.word	0x02850285
1a004ebc:	02850285 	.word	0x02850285
1a004ec0:	02850285 	.word	0x02850285
1a004ec4:	02850285 	.word	0x02850285
1a004ec8:	02850285 	.word	0x02850285
1a004ecc:	02850285 	.word	0x02850285
1a004ed0:	02850285 	.word	0x02850285
1a004ed4:	02850285 	.word	0x02850285
1a004ed8:	02c60285 	.word	0x02c60285
1a004edc:	02850285 	.word	0x02850285
1a004ee0:	02850285 	.word	0x02850285
1a004ee4:	02850285 	.word	0x02850285
1a004ee8:	02850285 	.word	0x02850285
1a004eec:	02ac02ac 	.word	0x02ac02ac
1a004ef0:	02ac02ac 	.word	0x02ac02ac
1a004ef4:	02ac02ac 	.word	0x02ac02ac
1a004ef8:	02850285 	.word	0x02850285
1a004efc:	02850285 	.word	0x02850285
1a004f00:	02850285 	.word	0x02850285
1a004f04:	02850285 	.word	0x02850285
1a004f08:	02850285 	.word	0x02850285
1a004f0c:	02850285 	.word	0x02850285
1a004f10:	02850285 	.word	0x02850285
1a004f14:	02850285 	.word	0x02850285
1a004f18:	02c60285 	.word	0x02c60285
1a004f1c:	2c00      	cmp	r4, #0
1a004f1e:	bf08      	it	eq
1a004f20:	f04f 34ff 	moveq.w	r4, #4294967295	; 0xffffffff
1a004f24:	f015 0801 	ands.w	r8, r5, #1
1a004f28:	f005 0610 	and.w	r6, r5, #16
1a004f2c:	f000 84f8 	beq.w	1a005920 <__svfscanf_r+0xdd0>
1a004f30:	2e00      	cmp	r6, #0
1a004f32:	f040 866b 	bne.w	1a005c0c <__svfscanf_r+0x10bc>
1a004f36:	6afb      	ldr	r3, [r7, #44]	; 0x2c
1a004f38:	062a      	lsls	r2, r5, #24
1a004f3a:	f853 9b04 	ldr.w	r9, [r3], #4
1a004f3e:	62fb      	str	r3, [r7, #44]	; 0x2c
1a004f40:	f140 87df 	bpl.w	1a005f02 <__svfscanf_r+0x13b2>
1a004f44:	f1b9 0f00 	cmp.w	r9, #0
1a004f48:	f43f aebe 	beq.w	1a004cc8 <__svfscanf_r+0x178>
1a004f4c:	2080      	movs	r0, #128	; 0x80
1a004f4e:	f002 fef5 	bl	1a007d3c <malloc>
1a004f52:	62b8      	str	r0, [r7, #40]	; 0x28
1a004f54:	2800      	cmp	r0, #0
1a004f56:	f000 87e1 	beq.w	1a005f1c <__svfscanf_r+0x13cc>
1a004f5a:	6b3b      	ldr	r3, [r7, #48]	; 0x30
1a004f5c:	6aba      	ldr	r2, [r7, #40]	; 0x28
1a004f5e:	f8b3 8006 	ldrh.w	r8, [r3, #6]
1a004f62:	889d      	ldrh	r5, [r3, #4]
1a004f64:	f8c9 2000 	str.w	r2, [r9]
1a004f68:	45a8      	cmp	r8, r5
1a004f6a:	f080 87dc 	bcs.w	1a005f26 <__svfscanf_r+0x13d6>
1a004f6e:	6818      	ldr	r0, [r3, #0]
1a004f70:	6b3a      	ldr	r2, [r7, #48]	; 0x30
1a004f72:	f840 9028 	str.w	r9, [r0, r8, lsl #2]
1a004f76:	f108 0301 	add.w	r3, r8, #1
1a004f7a:	f8c7 9020 	str.w	r9, [r7, #32]
1a004f7e:	f8d7 9028 	ldr.w	r9, [r7, #40]	; 0x28
1a004f82:	80d3      	strh	r3, [r2, #6]
1a004f84:	f04f 0820 	mov.w	r8, #32
1a004f88:	2500      	movs	r5, #0
1a004f8a:	f002 fe39 	bl	1a007c00 <__locale_ctype_ptr>
1a004f8e:	f8db 3000 	ldr.w	r3, [fp]
1a004f92:	781b      	ldrb	r3, [r3, #0]
1a004f94:	4418      	add	r0, r3
1a004f96:	7843      	ldrb	r3, [r0, #1]
1a004f98:	071b      	lsls	r3, r3, #28
1a004f9a:	f100 86dd 	bmi.w	1a005d58 <__svfscanf_r+0x1208>
1a004f9e:	2c00      	cmp	r4, #0
1a004fa0:	f000 86da 	beq.w	1a005d58 <__svfscanf_r+0x1208>
1a004fa4:	f002 fe1a 	bl	1a007bdc <__locale_mb_cur_max>
1a004fa8:	42a8      	cmp	r0, r5
1a004faa:	f43f ae81 	beq.w	1a004cb0 <__svfscanf_r+0x160>
1a004fae:	e9db 2300 	ldrd	r2, r3, [fp]
1a004fb2:	3b01      	subs	r3, #1
1a004fb4:	f812 1b01 	ldrb.w	r1, [r2], #1
1a004fb8:	f8cb 3004 	str.w	r3, [fp, #4]
1a004fbc:	687b      	ldr	r3, [r7, #4]
1a004fbe:	f8cb 2000 	str.w	r2, [fp]
1a004fc2:	f507 70ac 	add.w	r0, r7, #344	; 0x158
1a004fc6:	2b03      	cmp	r3, #3
1a004fc8:	f107 0350 	add.w	r3, r7, #80	; 0x50
1a004fcc:	5541      	strb	r1, [r0, r5]
1a004fce:	61bb      	str	r3, [r7, #24]
1a004fd0:	f105 0501 	add.w	r5, r5, #1
1a004fd4:	d102      	bne.n	1a004fdc <__svfscanf_r+0x48c>
1a004fd6:	6d3b      	ldr	r3, [r7, #80]	; 0x50
1a004fd8:	2b04      	cmp	r3, #4
1a004fda:	d004      	beq.n	1a004fe6 <__svfscanf_r+0x496>
1a004fdc:	2208      	movs	r2, #8
1a004fde:	2100      	movs	r1, #0
1a004fe0:	69b8      	ldr	r0, [r7, #24]
1a004fe2:	f7fd fe2b 	bl	1a002c3c <memset>
1a004fe6:	69bb      	ldr	r3, [r7, #24]
1a004fe8:	9300      	str	r3, [sp, #0]
1a004fea:	f507 72ac 	add.w	r2, r7, #344	; 0x158
1a004fee:	462b      	mov	r3, r5
1a004ff0:	4649      	mov	r1, r9
1a004ff2:	6bf8      	ldr	r0, [r7, #60]	; 0x3c
1a004ff4:	f003 f956 	bl	1a0082a4 <_mbrtowc_r>
1a004ff8:	1c42      	adds	r2, r0, #1
1a004ffa:	6078      	str	r0, [r7, #4]
1a004ffc:	f43f ae58 	beq.w	1a004cb0 <__svfscanf_r+0x160>
1a005000:	2800      	cmp	r0, #0
1a005002:	f47f ae42 	bne.w	1a004c8a <__svfscanf_r+0x13a>
1a005006:	f8c9 0000 	str.w	r0, [r9]
1a00500a:	f002 fdd9 	bl	1a007bc0 <iswspace>
1a00500e:	2800      	cmp	r0, #0
1a005010:	f040 868f 	bne.w	1a005d32 <__svfscanf_r+0x11e2>
1a005014:	44aa      	add	sl, r5
1a005016:	3c01      	subs	r4, #1
1a005018:	2e00      	cmp	r6, #0
1a00501a:	f041 800d 	bne.w	1a006038 <__svfscanf_r+0x14e8>
1a00501e:	6a3b      	ldr	r3, [r7, #32]
1a005020:	f109 0904 	add.w	r9, r9, #4
1a005024:	2b00      	cmp	r3, #0
1a005026:	f001 8007 	beq.w	1a006038 <__svfscanf_r+0x14e8>
1a00502a:	6abb      	ldr	r3, [r7, #40]	; 0x28
1a00502c:	eba9 0503 	sub.w	r5, r9, r3
1a005030:	ebb8 0fa5 	cmp.w	r8, r5, asr #2
1a005034:	f241 8016 	bls.w	1a006064 <__svfscanf_r+0x1514>
1a005038:	4635      	mov	r5, r6
1a00503a:	e62a      	b.n	1a004c92 <__svfscanf_r+0x142>
1a00503c:	2c00      	cmp	r4, #0
1a00503e:	bf08      	it	eq
1a005040:	2401      	moveq	r4, #1
1a005042:	f005 0210 	and.w	r2, r5, #16
1a005046:	f015 0301 	ands.w	r3, r5, #1
1a00504a:	62ba      	str	r2, [r7, #40]	; 0x28
1a00504c:	f000 842a 	beq.w	1a0058a4 <__svfscanf_r+0xd54>
1a005050:	2a00      	cmp	r2, #0
1a005052:	f040 85d4 	bne.w	1a005bfe <__svfscanf_r+0x10ae>
1a005056:	6afb      	ldr	r3, [r7, #44]	; 0x2c
1a005058:	062a      	lsls	r2, r5, #24
1a00505a:	f853 8b04 	ldr.w	r8, [r3], #4
1a00505e:	62fb      	str	r3, [r7, #44]	; 0x2c
1a005060:	f140 8741 	bpl.w	1a005ee6 <__svfscanf_r+0x1396>
1a005064:	f1b8 0f00 	cmp.w	r8, #0
1a005068:	f43f ae2e 	beq.w	1a004cc8 <__svfscanf_r+0x178>
1a00506c:	2080      	movs	r0, #128	; 0x80
1a00506e:	f002 fe65 	bl	1a007d3c <malloc>
1a005072:	61b8      	str	r0, [r7, #24]
1a005074:	2800      	cmp	r0, #0
1a005076:	f000 8751 	beq.w	1a005f1c <__svfscanf_r+0x13cc>
1a00507a:	6b38      	ldr	r0, [r7, #48]	; 0x30
1a00507c:	69ba      	ldr	r2, [r7, #24]
1a00507e:	88c5      	ldrh	r5, [r0, #6]
1a005080:	8883      	ldrh	r3, [r0, #4]
1a005082:	f8c8 2000 	str.w	r2, [r8]
1a005086:	429d      	cmp	r5, r3
1a005088:	d310      	bcc.n	1a0050ac <__svfscanf_r+0x55c>
1a00508a:	f64f 72f6 	movw	r2, #65526	; 0xfff6
1a00508e:	4293      	cmp	r3, r2
1a005090:	f200 8744 	bhi.w	1a005f1c <__svfscanf_r+0x13cc>
1a005094:	f103 0608 	add.w	r6, r3, #8
1a005098:	00b1      	lsls	r1, r6, #2
1a00509a:	6800      	ldr	r0, [r0, #0]
1a00509c:	f003 fe66 	bl	1a008d6c <realloc>
1a0050a0:	2800      	cmp	r0, #0
1a0050a2:	f000 873b 	beq.w	1a005f1c <__svfscanf_r+0x13cc>
1a0050a6:	6b3b      	ldr	r3, [r7, #48]	; 0x30
1a0050a8:	6018      	str	r0, [r3, #0]
1a0050aa:	809e      	strh	r6, [r3, #4]
1a0050ac:	6b39      	ldr	r1, [r7, #48]	; 0x30
1a0050ae:	f8c7 8014 	str.w	r8, [r7, #20]
1a0050b2:	680a      	ldr	r2, [r1, #0]
1a0050b4:	1c6b      	adds	r3, r5, #1
1a0050b6:	f842 8025 	str.w	r8, [r2, r5, lsl #2]
1a0050ba:	80cb      	strh	r3, [r1, #6]
1a0050bc:	f8d7 8018 	ldr.w	r8, [r7, #24]
1a0050c0:	2320      	movs	r3, #32
1a0050c2:	613b      	str	r3, [r7, #16]
1a0050c4:	f8c7 a020 	str.w	sl, [r7, #32]
1a0050c8:	f8d7 a004 	ldr.w	sl, [r7, #4]
1a0050cc:	2500      	movs	r5, #0
1a0050ce:	f507 79ac 	add.w	r9, r7, #344	; 0x158
1a0050d2:	f002 fd83 	bl	1a007bdc <__locale_mb_cur_max>
1a0050d6:	42a8      	cmp	r0, r5
1a0050d8:	f43f adea 	beq.w	1a004cb0 <__svfscanf_r+0x160>
1a0050dc:	e9db 1200 	ldrd	r1, r2, [fp]
1a0050e0:	f1ba 0f03 	cmp.w	sl, #3
1a0050e4:	f811 0b01 	ldrb.w	r0, [r1], #1
1a0050e8:	f809 0005 	strb.w	r0, [r9, r5]
1a0050ec:	f102 32ff 	add.w	r2, r2, #4294967295	; 0xffffffff
1a0050f0:	f8cb 1000 	str.w	r1, [fp]
1a0050f4:	f105 0501 	add.w	r5, r5, #1
1a0050f8:	f8cb 2004 	str.w	r2, [fp, #4]
1a0050fc:	f107 0650 	add.w	r6, r7, #80	; 0x50
1a005100:	d102      	bne.n	1a005108 <__svfscanf_r+0x5b8>
1a005102:	6833      	ldr	r3, [r6, #0]
1a005104:	2b04      	cmp	r3, #4
1a005106:	d004      	beq.n	1a005112 <__svfscanf_r+0x5c2>
1a005108:	2208      	movs	r2, #8
1a00510a:	2100      	movs	r1, #0
1a00510c:	4630      	mov	r0, r6
1a00510e:	f7fd fd95 	bl	1a002c3c <memset>
1a005112:	9600      	str	r6, [sp, #0]
1a005114:	462b      	mov	r3, r5
1a005116:	464a      	mov	r2, r9
1a005118:	4641      	mov	r1, r8
1a00511a:	6bf8      	ldr	r0, [r7, #60]	; 0x3c
1a00511c:	f003 f8c2 	bl	1a0082a4 <_mbrtowc_r>
1a005120:	f1b0 3fff 	cmp.w	r0, #4294967295	; 0xffffffff
1a005124:	4682      	mov	sl, r0
1a005126:	f43f adc3 	beq.w	1a004cb0 <__svfscanf_r+0x160>
1a00512a:	2800      	cmp	r0, #0
1a00512c:	f040 85d2 	bne.w	1a005cd4 <__svfscanf_r+0x1184>
1a005130:	6abb      	ldr	r3, [r7, #40]	; 0x28
1a005132:	b90b      	cbnz	r3, 1a005138 <__svfscanf_r+0x5e8>
1a005134:	f8c8 3000 	str.w	r3, [r8]
1a005138:	6a3b      	ldr	r3, [r7, #32]
1a00513a:	442b      	add	r3, r5
1a00513c:	623b      	str	r3, [r7, #32]
1a00513e:	6abb      	ldr	r3, [r7, #40]	; 0x28
1a005140:	3c01      	subs	r4, #1
1a005142:	2b00      	cmp	r3, #0
1a005144:	f040 85d8 	bne.w	1a005cf8 <__svfscanf_r+0x11a8>
1a005148:	697b      	ldr	r3, [r7, #20]
1a00514a:	b13b      	cbz	r3, 1a00515c <__svfscanf_r+0x60c>
1a00514c:	69bb      	ldr	r3, [r7, #24]
1a00514e:	eba8 0503 	sub.w	r5, r8, r3
1a005152:	693b      	ldr	r3, [r7, #16]
1a005154:	ebb3 0fa5 	cmp.w	r3, r5, asr #2
1a005158:	f240 8619 	bls.w	1a005d8e <__svfscanf_r+0x123e>
1a00515c:	f108 0804 	add.w	r8, r8, #4
1a005160:	2500      	movs	r5, #0
1a005162:	f8db 2004 	ldr.w	r2, [fp, #4]
1a005166:	2a00      	cmp	r2, #0
1a005168:	f340 84f7 	ble.w	1a005b5a <__svfscanf_r+0x100a>
1a00516c:	2c00      	cmp	r4, #0
1a00516e:	d1b0      	bne.n	1a0050d2 <__svfscanf_r+0x582>
1a005170:	f8c7 a004 	str.w	sl, [r7, #4]
1a005174:	f8d7 a020 	ldr.w	sl, [r7, #32]
1a005178:	697b      	ldr	r3, [r7, #20]
1a00517a:	b13b      	cbz	r3, 1a00518c <__svfscanf_r+0x63c>
1a00517c:	69bb      	ldr	r3, [r7, #24]
1a00517e:	eba8 0103 	sub.w	r1, r8, r3
1a005182:	693b      	ldr	r3, [r7, #16]
1a005184:	ebb3 0fa1 	cmp.w	r3, r1, asr #2
1a005188:	f200 8725 	bhi.w	1a005fd6 <__svfscanf_r+0x1486>
1a00518c:	6abb      	ldr	r3, [r7, #40]	; 0x28
1a00518e:	2b00      	cmp	r3, #0
1a005190:	f47f ad05 	bne.w	1a004b9e <__svfscanf_r+0x4e>
1a005194:	6b7b      	ldr	r3, [r7, #52]	; 0x34
1a005196:	3301      	adds	r3, #1
1a005198:	637b      	str	r3, [r7, #52]	; 0x34
1a00519a:	e500      	b.n	1a004b9e <__svfscanf_r+0x4e>
1a00519c:	2c00      	cmp	r4, #0
1a00519e:	bf08      	it	eq
1a0051a0:	f04f 34ff 	moveq.w	r4, #4294967295	; 0xffffffff
1a0051a4:	f005 0310 	and.w	r3, r5, #16
1a0051a8:	f015 0601 	ands.w	r6, r5, #1
1a0051ac:	623b      	str	r3, [r7, #32]
1a0051ae:	f000 843f 	beq.w	1a005a30 <__svfscanf_r+0xee0>
1a0051b2:	2b00      	cmp	r3, #0
1a0051b4:	f040 851a 	bne.w	1a005bec <__svfscanf_r+0x109c>
1a0051b8:	6afb      	ldr	r3, [r7, #44]	; 0x2c
1a0051ba:	062d      	lsls	r5, r5, #24
1a0051bc:	f853 8b04 	ldr.w	r8, [r3], #4
1a0051c0:	62fb      	str	r3, [r7, #44]	; 0x2c
1a0051c2:	f140 8698 	bpl.w	1a005ef6 <__svfscanf_r+0x13a6>
1a0051c6:	f1b8 0f00 	cmp.w	r8, #0
1a0051ca:	f43f ad7d 	beq.w	1a004cc8 <__svfscanf_r+0x178>
1a0051ce:	2080      	movs	r0, #128	; 0x80
1a0051d0:	f002 fdb4 	bl	1a007d3c <malloc>
1a0051d4:	6138      	str	r0, [r7, #16]
1a0051d6:	2800      	cmp	r0, #0
1a0051d8:	f000 86a0 	beq.w	1a005f1c <__svfscanf_r+0x13cc>
1a0051dc:	6b38      	ldr	r0, [r7, #48]	; 0x30
1a0051de:	693a      	ldr	r2, [r7, #16]
1a0051e0:	88c5      	ldrh	r5, [r0, #6]
1a0051e2:	8883      	ldrh	r3, [r0, #4]
1a0051e4:	f8c8 2000 	str.w	r2, [r8]
1a0051e8:	429d      	cmp	r5, r3
1a0051ea:	d310      	bcc.n	1a00520e <__svfscanf_r+0x6be>
1a0051ec:	f64f 72f6 	movw	r2, #65526	; 0xfff6
1a0051f0:	4293      	cmp	r3, r2
1a0051f2:	f200 8693 	bhi.w	1a005f1c <__svfscanf_r+0x13cc>
1a0051f6:	f103 0608 	add.w	r6, r3, #8
1a0051fa:	00b1      	lsls	r1, r6, #2
1a0051fc:	6800      	ldr	r0, [r0, #0]
1a0051fe:	f003 fdb5 	bl	1a008d6c <realloc>
1a005202:	2800      	cmp	r0, #0
1a005204:	f000 868a 	beq.w	1a005f1c <__svfscanf_r+0x13cc>
1a005208:	6b3b      	ldr	r3, [r7, #48]	; 0x30
1a00520a:	6018      	str	r0, [r3, #0]
1a00520c:	809e      	strh	r6, [r3, #4]
1a00520e:	6b39      	ldr	r1, [r7, #48]	; 0x30
1a005210:	f8c7 8014 	str.w	r8, [r7, #20]
1a005214:	680a      	ldr	r2, [r1, #0]
1a005216:	1c6b      	adds	r3, r5, #1
1a005218:	f842 8025 	str.w	r8, [r2, r5, lsl #2]
1a00521c:	80cb      	strh	r3, [r1, #6]
1a00521e:	f8d7 8010 	ldr.w	r8, [r7, #16]
1a005222:	2320      	movs	r3, #32
1a005224:	60fb      	str	r3, [r7, #12]
1a005226:	687e      	ldr	r6, [r7, #4]
1a005228:	f8c7 a028 	str.w	sl, [r7, #40]	; 0x28
1a00522c:	2500      	movs	r5, #0
1a00522e:	46a2      	mov	sl, r4
1a005230:	f002 fcd4 	bl	1a007bdc <__locale_mb_cur_max>
1a005234:	42a8      	cmp	r0, r5
1a005236:	f43f ad3b 	beq.w	1a004cb0 <__svfscanf_r+0x160>
1a00523a:	e9db 2300 	ldrd	r2, r3, [fp]
1a00523e:	f507 70ac 	add.w	r0, r7, #344	; 0x158
1a005242:	f812 1b01 	ldrb.w	r1, [r2], #1
1a005246:	5541      	strb	r1, [r0, r5]
1a005248:	3b01      	subs	r3, #1
1a00524a:	2e03      	cmp	r6, #3
1a00524c:	f8cb 2000 	str.w	r2, [fp]
1a005250:	f105 0501 	add.w	r5, r5, #1
1a005254:	f8cb 3004 	str.w	r3, [fp, #4]
1a005258:	f107 0448 	add.w	r4, r7, #72	; 0x48
1a00525c:	d102      	bne.n	1a005264 <__svfscanf_r+0x714>
1a00525e:	6823      	ldr	r3, [r4, #0]
1a005260:	2b04      	cmp	r3, #4
1a005262:	d004      	beq.n	1a00526e <__svfscanf_r+0x71e>
1a005264:	2208      	movs	r2, #8
1a005266:	2100      	movs	r1, #0
1a005268:	4620      	mov	r0, r4
1a00526a:	f7fd fce7 	bl	1a002c3c <memset>
1a00526e:	9400      	str	r4, [sp, #0]
1a005270:	462b      	mov	r3, r5
1a005272:	f507 72ac 	add.w	r2, r7, #344	; 0x158
1a005276:	4641      	mov	r1, r8
1a005278:	6bf8      	ldr	r0, [r7, #60]	; 0x3c
1a00527a:	f003 f813 	bl	1a0082a4 <_mbrtowc_r>
1a00527e:	4606      	mov	r6, r0
1a005280:	3001      	adds	r0, #1
1a005282:	f43f ad15 	beq.w	1a004cb0 <__svfscanf_r+0x160>
1a005286:	2e00      	cmp	r6, #0
1a005288:	f040 8519 	bne.w	1a005cbe <__svfscanf_r+0x116e>
1a00528c:	f8c8 6000 	str.w	r6, [r8]
1a005290:	46b1      	mov	r9, r6
1a005292:	f107 0350 	add.w	r3, r7, #80	; 0x50
1a005296:	4618      	mov	r0, r3
1a005298:	2208      	movs	r2, #8
1a00529a:	2100      	movs	r1, #0
1a00529c:	61bb      	str	r3, [r7, #24]
1a00529e:	f7fd fccd 	bl	1a002c3c <memset>
1a0052a2:	4bbe      	ldr	r3, [pc, #760]	; (1a00559c <__svfscanf_r+0xa4c>)
1a0052a4:	6bf8      	ldr	r0, [r7, #60]	; 0x3c
1a0052a6:	681a      	ldr	r2, [r3, #0]
1a0052a8:	4bbd      	ldr	r3, [pc, #756]	; (1a0055a0 <__svfscanf_r+0xa50>)
1a0052aa:	6b51      	ldr	r1, [r2, #52]	; 0x34
1a0052ac:	2900      	cmp	r1, #0
1a0052ae:	bf08      	it	eq
1a0052b0:	4619      	moveq	r1, r3
1a0052b2:	464a      	mov	r2, r9
1a0052b4:	69bb      	ldr	r3, [r7, #24]
1a0052b6:	f8d1 90e0 	ldr.w	r9, [r1, #224]	; 0xe0
1a0052ba:	f107 0140 	add.w	r1, r7, #64	; 0x40
1a0052be:	47c8      	blx	r9
1a0052c0:	2801      	cmp	r0, #1
1a0052c2:	bf0c      	ite	eq
1a0052c4:	f897 9040 	ldrbeq.w	r9, [r7, #64]	; 0x40
1a0052c8:	f04f 0900 	movne.w	r9, #0
1a0052cc:	f107 0358 	add.w	r3, r7, #88	; 0x58
1a0052d0:	f813 3009 	ldrb.w	r3, [r3, r9]
1a0052d4:	2b00      	cmp	r3, #0
1a0052d6:	f000 8698 	beq.w	1a00600a <__svfscanf_r+0x14ba>
1a0052da:	6abb      	ldr	r3, [r7, #40]	; 0x28
1a0052dc:	2e03      	cmp	r6, #3
1a0052de:	442b      	add	r3, r5
1a0052e0:	62bb      	str	r3, [r7, #40]	; 0x28
1a0052e2:	f000 850f 	beq.w	1a005d04 <__svfscanf_r+0x11b4>
1a0052e6:	f10a 3aff 	add.w	sl, sl, #4294967295	; 0xffffffff
1a0052ea:	6a3b      	ldr	r3, [r7, #32]
1a0052ec:	2b00      	cmp	r3, #0
1a0052ee:	f040 8506 	bne.w	1a005cfe <__svfscanf_r+0x11ae>
1a0052f2:	697b      	ldr	r3, [r7, #20]
1a0052f4:	f108 0804 	add.w	r8, r8, #4
1a0052f8:	2b00      	cmp	r3, #0
1a0052fa:	f000 8500 	beq.w	1a005cfe <__svfscanf_r+0x11ae>
1a0052fe:	693b      	ldr	r3, [r7, #16]
1a005300:	eba8 0403 	sub.w	r4, r8, r3
1a005304:	68fb      	ldr	r3, [r7, #12]
1a005306:	ebb3 0fa4 	cmp.w	r3, r4, asr #2
1a00530a:	f240 856f 	bls.w	1a005dec <__svfscanf_r+0x129c>
1a00530e:	6a3d      	ldr	r5, [r7, #32]
1a005310:	f8db 3004 	ldr.w	r3, [fp, #4]
1a005314:	2b00      	cmp	r3, #0
1a005316:	f340 8430 	ble.w	1a005b7a <__svfscanf_r+0x102a>
1a00531a:	f1ba 0f00 	cmp.w	sl, #0
1a00531e:	d187      	bne.n	1a005230 <__svfscanf_r+0x6e0>
1a005320:	f8d7 a028 	ldr.w	sl, [r7, #40]	; 0x28
1a005324:	607e      	str	r6, [r7, #4]
1a005326:	6a3b      	ldr	r3, [r7, #32]
1a005328:	2b00      	cmp	r3, #0
1a00532a:	f47f ac38 	bne.w	1a004b9e <__svfscanf_r+0x4e>
1a00532e:	f8c8 3000 	str.w	r3, [r8]
1a005332:	697b      	ldr	r3, [r7, #20]
1a005334:	2b00      	cmp	r3, #0
1a005336:	f43f af2d 	beq.w	1a005194 <__svfscanf_r+0x644>
1a00533a:	693b      	ldr	r3, [r7, #16]
1a00533c:	eba8 0103 	sub.w	r1, r8, r3
1a005340:	1089      	asrs	r1, r1, #2
1a005342:	68fb      	ldr	r3, [r7, #12]
1a005344:	3101      	adds	r1, #1
1a005346:	428b      	cmp	r3, r1
1a005348:	f67f af24 	bls.w	1a005194 <__svfscanf_r+0x644>
1a00534c:	697c      	ldr	r4, [r7, #20]
1a00534e:	0089      	lsls	r1, r1, #2
1a005350:	6820      	ldr	r0, [r4, #0]
1a005352:	f003 fd0b 	bl	1a008d6c <realloc>
1a005356:	2800      	cmp	r0, #0
1a005358:	f43f af1c 	beq.w	1a005194 <__svfscanf_r+0x644>
1a00535c:	6020      	str	r0, [r4, #0]
1a00535e:	e719      	b.n	1a005194 <__svfscanf_r+0x644>
1a005360:	4b90      	ldr	r3, [pc, #576]	; (1a0055a4 <__svfscanf_r+0xa54>)
1a005362:	f933 9019 	ldrsh.w	r9, [r3, r9, lsl #1]
1a005366:	f425 6538 	bic.w	r5, r5, #2944	; 0xb80
1a00536a:	7030      	strb	r0, [r6, #0]
1a00536c:	3601      	adds	r6, #1
1a00536e:	f8db 3004 	ldr.w	r3, [fp, #4]
1a005372:	3b01      	subs	r3, #1
1a005374:	2b00      	cmp	r3, #0
1a005376:	f8cb 3004 	str.w	r3, [fp, #4]
1a00537a:	f340 8106 	ble.w	1a00558a <__svfscanf_r+0xa3a>
1a00537e:	3101      	adds	r1, #1
1a005380:	f8cb 1000 	str.w	r1, [fp]
1a005384:	3c01      	subs	r4, #1
1a005386:	f47f ad71 	bne.w	1a004e6c <__svfscanf_r+0x31c>
1a00538a:	05e8      	lsls	r0, r5, #23
1a00538c:	f8c7 9024 	str.w	r9, [r7, #36]	; 0x24
1a005390:	d507      	bpl.n	1a0053a2 <__svfscanf_r+0x852>
1a005392:	6a3b      	ldr	r3, [r7, #32]
1a005394:	429e      	cmp	r6, r3
1a005396:	f200 8461 	bhi.w	1a005c5c <__svfscanf_r+0x110c>
1a00539a:	6a3b      	ldr	r3, [r7, #32]
1a00539c:	429e      	cmp	r6, r3
1a00539e:	f43f ac93 	beq.w	1a004cc8 <__svfscanf_r+0x178>
1a0053a2:	f015 0410 	ands.w	r4, r5, #16
1a0053a6:	f040 8277 	bne.w	1a005898 <__svfscanf_r+0xd48>
1a0053aa:	e9d7 1308 	ldrd	r1, r3, [r7, #32]
1a0053ae:	4622      	mov	r2, r4
1a0053b0:	7034      	strb	r4, [r6, #0]
1a0053b2:	6bf8      	ldr	r0, [r7, #60]	; 0x3c
1a0053b4:	69fc      	ldr	r4, [r7, #28]
1a0053b6:	47a0      	blx	r4
1a0053b8:	6afb      	ldr	r3, [r7, #44]	; 0x2c
1a0053ba:	06a9      	lsls	r1, r5, #26
1a0053bc:	f103 0404 	add.w	r4, r3, #4
1a0053c0:	f100 8264 	bmi.w	1a00588c <__svfscanf_r+0xd3c>
1a0053c4:	072a      	lsls	r2, r5, #28
1a0053c6:	f100 83e7 	bmi.w	1a005b98 <__svfscanf_r+0x1048>
1a0053ca:	076b      	lsls	r3, r5, #29
1a0053cc:	f140 8259 	bpl.w	1a005882 <__svfscanf_r+0xd32>
1a0053d0:	6afb      	ldr	r3, [r7, #44]	; 0x2c
1a0053d2:	681b      	ldr	r3, [r3, #0]
1a0053d4:	8018      	strh	r0, [r3, #0]
1a0053d6:	e25b      	b.n	1a005890 <__svfscanf_r+0xd40>
1a0053d8:	f1b9 0f0a 	cmp.w	r9, #10
1a0053dc:	ddd5      	ble.n	1a00538a <__svfscanf_r+0x83a>
1a0053de:	f425 6538 	bic.w	r5, r5, #2944	; 0xb80
1a0053e2:	e7c2      	b.n	1a00536a <__svfscanf_r+0x81a>
1a0053e4:	062b      	lsls	r3, r5, #24
1a0053e6:	d5d0      	bpl.n	1a00538a <__svfscanf_r+0x83a>
1a0053e8:	f025 0580 	bic.w	r5, r5, #128	; 0x80
1a0053ec:	e7bd      	b.n	1a00536a <__svfscanf_r+0x81a>
1a0053ee:	052b      	lsls	r3, r5, #20
1a0053f0:	d5bb      	bpl.n	1a00536a <__svfscanf_r+0x81a>
1a0053f2:	f1b9 0f00 	cmp.w	r9, #0
1a0053f6:	d103      	bne.n	1a005400 <__svfscanf_r+0x8b0>
1a0053f8:	f445 7500 	orr.w	r5, r5, #512	; 0x200
1a0053fc:	f04f 0908 	mov.w	r9, #8
1a005400:	056a      	lsls	r2, r5, #21
1a005402:	f140 8520 	bpl.w	1a005e46 <__svfscanf_r+0x12f6>
1a005406:	f425 65b0 	bic.w	r5, r5, #1408	; 0x580
1a00540a:	e7ae      	b.n	1a00536a <__svfscanf_r+0x81a>
1a00540c:	f405 63c0 	and.w	r3, r5, #1536	; 0x600
1a005410:	f5b3 7f00 	cmp.w	r3, #512	; 0x200
1a005414:	d1b9      	bne.n	1a00538a <__svfscanf_r+0x83a>
1a005416:	f425 7500 	bic.w	r5, r5, #512	; 0x200
1a00541a:	f445 65a0 	orr.w	r5, r5, #1280	; 0x500
1a00541e:	f04f 0910 	mov.w	r9, #16
1a005422:	e7a2      	b.n	1a00536a <__svfscanf_r+0x81a>
1a005424:	4b5f      	ldr	r3, [pc, #380]	; (1a0055a4 <__svfscanf_r+0xa54>)
1a005426:	f933 9019 	ldrsh.w	r9, [r3, r9, lsl #1]
1a00542a:	f1b9 0f08 	cmp.w	r9, #8
1a00542e:	dcd6      	bgt.n	1a0053de <__svfscanf_r+0x88e>
1a005430:	e7ab      	b.n	1a00538a <__svfscanf_r+0x83a>
1a005432:	63b9      	str	r1, [r7, #56]	; 0x38
1a005434:	4b5c      	ldr	r3, [pc, #368]	; (1a0055a8 <__svfscanf_r+0xa58>)
1a005436:	61fb      	str	r3, [r7, #28]
1a005438:	230a      	movs	r3, #10
1a00543a:	627b      	str	r3, [r7, #36]	; 0x24
1a00543c:	f8db 3004 	ldr.w	r3, [fp, #4]
1a005440:	2b00      	cmp	r3, #0
1a005442:	f04f 0803 	mov.w	r8, #3
1a005446:	f73f acce 	bgt.w	1a004de6 <__svfscanf_r+0x296>
1a00544a:	4659      	mov	r1, fp
1a00544c:	6bf8      	ldr	r0, [r7, #60]	; 0x3c
1a00544e:	f003 fe4d 	bl	1a0090ec <__srefill_r>
1a005452:	2800      	cmp	r0, #0
1a005454:	f43f acc7 	beq.w	1a004de6 <__svfscanf_r+0x296>
1a005458:	e42a      	b.n	1a004cb0 <__svfscanf_r+0x160>
1a00545a:	0728      	lsls	r0, r5, #28
1a00545c:	f47f ac34 	bne.w	1a004cc8 <__svfscanf_r+0x178>
1a005460:	f898 2001 	ldrb.w	r2, [r8, #1]
1a005464:	2a68      	cmp	r2, #104	; 0x68
1a005466:	f000 841c 	beq.w	1a005ca2 <__svfscanf_r+0x1152>
1a00546a:	f045 0504 	orr.w	r5, r5, #4
1a00546e:	4688      	mov	r8, r1
1a005470:	f7ff bbad 	b.w	1a004bce <__svfscanf_r+0x7e>
1a005474:	2d00      	cmp	r5, #0
1a005476:	f47f ac27 	bne.w	1a004cc8 <__svfscanf_r+0x178>
1a00547a:	2c00      	cmp	r4, #0
1a00547c:	f47f ac24 	bne.w	1a004cc8 <__svfscanf_r+0x178>
1a005480:	f898 2001 	ldrb.w	r2, [r8, #1]
1a005484:	2510      	movs	r5, #16
1a005486:	4688      	mov	r8, r1
1a005488:	f7ff bba1 	b.w	1a004bce <__svfscanf_r+0x7e>
1a00548c:	63b9      	str	r1, [r7, #56]	; 0x38
1a00548e:	f04f 0804 	mov.w	r8, #4
1a005492:	e4a3      	b.n	1a004ddc <__svfscanf_r+0x28c>
1a005494:	f015 0f8f 	tst.w	r5, #143	; 0x8f
1a005498:	f47f ac16 	bne.w	1a004cc8 <__svfscanf_r+0x178>
1a00549c:	eb04 0484 	add.w	r4, r4, r4, lsl #2
1a0054a0:	eb02 0444 	add.w	r4, r2, r4, lsl #1
1a0054a4:	3c30      	subs	r4, #48	; 0x30
1a0054a6:	e471      	b.n	1a004d8c <__svfscanf_r+0x23c>
1a0054a8:	4b40      	ldr	r3, [pc, #256]	; (1a0055ac <__svfscanf_r+0xa5c>)
1a0054aa:	61fb      	str	r3, [r7, #28]
1a0054ac:	230a      	movs	r3, #10
1a0054ae:	63b9      	str	r1, [r7, #56]	; 0x38
1a0054b0:	627b      	str	r3, [r7, #36]	; 0x24
1a0054b2:	f04f 0803 	mov.w	r8, #3
1a0054b6:	e491      	b.n	1a004ddc <__svfscanf_r+0x28c>
1a0054b8:	63b9      	str	r1, [r7, #56]	; 0x38
1a0054ba:	f04f 0802 	mov.w	r8, #2
1a0054be:	e48d      	b.n	1a004ddc <__svfscanf_r+0x28c>
1a0054c0:	63b9      	str	r1, [r7, #56]	; 0x38
1a0054c2:	f445 7508 	orr.w	r5, r5, #544	; 0x220
1a0054c6:	4b39      	ldr	r3, [pc, #228]	; (1a0055ac <__svfscanf_r+0xa5c>)
1a0054c8:	61fb      	str	r3, [r7, #28]
1a0054ca:	2310      	movs	r3, #16
1a0054cc:	627b      	str	r3, [r7, #36]	; 0x24
1a0054ce:	f04f 0803 	mov.w	r8, #3
1a0054d2:	e483      	b.n	1a004ddc <__svfscanf_r+0x28c>
1a0054d4:	63b9      	str	r1, [r7, #56]	; 0x38
1a0054d6:	4b35      	ldr	r3, [pc, #212]	; (1a0055ac <__svfscanf_r+0xa5c>)
1a0054d8:	61fb      	str	r3, [r7, #28]
1a0054da:	2308      	movs	r3, #8
1a0054dc:	627b      	str	r3, [r7, #36]	; 0x24
1a0054de:	f04f 0803 	mov.w	r8, #3
1a0054e2:	e47b      	b.n	1a004ddc <__svfscanf_r+0x28c>
1a0054e4:	06e8      	lsls	r0, r5, #27
1a0054e6:	63b9      	str	r1, [r7, #56]	; 0x38
1a0054e8:	f53f ab59 	bmi.w	1a004b9e <__svfscanf_r+0x4e>
1a0054ec:	6afa      	ldr	r2, [r7, #44]	; 0x2c
1a0054ee:	0729      	lsls	r1, r5, #28
1a0054f0:	f852 3b04 	ldr.w	r3, [r2], #4
1a0054f4:	62fa      	str	r2, [r7, #44]	; 0x2c
1a0054f6:	f140 84e8 	bpl.w	1a005eca <__svfscanf_r+0x137a>
1a0054fa:	f883 a000 	strb.w	sl, [r3]
1a0054fe:	f7ff bb4e 	b.w	1a004b9e <__svfscanf_r+0x4e>
1a005502:	f015 038f 	ands.w	r3, r5, #143	; 0x8f
1a005506:	f47f abdf 	bne.w	1a004cc8 <__svfscanf_r+0x178>
1a00550a:	6b3a      	ldr	r2, [r7, #48]	; 0x30
1a00550c:	2a00      	cmp	r2, #0
1a00550e:	f000 83d0 	beq.w	1a005cb2 <__svfscanf_r+0x1162>
1a005512:	f898 2001 	ldrb.w	r2, [r8, #1]
1a005516:	f045 0580 	orr.w	r5, r5, #128	; 0x80
1a00551a:	4688      	mov	r8, r1
1a00551c:	f7ff bb57 	b.w	1a004bce <__svfscanf_r+0x7e>
1a005520:	072b      	lsls	r3, r5, #28
1a005522:	f47f abd1 	bne.w	1a004cc8 <__svfscanf_r+0x178>
1a005526:	f898 2001 	ldrb.w	r2, [r8, #1]
1a00552a:	2a6c      	cmp	r2, #108	; 0x6c
1a00552c:	f000 83b1 	beq.w	1a005c92 <__svfscanf_r+0x1142>
1a005530:	f045 0501 	orr.w	r5, r5, #1
1a005534:	4688      	mov	r8, r1
1a005536:	f7ff bb4a 	b.w	1a004bce <__svfscanf_r+0x7e>
1a00553a:	4b1b      	ldr	r3, [pc, #108]	; (1a0055a8 <__svfscanf_r+0xa58>)
1a00553c:	61fb      	str	r3, [r7, #28]
1a00553e:	2300      	movs	r3, #0
1a005540:	63b9      	str	r1, [r7, #56]	; 0x38
1a005542:	627b      	str	r3, [r7, #36]	; 0x24
1a005544:	f04f 0803 	mov.w	r8, #3
1a005548:	e448      	b.n	1a004ddc <__svfscanf_r+0x28c>
1a00554a:	63b9      	str	r1, [r7, #56]	; 0x38
1a00554c:	f045 0501 	orr.w	r5, r5, #1
1a005550:	e7c1      	b.n	1a0054d6 <__svfscanf_r+0x986>
1a005552:	63b9      	str	r1, [r7, #56]	; 0x38
1a005554:	f045 0501 	orr.w	r5, r5, #1
1a005558:	e76c      	b.n	1a005434 <__svfscanf_r+0x8e4>
1a00555a:	63b9      	str	r1, [r7, #56]	; 0x38
1a00555c:	f045 0501 	orr.w	r5, r5, #1
1a005560:	e438      	b.n	1a004dd4 <__svfscanf_r+0x284>
1a005562:	63b9      	str	r1, [r7, #56]	; 0x38
1a005564:	f445 7500 	orr.w	r5, r5, #512	; 0x200
1a005568:	e7ad      	b.n	1a0054c6 <__svfscanf_r+0x976>
1a00556a:	63b9      	str	r1, [r7, #56]	; 0x38
1a00556c:	f045 0501 	orr.w	r5, r5, #1
1a005570:	f04f 0802 	mov.w	r8, #2
1a005574:	e432      	b.n	1a004ddc <__svfscanf_r+0x28c>
1a005576:	f107 0058 	add.w	r0, r7, #88	; 0x58
1a00557a:	f003 fe77 	bl	1a00926c <__sccl>
1a00557e:	f045 0540 	orr.w	r5, r5, #64	; 0x40
1a005582:	63b8      	str	r0, [r7, #56]	; 0x38
1a005584:	f04f 0801 	mov.w	r8, #1
1a005588:	e428      	b.n	1a004ddc <__svfscanf_r+0x28c>
1a00558a:	4659      	mov	r1, fp
1a00558c:	6bf8      	ldr	r0, [r7, #60]	; 0x3c
1a00558e:	f003 fdad 	bl	1a0090ec <__srefill_r>
1a005592:	2800      	cmp	r0, #0
1a005594:	f43f aef6 	beq.w	1a005384 <__svfscanf_r+0x834>
1a005598:	e6f7      	b.n	1a00538a <__svfscanf_r+0x83a>
1a00559a:	bf00      	nop
1a00559c:	10000048 	.word	0x10000048
1a0055a0:	10000478 	.word	0x10000478
1a0055a4:	1a00d7ac 	.word	0x1a00d7ac
1a0055a8:	1a003001 	.word	0x1a003001
1a0055ac:	1a00a699 	.word	0x1a00a699
1a0055b0:	6bf8      	ldr	r0, [r7, #60]	; 0x3c
1a0055b2:	f002 fb35 	bl	1a007c20 <_localeconv_r>
1a0055b6:	1e63      	subs	r3, r4, #1
1a0055b8:	6802      	ldr	r2, [r0, #0]
1a0055ba:	617a      	str	r2, [r7, #20]
1a0055bc:	f5b3 7fae 	cmp.w	r3, #348	; 0x15c
1a0055c0:	f240 8233 	bls.w	1a005a2a <__svfscanf_r+0xeda>
1a0055c4:	f46f 71ae 	mvn.w	r1, #348	; 0x15c
1a0055c8:	1863      	adds	r3, r4, r1
1a0055ca:	613b      	str	r3, [r7, #16]
1a0055cc:	f240 145d 	movw	r4, #349	; 0x15d
1a0055d0:	2300      	movs	r3, #0
1a0055d2:	e9c7 3302 	strd	r3, r3, [r7, #8]
1a0055d6:	f507 72ac 	add.w	r2, r7, #344	; 0x158
1a0055da:	623a      	str	r2, [r7, #32]
1a0055dc:	f445 65f0 	orr.w	r5, r5, #1920	; 0x780
1a0055e0:	4698      	mov	r8, r3
1a0055e2:	61bb      	str	r3, [r7, #24]
1a0055e4:	4691      	mov	r9, r2
1a0055e6:	f8db 0000 	ldr.w	r0, [fp]
1a0055ea:	7801      	ldrb	r1, [r0, #0]
1a0055ec:	f1a1 0c2b 	sub.w	ip, r1, #43	; 0x2b
1a0055f0:	f1bc 0f4e 	cmp.w	ip, #78	; 0x4e
1a0055f4:	f200 811d 	bhi.w	1a005832 <__svfscanf_r+0xce2>
1a0055f8:	e8df f01c 	tbh	[pc, ip, lsl #1]
1a0055fc:	011b00c8 	.word	0x011b00c8
1a005600:	011b00c8 	.word	0x011b00c8
1a005604:	00bb011b 	.word	0x00bb011b
1a005608:	004f004f 	.word	0x004f004f
1a00560c:	004f004f 	.word	0x004f004f
1a005610:	004f004f 	.word	0x004f004f
1a005614:	004f004f 	.word	0x004f004f
1a005618:	011b004f 	.word	0x011b004f
1a00561c:	011b011b 	.word	0x011b011b
1a005620:	011b011b 	.word	0x011b011b
1a005624:	011b011b 	.word	0x011b011b
1a005628:	011b0116 	.word	0x011b0116
1a00562c:	011b011b 	.word	0x011b011b
1a005630:	00f700fc 	.word	0x00f700fc
1a005634:	011b011b 	.word	0x011b011b
1a005638:	011b00e7 	.word	0x011b00e7
1a00563c:	011b011b 	.word	0x011b011b
1a005640:	00d5011b 	.word	0x00d5011b
1a005644:	011b011b 	.word	0x011b011b
1a005648:	011b011b 	.word	0x011b011b
1a00564c:	00d1011b 	.word	0x00d1011b
1a005650:	011b011b 	.word	0x011b011b
1a005654:	011b011b 	.word	0x011b011b
1a005658:	011b00cd 	.word	0x011b00cd
1a00565c:	011b011b 	.word	0x011b011b
1a005660:	011b011b 	.word	0x011b011b
1a005664:	011b011b 	.word	0x011b011b
1a005668:	011b0116 	.word	0x011b0116
1a00566c:	011b011b 	.word	0x011b011b
1a005670:	00f700fc 	.word	0x00f700fc
1a005674:	011b011b 	.word	0x011b011b
1a005678:	011b00e7 	.word	0x011b00e7
1a00567c:	011b011b 	.word	0x011b011b
1a005680:	00d5011b 	.word	0x00d5011b
1a005684:	011b011b 	.word	0x011b011b
1a005688:	011b011b 	.word	0x011b011b
1a00568c:	00d1011b 	.word	0x00d1011b
1a005690:	011b011b 	.word	0x011b011b
1a005694:	011b011b 	.word	0x011b011b
1a005698:	00cd      	.short	0x00cd
1a00569a:	42f3      	cmn	r3, r6
1a00569c:	d116      	bne.n	1a0056cc <__svfscanf_r+0xb7c>
1a00569e:	f425 75c0 	bic.w	r5, r5, #384	; 0x180
1a0056a2:	f889 1000 	strb.w	r1, [r9]
1a0056a6:	f109 0901 	add.w	r9, r9, #1
1a0056aa:	f8db 1004 	ldr.w	r1, [fp, #4]
1a0056ae:	3901      	subs	r1, #1
1a0056b0:	2900      	cmp	r1, #0
1a0056b2:	f104 34ff 	add.w	r4, r4, #4294967295	; 0xffffffff
1a0056b6:	f10a 0a01 	add.w	sl, sl, #1
1a0056ba:	f8cb 1004 	str.w	r1, [fp, #4]
1a0056be:	f340 80c6 	ble.w	1a00584e <__svfscanf_r+0xcfe>
1a0056c2:	3001      	adds	r0, #1
1a0056c4:	f8cb 0000 	str.w	r0, [fp]
1a0056c8:	2c00      	cmp	r4, #0
1a0056ca:	d18c      	bne.n	1a0055e6 <__svfscanf_r+0xa96>
1a0056cc:	f1b8 0f00 	cmp.w	r8, #0
1a0056d0:	f040 81a8 	bne.w	1a005a24 <__svfscanf_r+0xed4>
1a0056d4:	3b01      	subs	r3, #1
1a0056d6:	2b01      	cmp	r3, #1
1a0056d8:	f240 84b5 	bls.w	1a006046 <__svfscanf_r+0x14f6>
1a0056dc:	1e73      	subs	r3, r6, #1
1a0056de:	2b06      	cmp	r3, #6
1a0056e0:	f240 8366 	bls.w	1a005db0 <__svfscanf_r+0x1260>
1a0056e4:	05ee      	lsls	r6, r5, #23
1a0056e6:	d51c      	bpl.n	1a005722 <__svfscanf_r+0xbd2>
1a0056e8:	056c      	lsls	r4, r5, #21
1a0056ea:	f100 84cd 	bmi.w	1a006088 <__svfscanf_r+0x1538>
1a0056ee:	f819 1c01 	ldrb.w	r1, [r9, #-1]
1a0056f2:	2965      	cmp	r1, #101	; 0x65
1a0056f4:	f109 34ff 	add.w	r4, r9, #4294967295	; 0xffffffff
1a0056f8:	f10a 36ff 	add.w	r6, sl, #4294967295	; 0xffffffff
1a0056fc:	d00b      	beq.n	1a005716 <__svfscanf_r+0xbc6>
1a0056fe:	2945      	cmp	r1, #69	; 0x45
1a005700:	d009      	beq.n	1a005716 <__svfscanf_r+0xbc6>
1a005702:	465a      	mov	r2, fp
1a005704:	6bf8      	ldr	r0, [r7, #60]	; 0x3c
1a005706:	f006 fdf5 	bl	1a00c2f4 <_ungetc_r>
1a00570a:	f819 1c02 	ldrb.w	r1, [r9, #-2]
1a00570e:	f1aa 0602 	sub.w	r6, sl, #2
1a005712:	f1a9 0402 	sub.w	r4, r9, #2
1a005716:	465a      	mov	r2, fp
1a005718:	6bf8      	ldr	r0, [r7, #60]	; 0x3c
1a00571a:	f006 fdeb 	bl	1a00c2f4 <_ungetc_r>
1a00571e:	46b2      	mov	sl, r6
1a005720:	46a1      	mov	r9, r4
1a005722:	f015 0210 	ands.w	r2, r5, #16
1a005726:	f47f aa3a 	bne.w	1a004b9e <__svfscanf_r+0x4e>
1a00572a:	f405 63c0 	and.w	r3, r5, #1536	; 0x600
1a00572e:	f5b3 6f80 	cmp.w	r3, #1024	; 0x400
1a005732:	f889 2000 	strb.w	r2, [r9]
1a005736:	f000 829a 	beq.w	1a005c6e <__svfscanf_r+0x111e>
1a00573a:	68fb      	ldr	r3, [r7, #12]
1a00573c:	2b00      	cmp	r3, #0
1a00573e:	f040 8403 	bne.w	1a005f48 <__svfscanf_r+0x13f8>
1a005742:	6bf8      	ldr	r0, [r7, #60]	; 0x3c
1a005744:	6a39      	ldr	r1, [r7, #32]
1a005746:	2200      	movs	r2, #0
1a005748:	f004 fe10 	bl	1a00a36c <_strtod_r>
1a00574c:	6afb      	ldr	r3, [r7, #44]	; 0x2c
1a00574e:	eeb0 8a40 	vmov.f32	s16, s0
1a005752:	eef0 8a60 	vmov.f32	s17, s1
1a005756:	07e8      	lsls	r0, r5, #31
1a005758:	f103 0404 	add.w	r4, r3, #4
1a00575c:	f140 836b 	bpl.w	1a005e36 <__svfscanf_r+0x12e6>
1a005760:	681b      	ldr	r3, [r3, #0]
1a005762:	ed83 0b00 	vstr	d0, [r3]
1a005766:	6b7b      	ldr	r3, [r7, #52]	; 0x34
1a005768:	62fc      	str	r4, [r7, #44]	; 0x2c
1a00576a:	3301      	adds	r3, #1
1a00576c:	637b      	str	r3, [r7, #52]	; 0x34
1a00576e:	f7ff ba16 	b.w	1a004b9e <__svfscanf_r+0x4e>
1a005772:	05ea      	lsls	r2, r5, #23
1a005774:	d591      	bpl.n	1a00569a <__svfscanf_r+0xb4a>
1a005776:	693a      	ldr	r2, [r7, #16]
1a005778:	f025 0580 	bic.w	r5, r5, #128	; 0x80
1a00577c:	f108 0801 	add.w	r8, r8, #1
1a005780:	2a00      	cmp	r2, #0
1a005782:	d092      	beq.n	1a0056aa <__svfscanf_r+0xb5a>
1a005784:	3a01      	subs	r2, #1
1a005786:	613a      	str	r2, [r7, #16]
1a005788:	3401      	adds	r4, #1
1a00578a:	e78e      	b.n	1a0056aa <__svfscanf_r+0xb5a>
1a00578c:	062a      	lsls	r2, r5, #24
1a00578e:	d59d      	bpl.n	1a0056cc <__svfscanf_r+0xb7c>
1a005790:	f025 0580 	bic.w	r5, r5, #128	; 0x80
1a005794:	e785      	b.n	1a0056a2 <__svfscanf_r+0xb52>
1a005796:	2e07      	cmp	r6, #7
1a005798:	d198      	bne.n	1a0056cc <__svfscanf_r+0xb7c>
1a00579a:	2608      	movs	r6, #8
1a00579c:	e781      	b.n	1a0056a2 <__svfscanf_r+0xb52>
1a00579e:	2e06      	cmp	r6, #6
1a0057a0:	d194      	bne.n	1a0056cc <__svfscanf_r+0xb7c>
1a0057a2:	2607      	movs	r6, #7
1a0057a4:	e77d      	b.n	1a0056a2 <__svfscanf_r+0xb52>
1a0057a6:	2b00      	cmp	r3, #0
1a0057a8:	d167      	bne.n	1a00587a <__svfscanf_r+0xd2a>
1a0057aa:	f1b8 0f00 	cmp.w	r8, #0
1a0057ae:	d105      	bne.n	1a0057bc <__svfscanf_r+0xc6c>
1a0057b0:	f405 6ce0 	and.w	ip, r5, #1792	; 0x700
1a0057b4:	f5bc 6fe0 	cmp.w	ip, #1792	; 0x700
1a0057b8:	f000 81f2 	beq.w	1a005ba0 <__svfscanf_r+0x1050>
1a0057bc:	2e01      	cmp	r6, #1
1a0057be:	d001      	beq.n	1a0057c4 <__svfscanf_r+0xc74>
1a0057c0:	2e04      	cmp	r6, #4
1a0057c2:	d183      	bne.n	1a0056cc <__svfscanf_r+0xb7c>
1a0057c4:	3601      	adds	r6, #1
1a0057c6:	b2f6      	uxtb	r6, r6
1a0057c8:	e76b      	b.n	1a0056a2 <__svfscanf_r+0xb52>
1a0057ca:	2e00      	cmp	r6, #0
1a0057cc:	d14c      	bne.n	1a005868 <__svfscanf_r+0xd18>
1a0057ce:	f1b8 0f00 	cmp.w	r8, #0
1a0057d2:	f040 8127 	bne.w	1a005a24 <__svfscanf_r+0xed4>
1a0057d6:	f405 6ce0 	and.w	ip, r5, #1792	; 0x700
1a0057da:	f5bc 6fe0 	cmp.w	ip, #1792	; 0x700
1a0057de:	f47f af79 	bne.w	1a0056d4 <__svfscanf_r+0xb84>
1a0057e2:	f425 65f0 	bic.w	r5, r5, #1920	; 0x780
1a0057e6:	2601      	movs	r6, #1
1a0057e8:	e75b      	b.n	1a0056a2 <__svfscanf_r+0xb52>
1a0057ea:	2e02      	cmp	r6, #2
1a0057ec:	f47f af6e 	bne.w	1a0056cc <__svfscanf_r+0xb7c>
1a0057f0:	2603      	movs	r6, #3
1a0057f2:	e756      	b.n	1a0056a2 <__svfscanf_r+0xb52>
1a0057f4:	f405 6ca0 	and.w	ip, r5, #1280	; 0x500
1a0057f8:	f5bc 6f80 	cmp.w	ip, #1024	; 0x400
1a0057fc:	d006      	beq.n	1a00580c <__svfscanf_r+0xcbc>
1a0057fe:	056a      	lsls	r2, r5, #21
1a005800:	f57f af64 	bpl.w	1a0056cc <__svfscanf_r+0xb7c>
1a005804:	f1b8 0f00 	cmp.w	r8, #0
1a005808:	f43f af64 	beq.w	1a0056d4 <__svfscanf_r+0xb84>
1a00580c:	05aa      	lsls	r2, r5, #22
1a00580e:	d404      	bmi.n	1a00581a <__svfscanf_r+0xcca>
1a005810:	69ba      	ldr	r2, [r7, #24]
1a005812:	eba8 0202 	sub.w	r2, r8, r2
1a005816:	e9c7 9202 	strd	r9, r2, [r7, #8]
1a00581a:	f425 65f0 	bic.w	r5, r5, #1920	; 0x780
1a00581e:	f445 75c0 	orr.w	r5, r5, #384	; 0x180
1a005822:	f04f 0800 	mov.w	r8, #0
1a005826:	e73c      	b.n	1a0056a2 <__svfscanf_r+0xb52>
1a005828:	2b01      	cmp	r3, #1
1a00582a:	f47f af4f 	bne.w	1a0056cc <__svfscanf_r+0xb7c>
1a00582e:	2302      	movs	r3, #2
1a005830:	e737      	b.n	1a0056a2 <__svfscanf_r+0xb52>
1a005832:	697a      	ldr	r2, [r7, #20]
1a005834:	f892 c000 	ldrb.w	ip, [r2]
1a005838:	458c      	cmp	ip, r1
1a00583a:	f47f af47 	bne.w	1a0056cc <__svfscanf_r+0xb7c>
1a00583e:	05aa      	lsls	r2, r5, #22
1a005840:	f57f af44 	bpl.w	1a0056cc <__svfscanf_r+0xb7c>
1a005844:	f425 7520 	bic.w	r5, r5, #640	; 0x280
1a005848:	f8c7 8018 	str.w	r8, [r7, #24]
1a00584c:	e729      	b.n	1a0056a2 <__svfscanf_r+0xb52>
1a00584e:	4659      	mov	r1, fp
1a005850:	6bf8      	ldr	r0, [r7, #60]	; 0x3c
1a005852:	62bb      	str	r3, [r7, #40]	; 0x28
1a005854:	f003 fc4a 	bl	1a0090ec <__srefill_r>
1a005858:	6abb      	ldr	r3, [r7, #40]	; 0x28
1a00585a:	2800      	cmp	r0, #0
1a00585c:	f47f af36 	bne.w	1a0056cc <__svfscanf_r+0xb7c>
1a005860:	2c00      	cmp	r4, #0
1a005862:	f47f aec0 	bne.w	1a0055e6 <__svfscanf_r+0xa96>
1a005866:	e731      	b.n	1a0056cc <__svfscanf_r+0xb7c>
1a005868:	2e03      	cmp	r6, #3
1a00586a:	d0ab      	beq.n	1a0057c4 <__svfscanf_r+0xc74>
1a00586c:	2e05      	cmp	r6, #5
1a00586e:	d0a9      	beq.n	1a0057c4 <__svfscanf_r+0xc74>
1a005870:	f1b8 0f00 	cmp.w	r8, #0
1a005874:	f43f af2e 	beq.w	1a0056d4 <__svfscanf_r+0xb84>
1a005878:	e0d4      	b.n	1a005a24 <__svfscanf_r+0xed4>
1a00587a:	2b02      	cmp	r3, #2
1a00587c:	d19e      	bne.n	1a0057bc <__svfscanf_r+0xc6c>
1a00587e:	2303      	movs	r3, #3
1a005880:	e70f      	b.n	1a0056a2 <__svfscanf_r+0xb52>
1a005882:	f015 0201 	ands.w	r2, r5, #1
1a005886:	f000 8393 	beq.w	1a005fb0 <__svfscanf_r+0x1460>
1a00588a:	6afb      	ldr	r3, [r7, #44]	; 0x2c
1a00588c:	681b      	ldr	r3, [r3, #0]
1a00588e:	6018      	str	r0, [r3, #0]
1a005890:	6b7b      	ldr	r3, [r7, #52]	; 0x34
1a005892:	62fc      	str	r4, [r7, #44]	; 0x2c
1a005894:	3301      	adds	r3, #1
1a005896:	637b      	str	r3, [r7, #52]	; 0x34
1a005898:	6a3b      	ldr	r3, [r7, #32]
1a00589a:	1af6      	subs	r6, r6, r3
1a00589c:	44b0      	add	r8, r6
1a00589e:	44c2      	add	sl, r8
1a0058a0:	f7ff b97d 	b.w	1a004b9e <__svfscanf_r+0x4e>
1a0058a4:	6aba      	ldr	r2, [r7, #40]	; 0x28
1a0058a6:	2a00      	cmp	r2, #0
1a0058a8:	f040 81bb 	bne.w	1a005c22 <__svfscanf_r+0x10d2>
1a0058ac:	6afb      	ldr	r3, [r7, #44]	; 0x2c
1a0058ae:	f853 6b04 	ldr.w	r6, [r3], #4
1a0058b2:	62fb      	str	r3, [r7, #44]	; 0x2c
1a0058b4:	062b      	lsls	r3, r5, #24
1a0058b6:	f140 82d7 	bpl.w	1a005e68 <__svfscanf_r+0x1318>
1a0058ba:	2e00      	cmp	r6, #0
1a0058bc:	f43f aa04 	beq.w	1a004cc8 <__svfscanf_r+0x178>
1a0058c0:	4620      	mov	r0, r4
1a0058c2:	f002 fa3b 	bl	1a007d3c <malloc>
1a0058c6:	4680      	mov	r8, r0
1a0058c8:	2800      	cmp	r0, #0
1a0058ca:	f000 8327 	beq.w	1a005f1c <__svfscanf_r+0x13cc>
1a0058ce:	6b3b      	ldr	r3, [r7, #48]	; 0x30
1a0058d0:	6030      	str	r0, [r6, #0]
1a0058d2:	f8b3 9006 	ldrh.w	r9, [r3, #6]
1a0058d6:	889d      	ldrh	r5, [r3, #4]
1a0058d8:	45a9      	cmp	r9, r5
1a0058da:	f080 8353 	bcs.w	1a005f84 <__svfscanf_r+0x1434>
1a0058de:	6818      	ldr	r0, [r3, #0]
1a0058e0:	6b3a      	ldr	r2, [r7, #48]	; 0x30
1a0058e2:	f840 6029 	str.w	r6, [r0, r9, lsl #2]
1a0058e6:	f109 0301 	add.w	r3, r9, #1
1a0058ea:	80d3      	strh	r3, [r2, #6]
1a0058ec:	4641      	mov	r1, r8
1a0058ee:	f8cd b000 	str.w	fp, [sp]
1a0058f2:	4623      	mov	r3, r4
1a0058f4:	2201      	movs	r2, #1
1a0058f6:	6bf8      	ldr	r0, [r7, #60]	; 0x3c
1a0058f8:	f001 fd76 	bl	1a0073e8 <_fread_r>
1a0058fc:	4605      	mov	r5, r0
1a0058fe:	2800      	cmp	r0, #0
1a005900:	f43f a9d6 	beq.w	1a004cb0 <__svfscanf_r+0x160>
1a005904:	4284      	cmp	r4, r0
1a005906:	d905      	bls.n	1a005914 <__svfscanf_r+0xdc4>
1a005908:	4601      	mov	r1, r0
1a00590a:	6830      	ldr	r0, [r6, #0]
1a00590c:	f003 fa2e 	bl	1a008d6c <realloc>
1a005910:	b100      	cbz	r0, 1a005914 <__svfscanf_r+0xdc4>
1a005912:	6030      	str	r0, [r6, #0]
1a005914:	6b7b      	ldr	r3, [r7, #52]	; 0x34
1a005916:	3301      	adds	r3, #1
1a005918:	44aa      	add	sl, r5
1a00591a:	637b      	str	r3, [r7, #52]	; 0x34
1a00591c:	f7ff b93f 	b.w	1a004b9e <__svfscanf_r+0x4e>
1a005920:	2e00      	cmp	r6, #0
1a005922:	d165      	bne.n	1a0059f0 <__svfscanf_r+0xea0>
1a005924:	6afb      	ldr	r3, [r7, #44]	; 0x2c
1a005926:	f015 0580 	ands.w	r5, r5, #128	; 0x80
1a00592a:	f853 6b04 	ldr.w	r6, [r3], #4
1a00592e:	62fb      	str	r3, [r7, #44]	; 0x2c
1a005930:	f000 82a8 	beq.w	1a005e84 <__svfscanf_r+0x1334>
1a005934:	2e00      	cmp	r6, #0
1a005936:	f43f a9c7 	beq.w	1a004cc8 <__svfscanf_r+0x178>
1a00593a:	2020      	movs	r0, #32
1a00593c:	f002 f9fe 	bl	1a007d3c <malloc>
1a005940:	4681      	mov	r9, r0
1a005942:	2800      	cmp	r0, #0
1a005944:	f000 82ea 	beq.w	1a005f1c <__svfscanf_r+0x13cc>
1a005948:	6b3b      	ldr	r3, [r7, #48]	; 0x30
1a00594a:	6030      	str	r0, [r6, #0]
1a00594c:	f8b3 8006 	ldrh.w	r8, [r3, #6]
1a005950:	889d      	ldrh	r5, [r3, #4]
1a005952:	45a8      	cmp	r8, r5
1a005954:	f080 8298 	bcs.w	1a005e88 <__svfscanf_r+0x1338>
1a005958:	6818      	ldr	r0, [r3, #0]
1a00595a:	6b3a      	ldr	r2, [r7, #48]	; 0x30
1a00595c:	f840 6028 	str.w	r6, [r0, r8, lsl #2]
1a005960:	f108 0301 	add.w	r3, r8, #1
1a005964:	80d3      	strh	r3, [r2, #6]
1a005966:	46b0      	mov	r8, r6
1a005968:	2520      	movs	r5, #32
1a00596a:	464e      	mov	r6, r9
1a00596c:	46b1      	mov	r9, r6
1a00596e:	f002 f947 	bl	1a007c00 <__locale_ctype_ptr>
1a005972:	f8db 2000 	ldr.w	r2, [fp]
1a005976:	7813      	ldrb	r3, [r2, #0]
1a005978:	4418      	add	r0, r3
1a00597a:	1c51      	adds	r1, r2, #1
1a00597c:	7843      	ldrb	r3, [r0, #1]
1a00597e:	0718      	lsls	r0, r3, #28
1a005980:	d41d      	bmi.n	1a0059be <__svfscanf_r+0xe6e>
1a005982:	f8db 3004 	ldr.w	r3, [fp, #4]
1a005986:	f8cb 1000 	str.w	r1, [fp]
1a00598a:	3b01      	subs	r3, #1
1a00598c:	f8cb 3004 	str.w	r3, [fp, #4]
1a005990:	7813      	ldrb	r3, [r2, #0]
1a005992:	7033      	strb	r3, [r6, #0]
1a005994:	3601      	adds	r6, #1
1a005996:	eba6 0309 	sub.w	r3, r6, r9
1a00599a:	f1b8 0f00 	cmp.w	r8, #0
1a00599e:	d002      	beq.n	1a0059a6 <__svfscanf_r+0xe56>
1a0059a0:	42ab      	cmp	r3, r5
1a0059a2:	f080 82b3 	bcs.w	1a005f0c <__svfscanf_r+0x13bc>
1a0059a6:	3c01      	subs	r4, #1
1a0059a8:	d009      	beq.n	1a0059be <__svfscanf_r+0xe6e>
1a0059aa:	f8db 3004 	ldr.w	r3, [fp, #4]
1a0059ae:	2b00      	cmp	r3, #0
1a0059b0:	dcdd      	bgt.n	1a00596e <__svfscanf_r+0xe1e>
1a0059b2:	4659      	mov	r1, fp
1a0059b4:	6bf8      	ldr	r0, [r7, #60]	; 0x3c
1a0059b6:	f003 fb99 	bl	1a0090ec <__srefill_r>
1a0059ba:	2800      	cmp	r0, #0
1a0059bc:	d0d7      	beq.n	1a00596e <__svfscanf_r+0xe1e>
1a0059be:	2300      	movs	r3, #0
1a0059c0:	eba6 0909 	sub.w	r9, r6, r9
1a0059c4:	7033      	strb	r3, [r6, #0]
1a0059c6:	f1b8 0f00 	cmp.w	r8, #0
1a0059ca:	d004      	beq.n	1a0059d6 <__svfscanf_r+0xe86>
1a0059cc:	f109 0101 	add.w	r1, r9, #1
1a0059d0:	428d      	cmp	r5, r1
1a0059d2:	f200 82c9 	bhi.w	1a005f68 <__svfscanf_r+0x1418>
1a0059d6:	44ca      	add	sl, r9
1a0059d8:	6b7b      	ldr	r3, [r7, #52]	; 0x34
1a0059da:	3301      	adds	r3, #1
1a0059dc:	637b      	str	r3, [r7, #52]	; 0x34
1a0059de:	f7ff b8de 	b.w	1a004b9e <__svfscanf_r+0x4e>
1a0059e2:	4659      	mov	r1, fp
1a0059e4:	6bf8      	ldr	r0, [r7, #60]	; 0x3c
1a0059e6:	f003 fb81 	bl	1a0090ec <__srefill_r>
1a0059ea:	2800      	cmp	r0, #0
1a0059ec:	f47f af57 	bne.w	1a00589e <__svfscanf_r+0xd4e>
1a0059f0:	f002 f906 	bl	1a007c00 <__locale_ctype_ptr>
1a0059f4:	f8db 3000 	ldr.w	r3, [fp]
1a0059f8:	781a      	ldrb	r2, [r3, #0]
1a0059fa:	4410      	add	r0, r2
1a0059fc:	3301      	adds	r3, #1
1a0059fe:	7842      	ldrb	r2, [r0, #1]
1a005a00:	0715      	lsls	r5, r2, #28
1a005a02:	f53f af4c 	bmi.w	1a00589e <__svfscanf_r+0xd4e>
1a005a06:	f8db 2004 	ldr.w	r2, [fp, #4]
1a005a0a:	f8cb 3000 	str.w	r3, [fp]
1a005a0e:	f108 0801 	add.w	r8, r8, #1
1a005a12:	3a01      	subs	r2, #1
1a005a14:	4544      	cmp	r4, r8
1a005a16:	f8cb 2004 	str.w	r2, [fp, #4]
1a005a1a:	f43f af40 	beq.w	1a00589e <__svfscanf_r+0xd4e>
1a005a1e:	2a00      	cmp	r2, #0
1a005a20:	dce6      	bgt.n	1a0059f0 <__svfscanf_r+0xea0>
1a005a22:	e7de      	b.n	1a0059e2 <__svfscanf_r+0xe92>
1a005a24:	f425 7580 	bic.w	r5, r5, #256	; 0x100
1a005a28:	e654      	b.n	1a0056d4 <__svfscanf_r+0xb84>
1a005a2a:	2300      	movs	r3, #0
1a005a2c:	613b      	str	r3, [r7, #16]
1a005a2e:	e5cf      	b.n	1a0055d0 <__svfscanf_r+0xa80>
1a005a30:	6a3b      	ldr	r3, [r7, #32]
1a005a32:	2b00      	cmp	r3, #0
1a005a34:	f040 80b8 	bne.w	1a005ba8 <__svfscanf_r+0x1058>
1a005a38:	6afb      	ldr	r3, [r7, #44]	; 0x2c
1a005a3a:	f015 0880 	ands.w	r8, r5, #128	; 0x80
1a005a3e:	f853 6b04 	ldr.w	r6, [r3], #4
1a005a42:	62fb      	str	r3, [r7, #44]	; 0x2c
1a005a44:	f000 8255 	beq.w	1a005ef2 <__svfscanf_r+0x13a2>
1a005a48:	2e00      	cmp	r6, #0
1a005a4a:	f43f a93d 	beq.w	1a004cc8 <__svfscanf_r+0x178>
1a005a4e:	2020      	movs	r0, #32
1a005a50:	f002 f974 	bl	1a007d3c <malloc>
1a005a54:	4605      	mov	r5, r0
1a005a56:	2800      	cmp	r0, #0
1a005a58:	f000 8260 	beq.w	1a005f1c <__svfscanf_r+0x13cc>
1a005a5c:	6b3a      	ldr	r2, [r7, #48]	; 0x30
1a005a5e:	6030      	str	r0, [r6, #0]
1a005a60:	f8b2 9006 	ldrh.w	r9, [r2, #6]
1a005a64:	f8b2 8004 	ldrh.w	r8, [r2, #4]
1a005a68:	45c1      	cmp	r9, r8
1a005a6a:	d312      	bcc.n	1a005a92 <__svfscanf_r+0xf42>
1a005a6c:	f64f 73f6 	movw	r3, #65526	; 0xfff6
1a005a70:	4598      	cmp	r8, r3
1a005a72:	f63f a98f 	bhi.w	1a004d94 <__svfscanf_r+0x244>
1a005a76:	f108 0808 	add.w	r8, r8, #8
1a005a7a:	ea4f 0188 	mov.w	r1, r8, lsl #2
1a005a7e:	6810      	ldr	r0, [r2, #0]
1a005a80:	f003 f974 	bl	1a008d6c <realloc>
1a005a84:	2800      	cmp	r0, #0
1a005a86:	f43f a985 	beq.w	1a004d94 <__svfscanf_r+0x244>
1a005a8a:	6b3a      	ldr	r2, [r7, #48]	; 0x30
1a005a8c:	6010      	str	r0, [r2, #0]
1a005a8e:	f8a2 8004 	strh.w	r8, [r2, #4]
1a005a92:	6b39      	ldr	r1, [r7, #48]	; 0x30
1a005a94:	680a      	ldr	r2, [r1, #0]
1a005a96:	f109 0301 	add.w	r3, r9, #1
1a005a9a:	f842 6029 	str.w	r6, [r2, r9, lsl #2]
1a005a9e:	80cb      	strh	r3, [r1, #6]
1a005aa0:	f04f 0820 	mov.w	r8, #32
1a005aa4:	4633      	mov	r3, r6
1a005aa6:	462e      	mov	r6, r5
1a005aa8:	f107 0958 	add.w	r9, r7, #88	; 0x58
1a005aac:	f8c7 a020 	str.w	sl, [r7, #32]
1a005ab0:	4635      	mov	r5, r6
1a005ab2:	469a      	mov	sl, r3
1a005ab4:	464a      	mov	r2, r9
1a005ab6:	f8db 1000 	ldr.w	r1, [fp]
1a005aba:	7808      	ldrb	r0, [r1, #0]
1a005abc:	5c10      	ldrb	r0, [r2, r0]
1a005abe:	1c4b      	adds	r3, r1, #1
1a005ac0:	2800      	cmp	r0, #0
1a005ac2:	f000 81a5 	beq.w	1a005e10 <__svfscanf_r+0x12c0>
1a005ac6:	f8db 0004 	ldr.w	r0, [fp, #4]
1a005aca:	f8cb 3000 	str.w	r3, [fp]
1a005ace:	3801      	subs	r0, #1
1a005ad0:	f8cb 0004 	str.w	r0, [fp, #4]
1a005ad4:	7809      	ldrb	r1, [r1, #0]
1a005ad6:	7031      	strb	r1, [r6, #0]
1a005ad8:	3601      	adds	r6, #1
1a005ada:	eba6 0905 	sub.w	r9, r6, r5
1a005ade:	f1ba 0f00 	cmp.w	sl, #0
1a005ae2:	d002      	beq.n	1a005aea <__svfscanf_r+0xf9a>
1a005ae4:	45c1      	cmp	r9, r8
1a005ae6:	f080 8113 	bcs.w	1a005d10 <__svfscanf_r+0x11c0>
1a005aea:	3c01      	subs	r4, #1
1a005aec:	f000 8190 	beq.w	1a005e10 <__svfscanf_r+0x12c0>
1a005af0:	f8db 1004 	ldr.w	r1, [fp, #4]
1a005af4:	2900      	cmp	r1, #0
1a005af6:	dcde      	bgt.n	1a005ab6 <__svfscanf_r+0xf66>
1a005af8:	4659      	mov	r1, fp
1a005afa:	6bf8      	ldr	r0, [r7, #60]	; 0x3c
1a005afc:	62ba      	str	r2, [r7, #40]	; 0x28
1a005afe:	f003 faf5 	bl	1a0090ec <__srefill_r>
1a005b02:	6aba      	ldr	r2, [r7, #40]	; 0x28
1a005b04:	2800      	cmp	r0, #0
1a005b06:	d0d6      	beq.n	1a005ab6 <__svfscanf_r+0xf66>
1a005b08:	42ae      	cmp	r6, r5
1a005b0a:	4653      	mov	r3, sl
1a005b0c:	f8d7 a020 	ldr.w	sl, [r7, #32]
1a005b10:	f040 8181 	bne.w	1a005e16 <__svfscanf_r+0x12c6>
1a005b14:	f7ff b8cc 	b.w	1a004cb0 <__svfscanf_r+0x160>
1a005b18:	4659      	mov	r1, fp
1a005b1a:	6bf8      	ldr	r0, [r7, #60]	; 0x3c
1a005b1c:	f003 fae6 	bl	1a0090ec <__srefill_r>
1a005b20:	2800      	cmp	r0, #0
1a005b22:	f43f a915 	beq.w	1a004d50 <__svfscanf_r+0x200>
1a005b26:	f7ff b8c3 	b.w	1a004cb0 <__svfscanf_r+0x160>
1a005b2a:	f8bb 300c 	ldrh.w	r3, [fp, #12]
1a005b2e:	f413 7f00 	tst.w	r3, #512	; 0x200
1a005b32:	f04f 33ff 	mov.w	r3, #4294967295	; 0xffffffff
1a005b36:	637b      	str	r3, [r7, #52]	; 0x34
1a005b38:	f47f a8d1 	bne.w	1a004cde <__svfscanf_r+0x18e>
1a005b3c:	f8db 0058 	ldr.w	r0, [fp, #88]	; 0x58
1a005b40:	f002 f882 	bl	1a007c48 <__retarget_lock_release_recursive>
1a005b44:	f7ff b8c9 	b.w	1a004cda <__svfscanf_r+0x18a>
1a005b48:	f8db 0058 	ldr.w	r0, [fp, #88]	; 0x58
1a005b4c:	f002 f87a 	bl	1a007c44 <__retarget_lock_acquire_recursive>
1a005b50:	f9bb 100c 	ldrsh.w	r1, [fp, #12]
1a005b54:	b28b      	uxth	r3, r1
1a005b56:	f7ff b810 	b.w	1a004b7a <__svfscanf_r+0x2a>
1a005b5a:	4659      	mov	r1, fp
1a005b5c:	6bf8      	ldr	r0, [r7, #60]	; 0x3c
1a005b5e:	f003 fac5 	bl	1a0090ec <__srefill_r>
1a005b62:	2800      	cmp	r0, #0
1a005b64:	f43f ab02 	beq.w	1a00516c <__svfscanf_r+0x61c>
1a005b68:	f8c7 a004 	str.w	sl, [r7, #4]
1a005b6c:	f8d7 a020 	ldr.w	sl, [r7, #32]
1a005b70:	2d00      	cmp	r5, #0
1a005b72:	f43f ab01 	beq.w	1a005178 <__svfscanf_r+0x628>
1a005b76:	f7ff b89b 	b.w	1a004cb0 <__svfscanf_r+0x160>
1a005b7a:	4659      	mov	r1, fp
1a005b7c:	6bf8      	ldr	r0, [r7, #60]	; 0x3c
1a005b7e:	f003 fab5 	bl	1a0090ec <__srefill_r>
1a005b82:	2800      	cmp	r0, #0
1a005b84:	f43f abc9 	beq.w	1a00531a <__svfscanf_r+0x7ca>
1a005b88:	f8d7 a028 	ldr.w	sl, [r7, #40]	; 0x28
1a005b8c:	607e      	str	r6, [r7, #4]
1a005b8e:	2d00      	cmp	r5, #0
1a005b90:	f43f abc9 	beq.w	1a005326 <__svfscanf_r+0x7d6>
1a005b94:	f7ff b88c 	b.w	1a004cb0 <__svfscanf_r+0x160>
1a005b98:	6afb      	ldr	r3, [r7, #44]	; 0x2c
1a005b9a:	681b      	ldr	r3, [r3, #0]
1a005b9c:	7018      	strb	r0, [r3, #0]
1a005b9e:	e677      	b.n	1a005890 <__svfscanf_r+0xd40>
1a005ba0:	f425 65f0 	bic.w	r5, r5, #1920	; 0x780
1a005ba4:	2301      	movs	r3, #1
1a005ba6:	e57c      	b.n	1a0056a2 <__svfscanf_r+0xb52>
1a005ba8:	f8db 2000 	ldr.w	r2, [fp]
1a005bac:	f107 0958 	add.w	r9, r7, #88	; 0x58
1a005bb0:	7813      	ldrb	r3, [r2, #0]
1a005bb2:	f819 3003 	ldrb.w	r3, [r9, r3]
1a005bb6:	3201      	adds	r2, #1
1a005bb8:	2b00      	cmp	r3, #0
1a005bba:	f000 814f 	beq.w	1a005e5c <__svfscanf_r+0x130c>
1a005bbe:	f8db 3004 	ldr.w	r3, [fp, #4]
1a005bc2:	f8cb 2000 	str.w	r2, [fp]
1a005bc6:	3601      	adds	r6, #1
1a005bc8:	3b01      	subs	r3, #1
1a005bca:	42b4      	cmp	r4, r6
1a005bcc:	f8cb 3004 	str.w	r3, [fp, #4]
1a005bd0:	f000 8147 	beq.w	1a005e62 <__svfscanf_r+0x1312>
1a005bd4:	2b00      	cmp	r3, #0
1a005bd6:	dceb      	bgt.n	1a005bb0 <__svfscanf_r+0x1060>
1a005bd8:	4659      	mov	r1, fp
1a005bda:	6bf8      	ldr	r0, [r7, #60]	; 0x3c
1a005bdc:	f003 fa86 	bl	1a0090ec <__srefill_r>
1a005be0:	2800      	cmp	r0, #0
1a005be2:	f040 813e 	bne.w	1a005e62 <__svfscanf_r+0x1312>
1a005be6:	f8db 2000 	ldr.w	r2, [fp]
1a005bea:	e7e1      	b.n	1a005bb0 <__svfscanf_r+0x1060>
1a005bec:	2300      	movs	r3, #0
1a005bee:	e9c7 3303 	strd	r3, r3, [r7, #12]
1a005bf2:	617b      	str	r3, [r7, #20]
1a005bf4:	f107 0344 	add.w	r3, r7, #68	; 0x44
1a005bf8:	4698      	mov	r8, r3
1a005bfa:	f7ff bb14 	b.w	1a005226 <__svfscanf_r+0x6d6>
1a005bfe:	2300      	movs	r3, #0
1a005c00:	613b      	str	r3, [r7, #16]
1a005c02:	e9c7 3305 	strd	r3, r3, [r7, #20]
1a005c06:	4698      	mov	r8, r3
1a005c08:	f7ff ba5c 	b.w	1a0050c4 <__svfscanf_r+0x574>
1a005c0c:	f04f 0800 	mov.w	r8, #0
1a005c10:	f107 0344 	add.w	r3, r7, #68	; 0x44
1a005c14:	f8c7 8028 	str.w	r8, [r7, #40]	; 0x28
1a005c18:	f8c7 8020 	str.w	r8, [r7, #32]
1a005c1c:	4699      	mov	r9, r3
1a005c1e:	f7ff b9b3 	b.w	1a004f88 <__svfscanf_r+0x438>
1a005c22:	461d      	mov	r5, r3
1a005c24:	f8d7 803c 	ldr.w	r8, [r7, #60]	; 0x3c
1a005c28:	e008      	b.n	1a005c3c <__svfscanf_r+0x10ec>
1a005c2a:	f8cb 6000 	str.w	r6, [fp]
1a005c2e:	441d      	add	r5, r3
1a005c30:	1ae4      	subs	r4, r4, r3
1a005c32:	f003 fa5b 	bl	1a0090ec <__srefill_r>
1a005c36:	2800      	cmp	r0, #0
1a005c38:	f040 81d7 	bne.w	1a005fea <__svfscanf_r+0x149a>
1a005c3c:	e9db 2300 	ldrd	r2, r3, [fp]
1a005c40:	429c      	cmp	r4, r3
1a005c42:	4659      	mov	r1, fp
1a005c44:	4640      	mov	r0, r8
1a005c46:	eb02 0603 	add.w	r6, r2, r3
1a005c4a:	dcee      	bgt.n	1a005c2a <__svfscanf_r+0x10da>
1a005c4c:	1b1b      	subs	r3, r3, r4
1a005c4e:	4422      	add	r2, r4
1a005c50:	4425      	add	r5, r4
1a005c52:	e9cb 2300 	strd	r2, r3, [fp]
1a005c56:	44aa      	add	sl, r5
1a005c58:	f7fe bfa1 	b.w	1a004b9e <__svfscanf_r+0x4e>
1a005c5c:	f816 1c01 	ldrb.w	r1, [r6, #-1]
1a005c60:	6bf8      	ldr	r0, [r7, #60]	; 0x3c
1a005c62:	465a      	mov	r2, fp
1a005c64:	f006 fb46 	bl	1a00c2f4 <_ungetc_r>
1a005c68:	3e01      	subs	r6, #1
1a005c6a:	f7ff bb96 	b.w	1a00539a <__svfscanf_r+0x84a>
1a005c6e:	69bb      	ldr	r3, [r7, #24]
1a005c70:	eba8 0303 	sub.w	r3, r8, r3
1a005c74:	425a      	negs	r2, r3
1a005c76:	2b00      	cmp	r3, #0
1a005c78:	f43f ad63 	beq.w	1a005742 <__svfscanf_r+0xbf2>
1a005c7c:	f207 23ab 	addw	r3, r7, #683	; 0x2ab
1a005c80:	4599      	cmp	r9, r3
1a005c82:	bf28      	it	cs
1a005c84:	f207 29aa 	addwcs	r9, r7, #682	; 0x2aa
1a005c88:	4648      	mov	r0, r9
1a005c8a:	49bd      	ldr	r1, [pc, #756]	; (1a005f80 <__svfscanf_r+0x1430>)
1a005c8c:	f003 fb2c 	bl	1a0092e8 <sprintf>
1a005c90:	e557      	b.n	1a005742 <__svfscanf_r+0xbf2>
1a005c92:	f898 2002 	ldrb.w	r2, [r8, #2]
1a005c96:	f045 0502 	orr.w	r5, r5, #2
1a005c9a:	f108 0802 	add.w	r8, r8, #2
1a005c9e:	f7fe bf96 	b.w	1a004bce <__svfscanf_r+0x7e>
1a005ca2:	f898 2002 	ldrb.w	r2, [r8, #2]
1a005ca6:	f045 0508 	orr.w	r5, r5, #8
1a005caa:	f108 0802 	add.w	r8, r8, #2
1a005cae:	f7fe bf8e 	b.w	1a004bce <__svfscanf_r+0x7e>
1a005cb2:	b084      	sub	sp, #16
1a005cb4:	aa02      	add	r2, sp, #8
1a005cb6:	633a      	str	r2, [r7, #48]	; 0x30
1a005cb8:	6013      	str	r3, [r2, #0]
1a005cba:	9303      	str	r3, [sp, #12]
1a005cbc:	e429      	b.n	1a005512 <__svfscanf_r+0x9c2>
1a005cbe:	1cb1      	adds	r1, r6, #2
1a005cc0:	f43f ab26 	beq.w	1a005310 <__svfscanf_r+0x7c0>
1a005cc4:	f8d8 9000 	ldr.w	r9, [r8]
1a005cc8:	f1b9 3fff 	cmp.w	r9, #4294967295	; 0xffffffff
1a005ccc:	f43f aafe 	beq.w	1a0052cc <__svfscanf_r+0x77c>
1a005cd0:	f7ff badf 	b.w	1a005292 <__svfscanf_r+0x742>
1a005cd4:	f110 0f02 	cmn.w	r0, #2
1a005cd8:	f43f aa43 	beq.w	1a005162 <__svfscanf_r+0x612>
1a005cdc:	6a3b      	ldr	r3, [r7, #32]
1a005cde:	2803      	cmp	r0, #3
1a005ce0:	442b      	add	r3, r5
1a005ce2:	623b      	str	r3, [r7, #32]
1a005ce4:	f47f aa2b 	bne.w	1a00513e <__svfscanf_r+0x5ee>
1a005ce8:	6832      	ldr	r2, [r6, #0]
1a005cea:	2a04      	cmp	r2, #4
1a005cec:	f47f aa27 	bne.w	1a00513e <__svfscanf_r+0x5ee>
1a005cf0:	6abb      	ldr	r3, [r7, #40]	; 0x28
1a005cf2:	2b00      	cmp	r3, #0
1a005cf4:	f43f aa28 	beq.w	1a005148 <__svfscanf_r+0x5f8>
1a005cf8:	2500      	movs	r5, #0
1a005cfa:	f7ff ba32 	b.w	1a005162 <__svfscanf_r+0x612>
1a005cfe:	2500      	movs	r5, #0
1a005d00:	f7ff bb06 	b.w	1a005310 <__svfscanf_r+0x7c0>
1a005d04:	6823      	ldr	r3, [r4, #0]
1a005d06:	2b04      	cmp	r3, #4
1a005d08:	f47f aaed 	bne.w	1a0052e6 <__svfscanf_r+0x796>
1a005d0c:	f7ff baed 	b.w	1a0052ea <__svfscanf_r+0x79a>
1a005d10:	ea4f 0848 	mov.w	r8, r8, lsl #1
1a005d14:	4628      	mov	r0, r5
1a005d16:	4641      	mov	r1, r8
1a005d18:	62ba      	str	r2, [r7, #40]	; 0x28
1a005d1a:	f003 f827 	bl	1a008d6c <realloc>
1a005d1e:	4605      	mov	r5, r0
1a005d20:	2800      	cmp	r0, #0
1a005d22:	f000 80fb 	beq.w	1a005f1c <__svfscanf_r+0x13cc>
1a005d26:	eb00 0609 	add.w	r6, r0, r9
1a005d2a:	f8ca 0000 	str.w	r0, [sl]
1a005d2e:	6aba      	ldr	r2, [r7, #40]	; 0x28
1a005d30:	e6db      	b.n	1a005aea <__svfscanf_r+0xf9a>
1a005d32:	b18d      	cbz	r5, 1a005d58 <__svfscanf_r+0x1208>
1a005d34:	3d01      	subs	r5, #1
1a005d36:	f507 73ac 	add.w	r3, r7, #344	; 0x158
1a005d3a:	441d      	add	r5, r3
1a005d3c:	61be      	str	r6, [r7, #24]
1a005d3e:	462e      	mov	r6, r5
1a005d40:	6bfd      	ldr	r5, [r7, #60]	; 0x3c
1a005d42:	f207 1457 	addw	r4, r7, #343	; 0x157
1a005d46:	f816 1901 	ldrb.w	r1, [r6], #-1
1a005d4a:	465a      	mov	r2, fp
1a005d4c:	4628      	mov	r0, r5
1a005d4e:	f006 fad1 	bl	1a00c2f4 <_ungetc_r>
1a005d52:	42b4      	cmp	r4, r6
1a005d54:	d1f7      	bne.n	1a005d46 <__svfscanf_r+0x11f6>
1a005d56:	69be      	ldr	r6, [r7, #24]
1a005d58:	2e00      	cmp	r6, #0
1a005d5a:	f47e af20 	bne.w	1a004b9e <__svfscanf_r+0x4e>
1a005d5e:	6a3b      	ldr	r3, [r7, #32]
1a005d60:	f8c9 6000 	str.w	r6, [r9]
1a005d64:	2b00      	cmp	r3, #0
1a005d66:	f43f aa15 	beq.w	1a005194 <__svfscanf_r+0x644>
1a005d6a:	6abb      	ldr	r3, [r7, #40]	; 0x28
1a005d6c:	eba9 0103 	sub.w	r1, r9, r3
1a005d70:	1089      	asrs	r1, r1, #2
1a005d72:	3101      	adds	r1, #1
1a005d74:	4588      	cmp	r8, r1
1a005d76:	f67f aa0d 	bls.w	1a005194 <__svfscanf_r+0x644>
1a005d7a:	6a3c      	ldr	r4, [r7, #32]
1a005d7c:	0089      	lsls	r1, r1, #2
1a005d7e:	6820      	ldr	r0, [r4, #0]
1a005d80:	f002 fff4 	bl	1a008d6c <realloc>
1a005d84:	2800      	cmp	r0, #0
1a005d86:	f47f aae9 	bne.w	1a00535c <__svfscanf_r+0x80c>
1a005d8a:	f7ff ba03 	b.w	1a005194 <__svfscanf_r+0x644>
1a005d8e:	69b8      	ldr	r0, [r7, #24]
1a005d90:	00d9      	lsls	r1, r3, #3
1a005d92:	461e      	mov	r6, r3
1a005d94:	f002 ffea 	bl	1a008d6c <realloc>
1a005d98:	61b8      	str	r0, [r7, #24]
1a005d9a:	2800      	cmp	r0, #0
1a005d9c:	f000 80be 	beq.w	1a005f1c <__svfscanf_r+0x13cc>
1a005da0:	697a      	ldr	r2, [r7, #20]
1a005da2:	0073      	lsls	r3, r6, #1
1a005da4:	eb00 0805 	add.w	r8, r0, r5
1a005da8:	6010      	str	r0, [r2, #0]
1a005daa:	613b      	str	r3, [r7, #16]
1a005dac:	f7ff b9d6 	b.w	1a00515c <__svfscanf_r+0x60c>
1a005db0:	2e02      	cmp	r6, #2
1a005db2:	f240 8178 	bls.w	1a0060a6 <__svfscanf_r+0x1556>
1a005db6:	2e03      	cmp	r6, #3
1a005db8:	f43f ac94 	beq.w	1a0056e4 <__svfscanf_r+0xb94>
1a005dbc:	1f34      	subs	r4, r6, #4
1a005dbe:	b2e4      	uxtb	r4, r4
1a005dc0:	43e6      	mvns	r6, r4
1a005dc2:	444e      	add	r6, r9
1a005dc4:	62bd      	str	r5, [r7, #40]	; 0x28
1a005dc6:	464d      	mov	r5, r9
1a005dc8:	46a1      	mov	r9, r4
1a005dca:	6bfc      	ldr	r4, [r7, #60]	; 0x3c
1a005dcc:	f815 1d01 	ldrb.w	r1, [r5, #-1]!
1a005dd0:	465a      	mov	r2, fp
1a005dd2:	4620      	mov	r0, r4
1a005dd4:	f006 fa8e 	bl	1a00c2f4 <_ungetc_r>
1a005dd8:	42ae      	cmp	r6, r5
1a005dda:	d1f7      	bne.n	1a005dcc <__svfscanf_r+0x127c>
1a005ddc:	464c      	mov	r4, r9
1a005dde:	f10a 3aff 	add.w	sl, sl, #4294967295	; 0xffffffff
1a005de2:	46a9      	mov	r9, r5
1a005de4:	ebaa 0a04 	sub.w	sl, sl, r4
1a005de8:	6abd      	ldr	r5, [r7, #40]	; 0x28
1a005dea:	e47b      	b.n	1a0056e4 <__svfscanf_r+0xb94>
1a005dec:	6938      	ldr	r0, [r7, #16]
1a005dee:	00d9      	lsls	r1, r3, #3
1a005df0:	461d      	mov	r5, r3
1a005df2:	f002 ffbb 	bl	1a008d6c <realloc>
1a005df6:	6138      	str	r0, [r7, #16]
1a005df8:	2800      	cmp	r0, #0
1a005dfa:	f000 808f 	beq.w	1a005f1c <__svfscanf_r+0x13cc>
1a005dfe:	697a      	ldr	r2, [r7, #20]
1a005e00:	006b      	lsls	r3, r5, #1
1a005e02:	eb00 0804 	add.w	r8, r0, r4
1a005e06:	6010      	str	r0, [r2, #0]
1a005e08:	60fb      	str	r3, [r7, #12]
1a005e0a:	6a3d      	ldr	r5, [r7, #32]
1a005e0c:	f7ff ba80 	b.w	1a005310 <__svfscanf_r+0x7c0>
1a005e10:	4653      	mov	r3, sl
1a005e12:	f8d7 a020 	ldr.w	sl, [r7, #32]
1a005e16:	1b75      	subs	r5, r6, r5
1a005e18:	f43e af56 	beq.w	1a004cc8 <__svfscanf_r+0x178>
1a005e1c:	2200      	movs	r2, #0
1a005e1e:	7032      	strb	r2, [r6, #0]
1a005e20:	b11b      	cbz	r3, 1a005e2a <__svfscanf_r+0x12da>
1a005e22:	1c69      	adds	r1, r5, #1
1a005e24:	4588      	cmp	r8, r1
1a005e26:	f200 80e6 	bhi.w	1a005ff6 <__svfscanf_r+0x14a6>
1a005e2a:	6b7b      	ldr	r3, [r7, #52]	; 0x34
1a005e2c:	3301      	adds	r3, #1
1a005e2e:	637b      	str	r3, [r7, #52]	; 0x34
1a005e30:	44aa      	add	sl, r5
1a005e32:	f7fe beb4 	b.w	1a004b9e <__svfscanf_r+0x4e>
1a005e36:	6afb      	ldr	r3, [r7, #44]	; 0x2c
1a005e38:	f015 0502 	ands.w	r5, r5, #2
1a005e3c:	681e      	ldr	r6, [r3, #0]
1a005e3e:	d035      	beq.n	1a005eac <__svfscanf_r+0x135c>
1a005e40:	ed86 0b00 	vstr	d0, [r6]
1a005e44:	e48f      	b.n	1a005766 <__svfscanf_r+0xc16>
1a005e46:	6abb      	ldr	r3, [r7, #40]	; 0x28
1a005e48:	f425 7560 	bic.w	r5, r5, #896	; 0x380
1a005e4c:	b113      	cbz	r3, 1a005e54 <__svfscanf_r+0x1304>
1a005e4e:	3b01      	subs	r3, #1
1a005e50:	62bb      	str	r3, [r7, #40]	; 0x28
1a005e52:	3401      	adds	r4, #1
1a005e54:	f108 0801 	add.w	r8, r8, #1
1a005e58:	f7ff ba89 	b.w	1a00536e <__svfscanf_r+0x81e>
1a005e5c:	2e00      	cmp	r6, #0
1a005e5e:	f43e af33 	beq.w	1a004cc8 <__svfscanf_r+0x178>
1a005e62:	44b2      	add	sl, r6
1a005e64:	f7fe be9b 	b.w	1a004b9e <__svfscanf_r+0x4e>
1a005e68:	f8cd b000 	str.w	fp, [sp]
1a005e6c:	4623      	mov	r3, r4
1a005e6e:	4631      	mov	r1, r6
1a005e70:	2201      	movs	r2, #1
1a005e72:	6bf8      	ldr	r0, [r7, #60]	; 0x3c
1a005e74:	f001 fab8 	bl	1a0073e8 <_fread_r>
1a005e78:	4605      	mov	r5, r0
1a005e7a:	2800      	cmp	r0, #0
1a005e7c:	f47f ad4a 	bne.w	1a005914 <__svfscanf_r+0xdc4>
1a005e80:	f7fe bf16 	b.w	1a004cb0 <__svfscanf_r+0x160>
1a005e84:	46a8      	mov	r8, r5
1a005e86:	e571      	b.n	1a00596c <__svfscanf_r+0xe1c>
1a005e88:	f64f 73f6 	movw	r3, #65526	; 0xfff6
1a005e8c:	429d      	cmp	r5, r3
1a005e8e:	f63e af81 	bhi.w	1a004d94 <__svfscanf_r+0x244>
1a005e92:	6b3a      	ldr	r2, [r7, #48]	; 0x30
1a005e94:	3508      	adds	r5, #8
1a005e96:	00a9      	lsls	r1, r5, #2
1a005e98:	6810      	ldr	r0, [r2, #0]
1a005e9a:	f002 ff67 	bl	1a008d6c <realloc>
1a005e9e:	2800      	cmp	r0, #0
1a005ea0:	f43e af78 	beq.w	1a004d94 <__svfscanf_r+0x244>
1a005ea4:	6b3b      	ldr	r3, [r7, #48]	; 0x30
1a005ea6:	6018      	str	r0, [r3, #0]
1a005ea8:	809d      	strh	r5, [r3, #4]
1a005eaa:	e556      	b.n	1a00595a <__svfscanf_r+0xe0a>
1a005eac:	ec53 2b10 	vmov	r2, r3, d0
1a005eb0:	ec51 0b10 	vmov	r0, r1, d0
1a005eb4:	f007 f93e 	bl	1a00d134 <__aeabi_dcmpun>
1a005eb8:	2800      	cmp	r0, #0
1a005eba:	f040 8103 	bne.w	1a0060c4 <__svfscanf_r+0x1574>
1a005ebe:	ec51 0b18 	vmov	r0, r1, d8
1a005ec2:	f7fc fc2d 	bl	1a002720 <__aeabi_d2f>
1a005ec6:	6030      	str	r0, [r6, #0]
1a005ec8:	e44d      	b.n	1a005766 <__svfscanf_r+0xc16>
1a005eca:	076a      	lsls	r2, r5, #29
1a005ecc:	d46c      	bmi.n	1a005fa8 <__svfscanf_r+0x1458>
1a005ece:	07ee      	lsls	r6, r5, #31
1a005ed0:	f100 80b5 	bmi.w	1a00603e <__svfscanf_r+0x14ee>
1a005ed4:	07ac      	lsls	r4, r5, #30
1a005ed6:	f140 80b2 	bpl.w	1a00603e <__svfscanf_r+0x14ee>
1a005eda:	4650      	mov	r0, sl
1a005edc:	17c1      	asrs	r1, r0, #31
1a005ede:	e9c3 0100 	strd	r0, r1, [r3]
1a005ee2:	f7fe be5c 	b.w	1a004b9e <__svfscanf_r+0x4e>
1a005ee6:	6abb      	ldr	r3, [r7, #40]	; 0x28
1a005ee8:	613b      	str	r3, [r7, #16]
1a005eea:	e9c7 3305 	strd	r3, r3, [r7, #20]
1a005eee:	f7ff b8e9 	b.w	1a0050c4 <__svfscanf_r+0x574>
1a005ef2:	4643      	mov	r3, r8
1a005ef4:	e5d8      	b.n	1a005aa8 <__svfscanf_r+0xf58>
1a005ef6:	6a3b      	ldr	r3, [r7, #32]
1a005ef8:	617b      	str	r3, [r7, #20]
1a005efa:	e9c7 3303 	strd	r3, r3, [r7, #12]
1a005efe:	f7ff b992 	b.w	1a005226 <__svfscanf_r+0x6d6>
1a005f02:	46b0      	mov	r8, r6
1a005f04:	62be      	str	r6, [r7, #40]	; 0x28
1a005f06:	623e      	str	r6, [r7, #32]
1a005f08:	f7ff b83e 	b.w	1a004f88 <__svfscanf_r+0x438>
1a005f0c:	006d      	lsls	r5, r5, #1
1a005f0e:	4648      	mov	r0, r9
1a005f10:	4629      	mov	r1, r5
1a005f12:	62bb      	str	r3, [r7, #40]	; 0x28
1a005f14:	f002 ff2a 	bl	1a008d6c <realloc>
1a005f18:	4681      	mov	r9, r0
1a005f1a:	bb00      	cbnz	r0, 1a005f5e <__svfscanf_r+0x140e>
1a005f1c:	f04f 33ff 	mov.w	r3, #4294967295	; 0xffffffff
1a005f20:	637b      	str	r3, [r7, #52]	; 0x34
1a005f22:	f7fe bed1 	b.w	1a004cc8 <__svfscanf_r+0x178>
1a005f26:	f64f 73f6 	movw	r3, #65526	; 0xfff6
1a005f2a:	429d      	cmp	r5, r3
1a005f2c:	d8f6      	bhi.n	1a005f1c <__svfscanf_r+0x13cc>
1a005f2e:	6b3a      	ldr	r2, [r7, #48]	; 0x30
1a005f30:	3508      	adds	r5, #8
1a005f32:	00a9      	lsls	r1, r5, #2
1a005f34:	6810      	ldr	r0, [r2, #0]
1a005f36:	f002 ff19 	bl	1a008d6c <realloc>
1a005f3a:	2800      	cmp	r0, #0
1a005f3c:	d0ee      	beq.n	1a005f1c <__svfscanf_r+0x13cc>
1a005f3e:	6b3b      	ldr	r3, [r7, #48]	; 0x30
1a005f40:	6018      	str	r0, [r3, #0]
1a005f42:	809d      	strh	r5, [r3, #4]
1a005f44:	f7ff b814 	b.w	1a004f70 <__svfscanf_r+0x420>
1a005f48:	68bc      	ldr	r4, [r7, #8]
1a005f4a:	6bf8      	ldr	r0, [r7, #60]	; 0x3c
1a005f4c:	4621      	mov	r1, r4
1a005f4e:	230a      	movs	r3, #10
1a005f50:	3101      	adds	r1, #1
1a005f52:	f7fd f855 	bl	1a003000 <_strtol_r>
1a005f56:	68fb      	ldr	r3, [r7, #12]
1a005f58:	46a1      	mov	r9, r4
1a005f5a:	1ac2      	subs	r2, r0, r3
1a005f5c:	e68e      	b.n	1a005c7c <__svfscanf_r+0x112c>
1a005f5e:	6abb      	ldr	r3, [r7, #40]	; 0x28
1a005f60:	f8c8 0000 	str.w	r0, [r8]
1a005f64:	18c6      	adds	r6, r0, r3
1a005f66:	e51e      	b.n	1a0059a6 <__svfscanf_r+0xe56>
1a005f68:	f8d8 0000 	ldr.w	r0, [r8]
1a005f6c:	f002 fefe 	bl	1a008d6c <realloc>
1a005f70:	2800      	cmp	r0, #0
1a005f72:	f43f ad30 	beq.w	1a0059d6 <__svfscanf_r+0xe86>
1a005f76:	f8c8 0000 	str.w	r0, [r8]
1a005f7a:	44ca      	add	sl, r9
1a005f7c:	e52c      	b.n	1a0059d8 <__svfscanf_r+0xe88>
1a005f7e:	bf00      	nop
1a005f80:	1a00d7a4 	.word	0x1a00d7a4
1a005f84:	f64f 73f6 	movw	r3, #65526	; 0xfff6
1a005f88:	429d      	cmp	r5, r3
1a005f8a:	f63e af03 	bhi.w	1a004d94 <__svfscanf_r+0x244>
1a005f8e:	6b3a      	ldr	r2, [r7, #48]	; 0x30
1a005f90:	3508      	adds	r5, #8
1a005f92:	00a9      	lsls	r1, r5, #2
1a005f94:	6810      	ldr	r0, [r2, #0]
1a005f96:	f002 fee9 	bl	1a008d6c <realloc>
1a005f9a:	2800      	cmp	r0, #0
1a005f9c:	f43e aefa 	beq.w	1a004d94 <__svfscanf_r+0x244>
1a005fa0:	6b3b      	ldr	r3, [r7, #48]	; 0x30
1a005fa2:	6018      	str	r0, [r3, #0]
1a005fa4:	809d      	strh	r5, [r3, #4]
1a005fa6:	e49b      	b.n	1a0058e0 <__svfscanf_r+0xd90>
1a005fa8:	f8a3 a000 	strh.w	sl, [r3]
1a005fac:	f7fe bdf7 	b.w	1a004b9e <__svfscanf_r+0x4e>
1a005fb0:	07ad      	lsls	r5, r5, #30
1a005fb2:	f57f ac6a 	bpl.w	1a00588a <__svfscanf_r+0xd3a>
1a005fb6:	69fb      	ldr	r3, [r7, #28]
1a005fb8:	6bf8      	ldr	r0, [r7, #60]	; 0x3c
1a005fba:	4619      	mov	r1, r3
1a005fbc:	4b50      	ldr	r3, [pc, #320]	; (1a006100 <__svfscanf_r+0x15b0>)
1a005fbe:	4299      	cmp	r1, r3
1a005fc0:	e9d7 1308 	ldrd	r1, r3, [r7, #32]
1a005fc4:	f000 8085 	beq.w	1a0060d2 <__svfscanf_r+0x1582>
1a005fc8:	f004 faae 	bl	1a00a528 <_strtoll_r>
1a005fcc:	6afb      	ldr	r3, [r7, #44]	; 0x2c
1a005fce:	681b      	ldr	r3, [r3, #0]
1a005fd0:	e9c3 0100 	strd	r0, r1, [r3]
1a005fd4:	e45c      	b.n	1a005890 <__svfscanf_r+0xd40>
1a005fd6:	697c      	ldr	r4, [r7, #20]
1a005fd8:	6820      	ldr	r0, [r4, #0]
1a005fda:	f002 fec7 	bl	1a008d6c <realloc>
1a005fde:	2800      	cmp	r0, #0
1a005fe0:	f43f a8d4 	beq.w	1a00518c <__svfscanf_r+0x63c>
1a005fe4:	6020      	str	r0, [r4, #0]
1a005fe6:	f7ff b8d1 	b.w	1a00518c <__svfscanf_r+0x63c>
1a005fea:	2d00      	cmp	r5, #0
1a005fec:	f43e ae60 	beq.w	1a004cb0 <__svfscanf_r+0x160>
1a005ff0:	44aa      	add	sl, r5
1a005ff2:	f7fe bdd4 	b.w	1a004b9e <__svfscanf_r+0x4e>
1a005ff6:	6818      	ldr	r0, [r3, #0]
1a005ff8:	62bb      	str	r3, [r7, #40]	; 0x28
1a005ffa:	f002 feb7 	bl	1a008d6c <realloc>
1a005ffe:	2800      	cmp	r0, #0
1a006000:	f43f af13 	beq.w	1a005e2a <__svfscanf_r+0x12da>
1a006004:	6abb      	ldr	r3, [r7, #40]	; 0x28
1a006006:	6018      	str	r0, [r3, #0]
1a006008:	e70f      	b.n	1a005e2a <__svfscanf_r+0x12da>
1a00600a:	f8d7 a028 	ldr.w	sl, [r7, #40]	; 0x28
1a00600e:	607e      	str	r6, [r7, #4]
1a006010:	2d00      	cmp	r5, #0
1a006012:	f43f a988 	beq.w	1a005326 <__svfscanf_r+0x7d6>
1a006016:	3d01      	subs	r5, #1
1a006018:	f507 73ac 	add.w	r3, r7, #344	; 0x158
1a00601c:	6bfe      	ldr	r6, [r7, #60]	; 0x3c
1a00601e:	441d      	add	r5, r3
1a006020:	f207 1457 	addw	r4, r7, #343	; 0x157
1a006024:	f815 1901 	ldrb.w	r1, [r5], #-1
1a006028:	465a      	mov	r2, fp
1a00602a:	4630      	mov	r0, r6
1a00602c:	f006 f962 	bl	1a00c2f4 <_ungetc_r>
1a006030:	42ac      	cmp	r4, r5
1a006032:	d1f7      	bne.n	1a006024 <__svfscanf_r+0x14d4>
1a006034:	f7ff b977 	b.w	1a005326 <__svfscanf_r+0x7d6>
1a006038:	2500      	movs	r5, #0
1a00603a:	f7fe be2a 	b.w	1a004c92 <__svfscanf_r+0x142>
1a00603e:	f8c3 a000 	str.w	sl, [r3]
1a006042:	f7fe bdac 	b.w	1a004b9e <__svfscanf_r+0x4e>
1a006046:	6a3d      	ldr	r5, [r7, #32]
1a006048:	45a9      	cmp	r9, r5
1a00604a:	f67e ae3d 	bls.w	1a004cc8 <__svfscanf_r+0x178>
1a00604e:	6bfc      	ldr	r4, [r7, #60]	; 0x3c
1a006050:	f819 1d01 	ldrb.w	r1, [r9, #-1]!
1a006054:	465a      	mov	r2, fp
1a006056:	4620      	mov	r0, r4
1a006058:	f006 f94c 	bl	1a00c2f4 <_ungetc_r>
1a00605c:	45a9      	cmp	r9, r5
1a00605e:	d1f7      	bne.n	1a006050 <__svfscanf_r+0x1500>
1a006060:	f7fe be32 	b.w	1a004cc8 <__svfscanf_r+0x178>
1a006064:	4618      	mov	r0, r3
1a006066:	ea4f 01c8 	mov.w	r1, r8, lsl #3
1a00606a:	f002 fe7f 	bl	1a008d6c <realloc>
1a00606e:	62b8      	str	r0, [r7, #40]	; 0x28
1a006070:	2800      	cmp	r0, #0
1a006072:	f43f af53 	beq.w	1a005f1c <__svfscanf_r+0x13cc>
1a006076:	6a3a      	ldr	r2, [r7, #32]
1a006078:	eb00 0905 	add.w	r9, r0, r5
1a00607c:	6010      	str	r0, [r2, #0]
1a00607e:	ea4f 0848 	mov.w	r8, r8, lsl #1
1a006082:	4635      	mov	r5, r6
1a006084:	f7fe be05 	b.w	1a004c92 <__svfscanf_r+0x142>
1a006088:	6a3d      	ldr	r5, [r7, #32]
1a00608a:	45a9      	cmp	r9, r5
1a00608c:	f67e ae1c 	bls.w	1a004cc8 <__svfscanf_r+0x178>
1a006090:	6bfc      	ldr	r4, [r7, #60]	; 0x3c
1a006092:	f819 1d01 	ldrb.w	r1, [r9, #-1]!
1a006096:	465a      	mov	r2, fp
1a006098:	4620      	mov	r0, r4
1a00609a:	f006 f92b 	bl	1a00c2f4 <_ungetc_r>
1a00609e:	45a9      	cmp	r9, r5
1a0060a0:	d1f7      	bne.n	1a006092 <__svfscanf_r+0x1542>
1a0060a2:	f7fe be11 	b.w	1a004cc8 <__svfscanf_r+0x178>
1a0060a6:	6a3b      	ldr	r3, [r7, #32]
1a0060a8:	4599      	cmp	r9, r3
1a0060aa:	f67e ae0d 	bls.w	1a004cc8 <__svfscanf_r+0x178>
1a0060ae:	f819 1d01 	ldrb.w	r1, [r9, #-1]!
1a0060b2:	6bf8      	ldr	r0, [r7, #60]	; 0x3c
1a0060b4:	465a      	mov	r2, fp
1a0060b6:	f006 f91d 	bl	1a00c2f4 <_ungetc_r>
1a0060ba:	6a3b      	ldr	r3, [r7, #32]
1a0060bc:	4599      	cmp	r9, r3
1a0060be:	d1f6      	bne.n	1a0060ae <__svfscanf_r+0x155e>
1a0060c0:	f7fe be02 	b.w	1a004cc8 <__svfscanf_r+0x178>
1a0060c4:	4628      	mov	r0, r5
1a0060c6:	f003 f909 	bl	1a0092dc <nanf>
1a0060ca:	ed86 0a00 	vstr	s0, [r6]
1a0060ce:	f7ff bb4a 	b.w	1a005766 <__svfscanf_r+0xc16>
1a0060d2:	f004 fbd9 	bl	1a00a888 <_strtoull_r>
1a0060d6:	e779      	b.n	1a005fcc <__svfscanf_r+0x147c>
1a0060d8:	f8d9 0000 	ldr.w	r0, [r9]
1a0060dc:	f001 fd70 	bl	1a007bc0 <iswspace>
1a0060e0:	2800      	cmp	r0, #0
1a0060e2:	f47f ae26 	bne.w	1a005d32 <__svfscanf_r+0x11e2>
1a0060e6:	687b      	ldr	r3, [r7, #4]
1a0060e8:	2b03      	cmp	r3, #3
1a0060ea:	44aa      	add	sl, r5
1a0060ec:	f47e af93 	bne.w	1a005016 <__svfscanf_r+0x4c6>
1a0060f0:	69bb      	ldr	r3, [r7, #24]
1a0060f2:	681b      	ldr	r3, [r3, #0]
1a0060f4:	2b04      	cmp	r3, #4
1a0060f6:	f47e af8e 	bne.w	1a005016 <__svfscanf_r+0x4c6>
1a0060fa:	f7fe bf8d 	b.w	1a005018 <__svfscanf_r+0x4c8>
1a0060fe:	bf00      	nop
1a006100:	1a00a699 	.word	0x1a00a699

1a006104 <_vfscanf_r>:
1a006104:	b530      	push	{r4, r5, lr}
1a006106:	4604      	mov	r4, r0
1a006108:	b085      	sub	sp, #20
1a00610a:	b108      	cbz	r0, 1a006110 <_vfscanf_r+0xc>
1a00610c:	6b85      	ldr	r5, [r0, #56]	; 0x38
1a00610e:	b12d      	cbz	r5, 1a00611c <_vfscanf_r+0x18>
1a006110:	4620      	mov	r0, r4
1a006112:	b005      	add	sp, #20
1a006114:	e8bd 4030 	ldmia.w	sp!, {r4, r5, lr}
1a006118:	f7fe bd1a 	b.w	1a004b50 <__svfscanf_r>
1a00611c:	e9cd 2302 	strd	r2, r3, [sp, #8]
1a006120:	9101      	str	r1, [sp, #4]
1a006122:	f001 f929 	bl	1a007378 <__sinit>
1a006126:	e9dd 2302 	ldrd	r2, r3, [sp, #8]
1a00612a:	9901      	ldr	r1, [sp, #4]
1a00612c:	4620      	mov	r0, r4
1a00612e:	b005      	add	sp, #20
1a006130:	e8bd 4030 	ldmia.w	sp!, {r4, r5, lr}
1a006134:	f7fe bd0c 	b.w	1a004b50 <__svfscanf_r>

1a006138 <__swsetup_r>:
1a006138:	b538      	push	{r3, r4, r5, lr}
1a00613a:	4b31      	ldr	r3, [pc, #196]	; (1a006200 <__swsetup_r+0xc8>)
1a00613c:	681b      	ldr	r3, [r3, #0]
1a00613e:	4605      	mov	r5, r0
1a006140:	460c      	mov	r4, r1
1a006142:	b113      	cbz	r3, 1a00614a <__swsetup_r+0x12>
1a006144:	6b9a      	ldr	r2, [r3, #56]	; 0x38
1a006146:	2a00      	cmp	r2, #0
1a006148:	d03a      	beq.n	1a0061c0 <__swsetup_r+0x88>
1a00614a:	f9b4 200c 	ldrsh.w	r2, [r4, #12]
1a00614e:	b293      	uxth	r3, r2
1a006150:	0718      	lsls	r0, r3, #28
1a006152:	d50c      	bpl.n	1a00616e <__swsetup_r+0x36>
1a006154:	6920      	ldr	r0, [r4, #16]
1a006156:	b1a8      	cbz	r0, 1a006184 <__swsetup_r+0x4c>
1a006158:	f013 0201 	ands.w	r2, r3, #1
1a00615c:	d020      	beq.n	1a0061a0 <__swsetup_r+0x68>
1a00615e:	6963      	ldr	r3, [r4, #20]
1a006160:	2200      	movs	r2, #0
1a006162:	425b      	negs	r3, r3
1a006164:	61a3      	str	r3, [r4, #24]
1a006166:	60a2      	str	r2, [r4, #8]
1a006168:	b300      	cbz	r0, 1a0061ac <__swsetup_r+0x74>
1a00616a:	2000      	movs	r0, #0
1a00616c:	bd38      	pop	{r3, r4, r5, pc}
1a00616e:	06d9      	lsls	r1, r3, #27
1a006170:	d53e      	bpl.n	1a0061f0 <__swsetup_r+0xb8>
1a006172:	0758      	lsls	r0, r3, #29
1a006174:	d428      	bmi.n	1a0061c8 <__swsetup_r+0x90>
1a006176:	6920      	ldr	r0, [r4, #16]
1a006178:	f042 0308 	orr.w	r3, r2, #8
1a00617c:	81a3      	strh	r3, [r4, #12]
1a00617e:	b29b      	uxth	r3, r3
1a006180:	2800      	cmp	r0, #0
1a006182:	d1e9      	bne.n	1a006158 <__swsetup_r+0x20>
1a006184:	f403 7220 	and.w	r2, r3, #640	; 0x280
1a006188:	f5b2 7f00 	cmp.w	r2, #512	; 0x200
1a00618c:	d0e4      	beq.n	1a006158 <__swsetup_r+0x20>
1a00618e:	4628      	mov	r0, r5
1a006190:	4621      	mov	r1, r4
1a006192:	f001 fd89 	bl	1a007ca8 <__smakebuf_r>
1a006196:	89a3      	ldrh	r3, [r4, #12]
1a006198:	6920      	ldr	r0, [r4, #16]
1a00619a:	f013 0201 	ands.w	r2, r3, #1
1a00619e:	d1de      	bne.n	1a00615e <__swsetup_r+0x26>
1a0061a0:	0799      	lsls	r1, r3, #30
1a0061a2:	bf58      	it	pl
1a0061a4:	6962      	ldrpl	r2, [r4, #20]
1a0061a6:	60a2      	str	r2, [r4, #8]
1a0061a8:	2800      	cmp	r0, #0
1a0061aa:	d1de      	bne.n	1a00616a <__swsetup_r+0x32>
1a0061ac:	f9b4 300c 	ldrsh.w	r3, [r4, #12]
1a0061b0:	061a      	lsls	r2, r3, #24
1a0061b2:	d5db      	bpl.n	1a00616c <__swsetup_r+0x34>
1a0061b4:	f043 0340 	orr.w	r3, r3, #64	; 0x40
1a0061b8:	81a3      	strh	r3, [r4, #12]
1a0061ba:	f04f 30ff 	mov.w	r0, #4294967295	; 0xffffffff
1a0061be:	bd38      	pop	{r3, r4, r5, pc}
1a0061c0:	4618      	mov	r0, r3
1a0061c2:	f001 f8d9 	bl	1a007378 <__sinit>
1a0061c6:	e7c0      	b.n	1a00614a <__swsetup_r+0x12>
1a0061c8:	6b21      	ldr	r1, [r4, #48]	; 0x30
1a0061ca:	b151      	cbz	r1, 1a0061e2 <__swsetup_r+0xaa>
1a0061cc:	f104 0340 	add.w	r3, r4, #64	; 0x40
1a0061d0:	4299      	cmp	r1, r3
1a0061d2:	d004      	beq.n	1a0061de <__swsetup_r+0xa6>
1a0061d4:	4628      	mov	r0, r5
1a0061d6:	f001 fa31 	bl	1a00763c <_free_r>
1a0061da:	f9b4 200c 	ldrsh.w	r2, [r4, #12]
1a0061de:	2300      	movs	r3, #0
1a0061e0:	6323      	str	r3, [r4, #48]	; 0x30
1a0061e2:	2300      	movs	r3, #0
1a0061e4:	6920      	ldr	r0, [r4, #16]
1a0061e6:	6063      	str	r3, [r4, #4]
1a0061e8:	f022 0224 	bic.w	r2, r2, #36	; 0x24
1a0061ec:	6020      	str	r0, [r4, #0]
1a0061ee:	e7c3      	b.n	1a006178 <__swsetup_r+0x40>
1a0061f0:	f042 0240 	orr.w	r2, r2, #64	; 0x40
1a0061f4:	2309      	movs	r3, #9
1a0061f6:	602b      	str	r3, [r5, #0]
1a0061f8:	f04f 30ff 	mov.w	r0, #4294967295	; 0xffffffff
1a0061fc:	81a2      	strh	r2, [r4, #12]
1a0061fe:	bd38      	pop	{r3, r4, r5, pc}
1a006200:	10000048 	.word	0x10000048

1a006204 <quorem>:
1a006204:	e92d 4ff0 	stmdb	sp!, {r4, r5, r6, r7, r8, r9, sl, fp, lr}
1a006208:	6903      	ldr	r3, [r0, #16]
1a00620a:	690f      	ldr	r7, [r1, #16]
1a00620c:	42bb      	cmp	r3, r7
1a00620e:	b083      	sub	sp, #12
1a006210:	f2c0 8086 	blt.w	1a006320 <quorem+0x11c>
1a006214:	3f01      	subs	r7, #1
1a006216:	f101 0914 	add.w	r9, r1, #20
1a00621a:	f100 0a14 	add.w	sl, r0, #20
1a00621e:	f859 2027 	ldr.w	r2, [r9, r7, lsl #2]
1a006222:	f85a 3027 	ldr.w	r3, [sl, r7, lsl #2]
1a006226:	00bc      	lsls	r4, r7, #2
1a006228:	3201      	adds	r2, #1
1a00622a:	fbb3 f8f2 	udiv	r8, r3, r2
1a00622e:	eb0a 0304 	add.w	r3, sl, r4
1a006232:	9400      	str	r4, [sp, #0]
1a006234:	eb09 0b04 	add.w	fp, r9, r4
1a006238:	9301      	str	r3, [sp, #4]
1a00623a:	f1b8 0f00 	cmp.w	r8, #0
1a00623e:	d038      	beq.n	1a0062b2 <quorem+0xae>
1a006240:	2500      	movs	r5, #0
1a006242:	462e      	mov	r6, r5
1a006244:	46ce      	mov	lr, r9
1a006246:	46d4      	mov	ip, sl
1a006248:	f85e 4b04 	ldr.w	r4, [lr], #4
1a00624c:	f8dc 3000 	ldr.w	r3, [ip]
1a006250:	b2a2      	uxth	r2, r4
1a006252:	fb08 5502 	mla	r5, r8, r2, r5
1a006256:	0c22      	lsrs	r2, r4, #16
1a006258:	0c2c      	lsrs	r4, r5, #16
1a00625a:	fb08 4202 	mla	r2, r8, r2, r4
1a00625e:	b2ad      	uxth	r5, r5
1a006260:	1b75      	subs	r5, r6, r5
1a006262:	b296      	uxth	r6, r2
1a006264:	ebc6 4613 	rsb	r6, r6, r3, lsr #16
1a006268:	fa15 f383 	uxtah	r3, r5, r3
1a00626c:	eb06 4623 	add.w	r6, r6, r3, asr #16
1a006270:	b29b      	uxth	r3, r3
1a006272:	ea43 4306 	orr.w	r3, r3, r6, lsl #16
1a006276:	45f3      	cmp	fp, lr
1a006278:	ea4f 4512 	mov.w	r5, r2, lsr #16
1a00627c:	f84c 3b04 	str.w	r3, [ip], #4
1a006280:	ea4f 4626 	mov.w	r6, r6, asr #16
1a006284:	d2e0      	bcs.n	1a006248 <quorem+0x44>
1a006286:	9b00      	ldr	r3, [sp, #0]
1a006288:	f85a 3003 	ldr.w	r3, [sl, r3]
1a00628c:	b98b      	cbnz	r3, 1a0062b2 <quorem+0xae>
1a00628e:	9a01      	ldr	r2, [sp, #4]
1a006290:	1f13      	subs	r3, r2, #4
1a006292:	459a      	cmp	sl, r3
1a006294:	d20c      	bcs.n	1a0062b0 <quorem+0xac>
1a006296:	f852 3c04 	ldr.w	r3, [r2, #-4]
1a00629a:	b94b      	cbnz	r3, 1a0062b0 <quorem+0xac>
1a00629c:	f1a2 0308 	sub.w	r3, r2, #8
1a0062a0:	e002      	b.n	1a0062a8 <quorem+0xa4>
1a0062a2:	681a      	ldr	r2, [r3, #0]
1a0062a4:	3b04      	subs	r3, #4
1a0062a6:	b91a      	cbnz	r2, 1a0062b0 <quorem+0xac>
1a0062a8:	459a      	cmp	sl, r3
1a0062aa:	f107 37ff 	add.w	r7, r7, #4294967295	; 0xffffffff
1a0062ae:	d3f8      	bcc.n	1a0062a2 <quorem+0x9e>
1a0062b0:	6107      	str	r7, [r0, #16]
1a0062b2:	4604      	mov	r4, r0
1a0062b4:	f002 fb5e 	bl	1a008974 <__mcmp>
1a0062b8:	2800      	cmp	r0, #0
1a0062ba:	db2d      	blt.n	1a006318 <quorem+0x114>
1a0062bc:	f108 0801 	add.w	r8, r8, #1
1a0062c0:	4655      	mov	r5, sl
1a0062c2:	2300      	movs	r3, #0
1a0062c4:	f859 1b04 	ldr.w	r1, [r9], #4
1a0062c8:	6828      	ldr	r0, [r5, #0]
1a0062ca:	b28a      	uxth	r2, r1
1a0062cc:	1a9a      	subs	r2, r3, r2
1a0062ce:	0c0b      	lsrs	r3, r1, #16
1a0062d0:	fa12 f280 	uxtah	r2, r2, r0
1a0062d4:	ebc3 4310 	rsb	r3, r3, r0, lsr #16
1a0062d8:	eb03 4322 	add.w	r3, r3, r2, asr #16
1a0062dc:	b292      	uxth	r2, r2
1a0062de:	ea42 4203 	orr.w	r2, r2, r3, lsl #16
1a0062e2:	45cb      	cmp	fp, r9
1a0062e4:	f845 2b04 	str.w	r2, [r5], #4
1a0062e8:	ea4f 4323 	mov.w	r3, r3, asr #16
1a0062ec:	d2ea      	bcs.n	1a0062c4 <quorem+0xc0>
1a0062ee:	f85a 2027 	ldr.w	r2, [sl, r7, lsl #2]
1a0062f2:	eb0a 0387 	add.w	r3, sl, r7, lsl #2
1a0062f6:	b97a      	cbnz	r2, 1a006318 <quorem+0x114>
1a0062f8:	1f1a      	subs	r2, r3, #4
1a0062fa:	4592      	cmp	sl, r2
1a0062fc:	d20b      	bcs.n	1a006316 <quorem+0x112>
1a0062fe:	f853 2c04 	ldr.w	r2, [r3, #-4]
1a006302:	b942      	cbnz	r2, 1a006316 <quorem+0x112>
1a006304:	3b08      	subs	r3, #8
1a006306:	e002      	b.n	1a00630e <quorem+0x10a>
1a006308:	681a      	ldr	r2, [r3, #0]
1a00630a:	3b04      	subs	r3, #4
1a00630c:	b91a      	cbnz	r2, 1a006316 <quorem+0x112>
1a00630e:	459a      	cmp	sl, r3
1a006310:	f107 37ff 	add.w	r7, r7, #4294967295	; 0xffffffff
1a006314:	d3f8      	bcc.n	1a006308 <quorem+0x104>
1a006316:	6127      	str	r7, [r4, #16]
1a006318:	4640      	mov	r0, r8
1a00631a:	b003      	add	sp, #12
1a00631c:	e8bd 8ff0 	ldmia.w	sp!, {r4, r5, r6, r7, r8, r9, sl, fp, pc}
1a006320:	2000      	movs	r0, #0
1a006322:	b003      	add	sp, #12
1a006324:	e8bd 8ff0 	ldmia.w	sp!, {r4, r5, r6, r7, r8, r9, sl, fp, pc}

1a006328 <_dtoa_r>:
1a006328:	e92d 4ff0 	stmdb	sp!, {r4, r5, r6, r7, r8, r9, sl, fp, lr}
1a00632c:	ec55 4b10 	vmov	r4, r5, d0
1a006330:	b09b      	sub	sp, #108	; 0x6c
1a006332:	6c06      	ldr	r6, [r0, #64]	; 0x40
1a006334:	9102      	str	r1, [sp, #8]
1a006336:	4681      	mov	r9, r0
1a006338:	9207      	str	r2, [sp, #28]
1a00633a:	9305      	str	r3, [sp, #20]
1a00633c:	e9cd 4500 	strd	r4, r5, [sp]
1a006340:	b156      	cbz	r6, 1a006358 <_dtoa_r+0x30>
1a006342:	6c42      	ldr	r2, [r0, #68]	; 0x44
1a006344:	6072      	str	r2, [r6, #4]
1a006346:	2301      	movs	r3, #1
1a006348:	4093      	lsls	r3, r2
1a00634a:	60b3      	str	r3, [r6, #8]
1a00634c:	4631      	mov	r1, r6
1a00634e:	f002 f8d5 	bl	1a0084fc <_Bfree>
1a006352:	2300      	movs	r3, #0
1a006354:	f8c9 3040 	str.w	r3, [r9, #64]	; 0x40
1a006358:	f1b5 0800 	subs.w	r8, r5, #0
1a00635c:	9a24      	ldr	r2, [sp, #144]	; 0x90
1a00635e:	bfb4      	ite	lt
1a006360:	2301      	movlt	r3, #1
1a006362:	2300      	movge	r3, #0
1a006364:	6013      	str	r3, [r2, #0]
1a006366:	4b76      	ldr	r3, [pc, #472]	; (1a006540 <_dtoa_r+0x218>)
1a006368:	bfbc      	itt	lt
1a00636a:	f028 4800 	biclt.w	r8, r8, #2147483648	; 0x80000000
1a00636e:	f8cd 8004 	strlt.w	r8, [sp, #4]
1a006372:	ea33 0308 	bics.w	r3, r3, r8
1a006376:	f000 80a6 	beq.w	1a0064c6 <_dtoa_r+0x19e>
1a00637a:	e9dd 6700 	ldrd	r6, r7, [sp]
1a00637e:	2200      	movs	r2, #0
1a006380:	2300      	movs	r3, #0
1a006382:	4630      	mov	r0, r6
1a006384:	4639      	mov	r1, r7
1a006386:	f7fc f999 	bl	1a0026bc <__aeabi_dcmpeq>
1a00638a:	4605      	mov	r5, r0
1a00638c:	b178      	cbz	r0, 1a0063ae <_dtoa_r+0x86>
1a00638e:	9a05      	ldr	r2, [sp, #20]
1a006390:	2301      	movs	r3, #1
1a006392:	6013      	str	r3, [r2, #0]
1a006394:	9b25      	ldr	r3, [sp, #148]	; 0x94
1a006396:	2b00      	cmp	r3, #0
1a006398:	f000 80c0 	beq.w	1a00651c <_dtoa_r+0x1f4>
1a00639c:	4b69      	ldr	r3, [pc, #420]	; (1a006544 <_dtoa_r+0x21c>)
1a00639e:	9a25      	ldr	r2, [sp, #148]	; 0x94
1a0063a0:	f103 3bff 	add.w	fp, r3, #4294967295	; 0xffffffff
1a0063a4:	6013      	str	r3, [r2, #0]
1a0063a6:	4658      	mov	r0, fp
1a0063a8:	b01b      	add	sp, #108	; 0x6c
1a0063aa:	e8bd 8ff0 	ldmia.w	sp!, {r4, r5, r6, r7, r8, r9, sl, fp, pc}
1a0063ae:	aa18      	add	r2, sp, #96	; 0x60
1a0063b0:	a919      	add	r1, sp, #100	; 0x64
1a0063b2:	ec47 6b10 	vmov	d0, r6, r7
1a0063b6:	4648      	mov	r0, r9
1a0063b8:	f002 fbf6 	bl	1a008ba8 <__d2b>
1a0063bc:	ea5f 5418 	movs.w	r4, r8, lsr #20
1a0063c0:	4682      	mov	sl, r0
1a0063c2:	f040 80a0 	bne.w	1a006506 <_dtoa_r+0x1de>
1a0063c6:	e9dd 5418 	ldrd	r5, r4, [sp, #96]	; 0x60
1a0063ca:	442c      	add	r4, r5
1a0063cc:	f204 4332 	addw	r3, r4, #1074	; 0x432
1a0063d0:	2b20      	cmp	r3, #32
1a0063d2:	f340 842c 	ble.w	1a006c2e <_dtoa_r+0x906>
1a0063d6:	f1c3 0340 	rsb	r3, r3, #64	; 0x40
1a0063da:	fa08 f803 	lsl.w	r8, r8, r3
1a0063de:	9b00      	ldr	r3, [sp, #0]
1a0063e0:	f204 4012 	addw	r0, r4, #1042	; 0x412
1a0063e4:	fa23 f000 	lsr.w	r0, r3, r0
1a0063e8:	ea48 0000 	orr.w	r0, r8, r0
1a0063ec:	f7fb fe84 	bl	1a0020f8 <__aeabi_ui2d>
1a0063f0:	2301      	movs	r3, #1
1a0063f2:	4606      	mov	r6, r0
1a0063f4:	3c01      	subs	r4, #1
1a0063f6:	f1a1 77f8 	sub.w	r7, r1, #32505856	; 0x1f00000
1a0063fa:	930f      	str	r3, [sp, #60]	; 0x3c
1a0063fc:	4630      	mov	r0, r6
1a0063fe:	4639      	mov	r1, r7
1a006400:	2200      	movs	r2, #0
1a006402:	4b51      	ldr	r3, [pc, #324]	; (1a006548 <_dtoa_r+0x220>)
1a006404:	f7fb fd3a 	bl	1a001e7c <__aeabi_dsub>
1a006408:	a347      	add	r3, pc, #284	; (adr r3, 1a006528 <_dtoa_r+0x200>)
1a00640a:	e9d3 2300 	ldrd	r2, r3, [r3]
1a00640e:	f7fb feed 	bl	1a0021ec <__aeabi_dmul>
1a006412:	a347      	add	r3, pc, #284	; (adr r3, 1a006530 <_dtoa_r+0x208>)
1a006414:	e9d3 2300 	ldrd	r2, r3, [r3]
1a006418:	f7fb fd32 	bl	1a001e80 <__adddf3>
1a00641c:	4606      	mov	r6, r0
1a00641e:	4620      	mov	r0, r4
1a006420:	460f      	mov	r7, r1
1a006422:	f7fb fe79 	bl	1a002118 <__aeabi_i2d>
1a006426:	a344      	add	r3, pc, #272	; (adr r3, 1a006538 <_dtoa_r+0x210>)
1a006428:	e9d3 2300 	ldrd	r2, r3, [r3]
1a00642c:	f7fb fede 	bl	1a0021ec <__aeabi_dmul>
1a006430:	4602      	mov	r2, r0
1a006432:	460b      	mov	r3, r1
1a006434:	4630      	mov	r0, r6
1a006436:	4639      	mov	r1, r7
1a006438:	f7fb fd22 	bl	1a001e80 <__adddf3>
1a00643c:	4606      	mov	r6, r0
1a00643e:	460f      	mov	r7, r1
1a006440:	f006 fe8e 	bl	1a00d160 <__aeabi_d2iz>
1a006444:	2200      	movs	r2, #0
1a006446:	9006      	str	r0, [sp, #24]
1a006448:	2300      	movs	r3, #0
1a00644a:	4630      	mov	r0, r6
1a00644c:	4639      	mov	r1, r7
1a00644e:	f7fc f93f 	bl	1a0026d0 <__aeabi_dcmplt>
1a006452:	2800      	cmp	r0, #0
1a006454:	f040 8273 	bne.w	1a00693e <_dtoa_r+0x616>
1a006458:	9e06      	ldr	r6, [sp, #24]
1a00645a:	2e16      	cmp	r6, #22
1a00645c:	f200 825d 	bhi.w	1a00691a <_dtoa_r+0x5f2>
1a006460:	4b3a      	ldr	r3, [pc, #232]	; (1a00654c <_dtoa_r+0x224>)
1a006462:	eb03 03c6 	add.w	r3, r3, r6, lsl #3
1a006466:	e9d3 0100 	ldrd	r0, r1, [r3]
1a00646a:	e9dd 2300 	ldrd	r2, r3, [sp]
1a00646e:	f7fc f94d 	bl	1a00270c <__aeabi_dcmpgt>
1a006472:	2800      	cmp	r0, #0
1a006474:	f000 83d7 	beq.w	1a006c26 <_dtoa_r+0x8fe>
1a006478:	1e73      	subs	r3, r6, #1
1a00647a:	9306      	str	r3, [sp, #24]
1a00647c:	2300      	movs	r3, #0
1a00647e:	930d      	str	r3, [sp, #52]	; 0x34
1a006480:	1b2c      	subs	r4, r5, r4
1a006482:	f1b4 0801 	subs.w	r8, r4, #1
1a006486:	f100 8254 	bmi.w	1a006932 <_dtoa_r+0x60a>
1a00648a:	2300      	movs	r3, #0
1a00648c:	9308      	str	r3, [sp, #32]
1a00648e:	9b06      	ldr	r3, [sp, #24]
1a006490:	2b00      	cmp	r3, #0
1a006492:	f2c0 8245 	blt.w	1a006920 <_dtoa_r+0x5f8>
1a006496:	4498      	add	r8, r3
1a006498:	930c      	str	r3, [sp, #48]	; 0x30
1a00649a:	2300      	movs	r3, #0
1a00649c:	930b      	str	r3, [sp, #44]	; 0x2c
1a00649e:	9b02      	ldr	r3, [sp, #8]
1a0064a0:	2b09      	cmp	r3, #9
1a0064a2:	d85b      	bhi.n	1a00655c <_dtoa_r+0x234>
1a0064a4:	2b05      	cmp	r3, #5
1a0064a6:	f340 83c0 	ble.w	1a006c2a <_dtoa_r+0x902>
1a0064aa:	3b04      	subs	r3, #4
1a0064ac:	9302      	str	r3, [sp, #8]
1a0064ae:	2500      	movs	r5, #0
1a0064b0:	9b02      	ldr	r3, [sp, #8]
1a0064b2:	3b02      	subs	r3, #2
1a0064b4:	2b03      	cmp	r3, #3
1a0064b6:	f200 8498 	bhi.w	1a006dea <_dtoa_r+0xac2>
1a0064ba:	e8df f013 	tbh	[pc, r3, lsl #1]
1a0064be:	03df      	.short	0x03df
1a0064c0:	03e803bf 	.word	0x03e803bf
1a0064c4:	04f5      	.short	0x04f5
1a0064c6:	9a05      	ldr	r2, [sp, #20]
1a0064c8:	f242 730f 	movw	r3, #9999	; 0x270f
1a0064cc:	6013      	str	r3, [r2, #0]
1a0064ce:	9b00      	ldr	r3, [sp, #0]
1a0064d0:	b983      	cbnz	r3, 1a0064f4 <_dtoa_r+0x1cc>
1a0064d2:	f3c8 0313 	ubfx	r3, r8, #0, #20
1a0064d6:	b96b      	cbnz	r3, 1a0064f4 <_dtoa_r+0x1cc>
1a0064d8:	9b25      	ldr	r3, [sp, #148]	; 0x94
1a0064da:	f8df b074 	ldr.w	fp, [pc, #116]	; 1a006550 <_dtoa_r+0x228>
1a0064de:	2b00      	cmp	r3, #0
1a0064e0:	f43f af61 	beq.w	1a0063a6 <_dtoa_r+0x7e>
1a0064e4:	f10b 0308 	add.w	r3, fp, #8
1a0064e8:	9a25      	ldr	r2, [sp, #148]	; 0x94
1a0064ea:	4658      	mov	r0, fp
1a0064ec:	6013      	str	r3, [r2, #0]
1a0064ee:	b01b      	add	sp, #108	; 0x6c
1a0064f0:	e8bd 8ff0 	ldmia.w	sp!, {r4, r5, r6, r7, r8, r9, sl, fp, pc}
1a0064f4:	9b25      	ldr	r3, [sp, #148]	; 0x94
1a0064f6:	f8df b05c 	ldr.w	fp, [pc, #92]	; 1a006554 <_dtoa_r+0x22c>
1a0064fa:	2b00      	cmp	r3, #0
1a0064fc:	f43f af53 	beq.w	1a0063a6 <_dtoa_r+0x7e>
1a006500:	f10b 0303 	add.w	r3, fp, #3
1a006504:	e7f0      	b.n	1a0064e8 <_dtoa_r+0x1c0>
1a006506:	f3c7 0313 	ubfx	r3, r7, #0, #20
1a00650a:	f043 577f 	orr.w	r7, r3, #1069547520	; 0x3fc00000
1a00650e:	950f      	str	r5, [sp, #60]	; 0x3c
1a006510:	f2a4 34ff 	subw	r4, r4, #1023	; 0x3ff
1a006514:	f447 1740 	orr.w	r7, r7, #3145728	; 0x300000
1a006518:	9d18      	ldr	r5, [sp, #96]	; 0x60
1a00651a:	e76f      	b.n	1a0063fc <_dtoa_r+0xd4>
1a00651c:	f8df b038 	ldr.w	fp, [pc, #56]	; 1a006558 <_dtoa_r+0x230>
1a006520:	4658      	mov	r0, fp
1a006522:	b01b      	add	sp, #108	; 0x6c
1a006524:	e8bd 8ff0 	ldmia.w	sp!, {r4, r5, r6, r7, r8, r9, sl, fp, pc}
1a006528:	636f4361 	.word	0x636f4361
1a00652c:	3fd287a7 	.word	0x3fd287a7
1a006530:	8b60c8b3 	.word	0x8b60c8b3
1a006534:	3fc68a28 	.word	0x3fc68a28
1a006538:	509f79fb 	.word	0x509f79fb
1a00653c:	3fd34413 	.word	0x3fd34413
1a006540:	7ff00000 	.word	0x7ff00000
1a006544:	1a00d781 	.word	0x1a00d781
1a006548:	3ff80000 	.word	0x3ff80000
1a00654c:	1a00d820 	.word	0x1a00d820
1a006550:	1a00d7d0 	.word	0x1a00d7d0
1a006554:	1a00d7dc 	.word	0x1a00d7dc
1a006558:	1a00d780 	.word	0x1a00d780
1a00655c:	f04f 34ff 	mov.w	r4, #4294967295	; 0xffffffff
1a006560:	2501      	movs	r5, #1
1a006562:	e9cd 4509 	strd	r4, r5, [sp, #36]	; 0x24
1a006566:	2300      	movs	r3, #0
1a006568:	9302      	str	r3, [sp, #8]
1a00656a:	9307      	str	r3, [sp, #28]
1a00656c:	2100      	movs	r1, #0
1a00656e:	f8c9 1044 	str.w	r1, [r9, #68]	; 0x44
1a006572:	940e      	str	r4, [sp, #56]	; 0x38
1a006574:	4648      	mov	r0, r9
1a006576:	f001 ff9b 	bl	1a0084b0 <_Balloc>
1a00657a:	2c0e      	cmp	r4, #14
1a00657c:	4683      	mov	fp, r0
1a00657e:	f8c9 0040 	str.w	r0, [r9, #64]	; 0x40
1a006582:	f200 80fb 	bhi.w	1a00677c <_dtoa_r+0x454>
1a006586:	2d00      	cmp	r5, #0
1a006588:	f000 80f8 	beq.w	1a00677c <_dtoa_r+0x454>
1a00658c:	ed9d 7b00 	vldr	d7, [sp]
1a006590:	9906      	ldr	r1, [sp, #24]
1a006592:	2900      	cmp	r1, #0
1a006594:	ed8d 7b10 	vstr	d7, [sp, #64]	; 0x40
1a006598:	f340 83e5 	ble.w	1a006d66 <_dtoa_r+0xa3e>
1a00659c:	4b9d      	ldr	r3, [pc, #628]	; (1a006814 <_dtoa_r+0x4ec>)
1a00659e:	f001 020f 	and.w	r2, r1, #15
1a0065a2:	eb03 03c2 	add.w	r3, r3, r2, lsl #3
1a0065a6:	ed93 7b00 	vldr	d7, [r3]
1a0065aa:	110c      	asrs	r4, r1, #4
1a0065ac:	06e2      	lsls	r2, r4, #27
1a0065ae:	ed8d 7b00 	vstr	d7, [sp]
1a0065b2:	f140 849e 	bpl.w	1a006ef2 <_dtoa_r+0xbca>
1a0065b6:	4b98      	ldr	r3, [pc, #608]	; (1a006818 <_dtoa_r+0x4f0>)
1a0065b8:	e9dd 0110 	ldrd	r0, r1, [sp, #64]	; 0x40
1a0065bc:	e9d3 2308 	ldrd	r2, r3, [r3, #32]
1a0065c0:	f7fb ff3e 	bl	1a002440 <__aeabi_ddiv>
1a0065c4:	e9cd 0112 	strd	r0, r1, [sp, #72]	; 0x48
1a0065c8:	f004 040f 	and.w	r4, r4, #15
1a0065cc:	2603      	movs	r6, #3
1a0065ce:	b17c      	cbz	r4, 1a0065f0 <_dtoa_r+0x2c8>
1a0065d0:	e9dd 0100 	ldrd	r0, r1, [sp]
1a0065d4:	4d90      	ldr	r5, [pc, #576]	; (1a006818 <_dtoa_r+0x4f0>)
1a0065d6:	07e3      	lsls	r3, r4, #31
1a0065d8:	d504      	bpl.n	1a0065e4 <_dtoa_r+0x2bc>
1a0065da:	e9d5 2300 	ldrd	r2, r3, [r5]
1a0065de:	f7fb fe05 	bl	1a0021ec <__aeabi_dmul>
1a0065e2:	3601      	adds	r6, #1
1a0065e4:	1064      	asrs	r4, r4, #1
1a0065e6:	f105 0508 	add.w	r5, r5, #8
1a0065ea:	d1f4      	bne.n	1a0065d6 <_dtoa_r+0x2ae>
1a0065ec:	e9cd 0100 	strd	r0, r1, [sp]
1a0065f0:	e9dd 2300 	ldrd	r2, r3, [sp]
1a0065f4:	e9dd 0112 	ldrd	r0, r1, [sp, #72]	; 0x48
1a0065f8:	f7fb ff22 	bl	1a002440 <__aeabi_ddiv>
1a0065fc:	e9cd 0100 	strd	r0, r1, [sp]
1a006600:	9b0d      	ldr	r3, [sp, #52]	; 0x34
1a006602:	b143      	cbz	r3, 1a006616 <_dtoa_r+0x2ee>
1a006604:	2200      	movs	r2, #0
1a006606:	4b85      	ldr	r3, [pc, #532]	; (1a00681c <_dtoa_r+0x4f4>)
1a006608:	e9dd 0100 	ldrd	r0, r1, [sp]
1a00660c:	f7fc f860 	bl	1a0026d0 <__aeabi_dcmplt>
1a006610:	2800      	cmp	r0, #0
1a006612:	f040 84ff 	bne.w	1a007014 <_dtoa_r+0xcec>
1a006616:	4630      	mov	r0, r6
1a006618:	f7fb fd7e 	bl	1a002118 <__aeabi_i2d>
1a00661c:	e9dd 2300 	ldrd	r2, r3, [sp]
1a006620:	f7fb fde4 	bl	1a0021ec <__aeabi_dmul>
1a006624:	4b7e      	ldr	r3, [pc, #504]	; (1a006820 <_dtoa_r+0x4f8>)
1a006626:	2200      	movs	r2, #0
1a006628:	f7fb fc2a 	bl	1a001e80 <__adddf3>
1a00662c:	9b09      	ldr	r3, [sp, #36]	; 0x24
1a00662e:	4606      	mov	r6, r0
1a006630:	f1a1 7750 	sub.w	r7, r1, #54525952	; 0x3400000
1a006634:	2b00      	cmp	r3, #0
1a006636:	f000 841c 	beq.w	1a006e72 <_dtoa_r+0xb4a>
1a00663a:	9b06      	ldr	r3, [sp, #24]
1a00663c:	9316      	str	r3, [sp, #88]	; 0x58
1a00663e:	9b09      	ldr	r3, [sp, #36]	; 0x24
1a006640:	9312      	str	r3, [sp, #72]	; 0x48
1a006642:	e9dd 0100 	ldrd	r0, r1, [sp]
1a006646:	f006 fd8b 	bl	1a00d160 <__aeabi_d2iz>
1a00664a:	9a12      	ldr	r2, [sp, #72]	; 0x48
1a00664c:	4b71      	ldr	r3, [pc, #452]	; (1a006814 <_dtoa_r+0x4ec>)
1a00664e:	eb03 03c2 	add.w	r3, r3, r2, lsl #3
1a006652:	ed13 7b02 	vldr	d7, [r3, #-8]
1a006656:	f100 0530 	add.w	r5, r0, #48	; 0x30
1a00665a:	ed8d 7b14 	vstr	d7, [sp, #80]	; 0x50
1a00665e:	f7fb fd5b 	bl	1a002118 <__aeabi_i2d>
1a006662:	460b      	mov	r3, r1
1a006664:	4602      	mov	r2, r0
1a006666:	e9dd 0100 	ldrd	r0, r1, [sp]
1a00666a:	e9cd 6700 	strd	r6, r7, [sp]
1a00666e:	f7fb fc05 	bl	1a001e7c <__aeabi_dsub>
1a006672:	9b0a      	ldr	r3, [sp, #40]	; 0x28
1a006674:	b2ed      	uxtb	r5, r5
1a006676:	4606      	mov	r6, r0
1a006678:	460f      	mov	r7, r1
1a00667a:	f10b 0401 	add.w	r4, fp, #1
1a00667e:	2b00      	cmp	r3, #0
1a006680:	f000 8458 	beq.w	1a006f34 <_dtoa_r+0xc0c>
1a006684:	e9dd 2314 	ldrd	r2, r3, [sp, #80]	; 0x50
1a006688:	2000      	movs	r0, #0
1a00668a:	4966      	ldr	r1, [pc, #408]	; (1a006824 <_dtoa_r+0x4fc>)
1a00668c:	f7fb fed8 	bl	1a002440 <__aeabi_ddiv>
1a006690:	e9dd 2300 	ldrd	r2, r3, [sp]
1a006694:	f7fb fbf2 	bl	1a001e7c <__aeabi_dsub>
1a006698:	f88b 5000 	strb.w	r5, [fp]
1a00669c:	4632      	mov	r2, r6
1a00669e:	463b      	mov	r3, r7
1a0066a0:	e9cd 0100 	strd	r0, r1, [sp]
1a0066a4:	f7fc f832 	bl	1a00270c <__aeabi_dcmpgt>
1a0066a8:	2800      	cmp	r0, #0
1a0066aa:	f040 8502 	bne.w	1a0070b2 <_dtoa_r+0xd8a>
1a0066ae:	4632      	mov	r2, r6
1a0066b0:	463b      	mov	r3, r7
1a0066b2:	2000      	movs	r0, #0
1a0066b4:	4959      	ldr	r1, [pc, #356]	; (1a00681c <_dtoa_r+0x4f4>)
1a0066b6:	f7fb fbe1 	bl	1a001e7c <__aeabi_dsub>
1a0066ba:	4602      	mov	r2, r0
1a0066bc:	460b      	mov	r3, r1
1a0066be:	e9dd 0100 	ldrd	r0, r1, [sp]
1a0066c2:	f7fc f823 	bl	1a00270c <__aeabi_dcmpgt>
1a0066c6:	2800      	cmp	r0, #0
1a0066c8:	f040 84fb 	bne.w	1a0070c2 <_dtoa_r+0xd9a>
1a0066cc:	9a12      	ldr	r2, [sp, #72]	; 0x48
1a0066ce:	2a01      	cmp	r2, #1
1a0066d0:	d050      	beq.n	1a006774 <_dtoa_r+0x44c>
1a0066d2:	445a      	add	r2, fp
1a0066d4:	f8cd 805c 	str.w	r8, [sp, #92]	; 0x5c
1a0066d8:	f8cd a048 	str.w	sl, [sp, #72]	; 0x48
1a0066dc:	f8cd b050 	str.w	fp, [sp, #80]	; 0x50
1a0066e0:	4692      	mov	sl, r2
1a0066e2:	46cb      	mov	fp, r9
1a0066e4:	e9dd 8900 	ldrd	r8, r9, [sp]
1a0066e8:	e00c      	b.n	1a006704 <_dtoa_r+0x3dc>
1a0066ea:	2000      	movs	r0, #0
1a0066ec:	494b      	ldr	r1, [pc, #300]	; (1a00681c <_dtoa_r+0x4f4>)
1a0066ee:	f7fb fbc5 	bl	1a001e7c <__aeabi_dsub>
1a0066f2:	4642      	mov	r2, r8
1a0066f4:	464b      	mov	r3, r9
1a0066f6:	f7fb ffeb 	bl	1a0026d0 <__aeabi_dcmplt>
1a0066fa:	2800      	cmp	r0, #0
1a0066fc:	f040 84dc 	bne.w	1a0070b8 <_dtoa_r+0xd90>
1a006700:	4554      	cmp	r4, sl
1a006702:	d030      	beq.n	1a006766 <_dtoa_r+0x43e>
1a006704:	4640      	mov	r0, r8
1a006706:	4649      	mov	r1, r9
1a006708:	2200      	movs	r2, #0
1a00670a:	4b47      	ldr	r3, [pc, #284]	; (1a006828 <_dtoa_r+0x500>)
1a00670c:	f7fb fd6e 	bl	1a0021ec <__aeabi_dmul>
1a006710:	2200      	movs	r2, #0
1a006712:	4b45      	ldr	r3, [pc, #276]	; (1a006828 <_dtoa_r+0x500>)
1a006714:	4680      	mov	r8, r0
1a006716:	4689      	mov	r9, r1
1a006718:	4630      	mov	r0, r6
1a00671a:	4639      	mov	r1, r7
1a00671c:	f7fb fd66 	bl	1a0021ec <__aeabi_dmul>
1a006720:	460f      	mov	r7, r1
1a006722:	4606      	mov	r6, r0
1a006724:	f006 fd1c 	bl	1a00d160 <__aeabi_d2iz>
1a006728:	4605      	mov	r5, r0
1a00672a:	f7fb fcf5 	bl	1a002118 <__aeabi_i2d>
1a00672e:	4602      	mov	r2, r0
1a006730:	460b      	mov	r3, r1
1a006732:	4630      	mov	r0, r6
1a006734:	4639      	mov	r1, r7
1a006736:	f7fb fba1 	bl	1a001e7c <__aeabi_dsub>
1a00673a:	3530      	adds	r5, #48	; 0x30
1a00673c:	b2ed      	uxtb	r5, r5
1a00673e:	4642      	mov	r2, r8
1a006740:	464b      	mov	r3, r9
1a006742:	f804 5b01 	strb.w	r5, [r4], #1
1a006746:	4606      	mov	r6, r0
1a006748:	460f      	mov	r7, r1
1a00674a:	f7fb ffc1 	bl	1a0026d0 <__aeabi_dcmplt>
1a00674e:	4632      	mov	r2, r6
1a006750:	463b      	mov	r3, r7
1a006752:	2800      	cmp	r0, #0
1a006754:	d0c9      	beq.n	1a0066ea <_dtoa_r+0x3c2>
1a006756:	9b16      	ldr	r3, [sp, #88]	; 0x58
1a006758:	f8dd a048 	ldr.w	sl, [sp, #72]	; 0x48
1a00675c:	9306      	str	r3, [sp, #24]
1a00675e:	46d9      	mov	r9, fp
1a006760:	f8dd b050 	ldr.w	fp, [sp, #80]	; 0x50
1a006764:	e236      	b.n	1a006bd4 <_dtoa_r+0x8ac>
1a006766:	46d9      	mov	r9, fp
1a006768:	f8dd 805c 	ldr.w	r8, [sp, #92]	; 0x5c
1a00676c:	f8dd a048 	ldr.w	sl, [sp, #72]	; 0x48
1a006770:	f8dd b050 	ldr.w	fp, [sp, #80]	; 0x50
1a006774:	e9dd 3410 	ldrd	r3, r4, [sp, #64]	; 0x40
1a006778:	e9cd 3400 	strd	r3, r4, [sp]
1a00677c:	9b19      	ldr	r3, [sp, #100]	; 0x64
1a00677e:	2b00      	cmp	r3, #0
1a006780:	f2c0 80ae 	blt.w	1a0068e0 <_dtoa_r+0x5b8>
1a006784:	9a06      	ldr	r2, [sp, #24]
1a006786:	2a0e      	cmp	r2, #14
1a006788:	f300 80aa 	bgt.w	1a0068e0 <_dtoa_r+0x5b8>
1a00678c:	4b21      	ldr	r3, [pc, #132]	; (1a006814 <_dtoa_r+0x4ec>)
1a00678e:	eb03 03c2 	add.w	r3, r3, r2, lsl #3
1a006792:	ed93 7b00 	vldr	d7, [r3]
1a006796:	9b07      	ldr	r3, [sp, #28]
1a006798:	2b00      	cmp	r3, #0
1a00679a:	ed8d 7b02 	vstr	d7, [sp, #8]
1a00679e:	f2c0 82be 	blt.w	1a006d1e <_dtoa_r+0x9f6>
1a0067a2:	e9dd 6700 	ldrd	r6, r7, [sp]
1a0067a6:	e9dd 2302 	ldrd	r2, r3, [sp, #8]
1a0067aa:	4630      	mov	r0, r6
1a0067ac:	4639      	mov	r1, r7
1a0067ae:	f7fb fe47 	bl	1a002440 <__aeabi_ddiv>
1a0067b2:	f006 fcd5 	bl	1a00d160 <__aeabi_d2iz>
1a0067b6:	4605      	mov	r5, r0
1a0067b8:	f7fb fcae 	bl	1a002118 <__aeabi_i2d>
1a0067bc:	e9dd 2302 	ldrd	r2, r3, [sp, #8]
1a0067c0:	f7fb fd14 	bl	1a0021ec <__aeabi_dmul>
1a0067c4:	460b      	mov	r3, r1
1a0067c6:	4602      	mov	r2, r0
1a0067c8:	4639      	mov	r1, r7
1a0067ca:	4630      	mov	r0, r6
1a0067cc:	f7fb fb56 	bl	1a001e7c <__aeabi_dsub>
1a0067d0:	f105 0330 	add.w	r3, r5, #48	; 0x30
1a0067d4:	f88b 3000 	strb.w	r3, [fp]
1a0067d8:	9b09      	ldr	r3, [sp, #36]	; 0x24
1a0067da:	2b01      	cmp	r3, #1
1a0067dc:	4606      	mov	r6, r0
1a0067de:	460f      	mov	r7, r1
1a0067e0:	f10b 0401 	add.w	r4, fp, #1
1a0067e4:	d053      	beq.n	1a00688e <_dtoa_r+0x566>
1a0067e6:	2200      	movs	r2, #0
1a0067e8:	4b0f      	ldr	r3, [pc, #60]	; (1a006828 <_dtoa_r+0x500>)
1a0067ea:	f7fb fcff 	bl	1a0021ec <__aeabi_dmul>
1a0067ee:	2200      	movs	r2, #0
1a0067f0:	2300      	movs	r3, #0
1a0067f2:	4606      	mov	r6, r0
1a0067f4:	460f      	mov	r7, r1
1a0067f6:	f7fb ff61 	bl	1a0026bc <__aeabi_dcmpeq>
1a0067fa:	2800      	cmp	r0, #0
1a0067fc:	f040 81ea 	bne.w	1a006bd4 <_dtoa_r+0x8ac>
1a006800:	f8cd a000 	str.w	sl, [sp]
1a006804:	f8cd 901c 	str.w	r9, [sp, #28]
1a006808:	f8dd 8024 	ldr.w	r8, [sp, #36]	; 0x24
1a00680c:	e9dd 9a02 	ldrd	r9, sl, [sp, #8]
1a006810:	e017      	b.n	1a006842 <_dtoa_r+0x51a>
1a006812:	bf00      	nop
1a006814:	1a00d820 	.word	0x1a00d820
1a006818:	1a00d7f8 	.word	0x1a00d7f8
1a00681c:	3ff00000 	.word	0x3ff00000
1a006820:	401c0000 	.word	0x401c0000
1a006824:	3fe00000 	.word	0x3fe00000
1a006828:	40240000 	.word	0x40240000
1a00682c:	f7fb fcde 	bl	1a0021ec <__aeabi_dmul>
1a006830:	2200      	movs	r2, #0
1a006832:	2300      	movs	r3, #0
1a006834:	4606      	mov	r6, r0
1a006836:	460f      	mov	r7, r1
1a006838:	f7fb ff40 	bl	1a0026bc <__aeabi_dcmpeq>
1a00683c:	2800      	cmp	r0, #0
1a00683e:	f040 833d 	bne.w	1a006ebc <_dtoa_r+0xb94>
1a006842:	464a      	mov	r2, r9
1a006844:	4653      	mov	r3, sl
1a006846:	4630      	mov	r0, r6
1a006848:	4639      	mov	r1, r7
1a00684a:	f7fb fdf9 	bl	1a002440 <__aeabi_ddiv>
1a00684e:	f006 fc87 	bl	1a00d160 <__aeabi_d2iz>
1a006852:	4605      	mov	r5, r0
1a006854:	f7fb fc60 	bl	1a002118 <__aeabi_i2d>
1a006858:	464a      	mov	r2, r9
1a00685a:	4653      	mov	r3, sl
1a00685c:	f7fb fcc6 	bl	1a0021ec <__aeabi_dmul>
1a006860:	4602      	mov	r2, r0
1a006862:	460b      	mov	r3, r1
1a006864:	4630      	mov	r0, r6
1a006866:	4639      	mov	r1, r7
1a006868:	f7fb fb08 	bl	1a001e7c <__aeabi_dsub>
1a00686c:	f105 0c30 	add.w	ip, r5, #48	; 0x30
1a006870:	f804 cb01 	strb.w	ip, [r4], #1
1a006874:	eba4 0c0b 	sub.w	ip, r4, fp
1a006878:	45e0      	cmp	r8, ip
1a00687a:	4606      	mov	r6, r0
1a00687c:	460f      	mov	r7, r1
1a00687e:	f04f 0200 	mov.w	r2, #0
1a006882:	4bc1      	ldr	r3, [pc, #772]	; (1a006b88 <_dtoa_r+0x860>)
1a006884:	d1d2      	bne.n	1a00682c <_dtoa_r+0x504>
1a006886:	f8dd a000 	ldr.w	sl, [sp]
1a00688a:	f8dd 901c 	ldr.w	r9, [sp, #28]
1a00688e:	4632      	mov	r2, r6
1a006890:	463b      	mov	r3, r7
1a006892:	4630      	mov	r0, r6
1a006894:	4639      	mov	r1, r7
1a006896:	f7fb faf3 	bl	1a001e80 <__adddf3>
1a00689a:	e9dd 2302 	ldrd	r2, r3, [sp, #8]
1a00689e:	4606      	mov	r6, r0
1a0068a0:	460f      	mov	r7, r1
1a0068a2:	f7fb ff33 	bl	1a00270c <__aeabi_dcmpgt>
1a0068a6:	b958      	cbnz	r0, 1a0068c0 <_dtoa_r+0x598>
1a0068a8:	e9dd 2302 	ldrd	r2, r3, [sp, #8]
1a0068ac:	4630      	mov	r0, r6
1a0068ae:	4639      	mov	r1, r7
1a0068b0:	f7fb ff04 	bl	1a0026bc <__aeabi_dcmpeq>
1a0068b4:	2800      	cmp	r0, #0
1a0068b6:	f000 818d 	beq.w	1a006bd4 <_dtoa_r+0x8ac>
1a0068ba:	07e9      	lsls	r1, r5, #31
1a0068bc:	f140 818a 	bpl.w	1a006bd4 <_dtoa_r+0x8ac>
1a0068c0:	f814 5c01 	ldrb.w	r5, [r4, #-1]
1a0068c4:	e005      	b.n	1a0068d2 <_dtoa_r+0x5aa>
1a0068c6:	459b      	cmp	fp, r3
1a0068c8:	f000 8373 	beq.w	1a006fb2 <_dtoa_r+0xc8a>
1a0068cc:	f813 5c01 	ldrb.w	r5, [r3, #-1]
1a0068d0:	461c      	mov	r4, r3
1a0068d2:	2d39      	cmp	r5, #57	; 0x39
1a0068d4:	f104 33ff 	add.w	r3, r4, #4294967295	; 0xffffffff
1a0068d8:	d0f5      	beq.n	1a0068c6 <_dtoa_r+0x59e>
1a0068da:	3501      	adds	r5, #1
1a0068dc:	701d      	strb	r5, [r3, #0]
1a0068de:	e179      	b.n	1a006bd4 <_dtoa_r+0x8ac>
1a0068e0:	9a0a      	ldr	r2, [sp, #40]	; 0x28
1a0068e2:	2a00      	cmp	r2, #0
1a0068e4:	d03b      	beq.n	1a00695e <_dtoa_r+0x636>
1a0068e6:	9a02      	ldr	r2, [sp, #8]
1a0068e8:	2a01      	cmp	r2, #1
1a0068ea:	f340 820b 	ble.w	1a006d04 <_dtoa_r+0x9dc>
1a0068ee:	9b09      	ldr	r3, [sp, #36]	; 0x24
1a0068f0:	1e5f      	subs	r7, r3, #1
1a0068f2:	9b0b      	ldr	r3, [sp, #44]	; 0x2c
1a0068f4:	42bb      	cmp	r3, r7
1a0068f6:	f2c0 82e6 	blt.w	1a006ec6 <_dtoa_r+0xb9e>
1a0068fa:	1bdf      	subs	r7, r3, r7
1a0068fc:	9b09      	ldr	r3, [sp, #36]	; 0x24
1a0068fe:	2b00      	cmp	r3, #0
1a006900:	f2c0 830b 	blt.w	1a006f1a <_dtoa_r+0xbf2>
1a006904:	9a08      	ldr	r2, [sp, #32]
1a006906:	4614      	mov	r4, r2
1a006908:	441a      	add	r2, r3
1a00690a:	4498      	add	r8, r3
1a00690c:	9208      	str	r2, [sp, #32]
1a00690e:	2101      	movs	r1, #1
1a006910:	4648      	mov	r0, r9
1a006912:	f001 fed9 	bl	1a0086c8 <__i2b>
1a006916:	4605      	mov	r5, r0
1a006918:	e024      	b.n	1a006964 <_dtoa_r+0x63c>
1a00691a:	2301      	movs	r3, #1
1a00691c:	930d      	str	r3, [sp, #52]	; 0x34
1a00691e:	e5af      	b.n	1a006480 <_dtoa_r+0x158>
1a006920:	9a08      	ldr	r2, [sp, #32]
1a006922:	9b06      	ldr	r3, [sp, #24]
1a006924:	1ad2      	subs	r2, r2, r3
1a006926:	425b      	negs	r3, r3
1a006928:	930b      	str	r3, [sp, #44]	; 0x2c
1a00692a:	2300      	movs	r3, #0
1a00692c:	9208      	str	r2, [sp, #32]
1a00692e:	930c      	str	r3, [sp, #48]	; 0x30
1a006930:	e5b5      	b.n	1a00649e <_dtoa_r+0x176>
1a006932:	f1c4 0301 	rsb	r3, r4, #1
1a006936:	9308      	str	r3, [sp, #32]
1a006938:	f04f 0800 	mov.w	r8, #0
1a00693c:	e5a7      	b.n	1a00648e <_dtoa_r+0x166>
1a00693e:	f8dd 8018 	ldr.w	r8, [sp, #24]
1a006942:	4640      	mov	r0, r8
1a006944:	f7fb fbe8 	bl	1a002118 <__aeabi_i2d>
1a006948:	4632      	mov	r2, r6
1a00694a:	463b      	mov	r3, r7
1a00694c:	f7fb feb6 	bl	1a0026bc <__aeabi_dcmpeq>
1a006950:	2800      	cmp	r0, #0
1a006952:	f47f ad81 	bne.w	1a006458 <_dtoa_r+0x130>
1a006956:	f108 33ff 	add.w	r3, r8, #4294967295	; 0xffffffff
1a00695a:	9306      	str	r3, [sp, #24]
1a00695c:	e57c      	b.n	1a006458 <_dtoa_r+0x130>
1a00695e:	9f0b      	ldr	r7, [sp, #44]	; 0x2c
1a006960:	9c08      	ldr	r4, [sp, #32]
1a006962:	9d0a      	ldr	r5, [sp, #40]	; 0x28
1a006964:	2c00      	cmp	r4, #0
1a006966:	dd0c      	ble.n	1a006982 <_dtoa_r+0x65a>
1a006968:	f1b8 0f00 	cmp.w	r8, #0
1a00696c:	dd09      	ble.n	1a006982 <_dtoa_r+0x65a>
1a00696e:	4544      	cmp	r4, r8
1a006970:	9a08      	ldr	r2, [sp, #32]
1a006972:	4623      	mov	r3, r4
1a006974:	bfa8      	it	ge
1a006976:	4643      	movge	r3, r8
1a006978:	1ad2      	subs	r2, r2, r3
1a00697a:	9208      	str	r2, [sp, #32]
1a00697c:	1ae4      	subs	r4, r4, r3
1a00697e:	eba8 0803 	sub.w	r8, r8, r3
1a006982:	9b0b      	ldr	r3, [sp, #44]	; 0x2c
1a006984:	b16b      	cbz	r3, 1a0069a2 <_dtoa_r+0x67a>
1a006986:	9a0a      	ldr	r2, [sp, #40]	; 0x28
1a006988:	2a00      	cmp	r2, #0
1a00698a:	f000 8290 	beq.w	1a006eae <_dtoa_r+0xb86>
1a00698e:	1bde      	subs	r6, r3, r7
1a006990:	2f00      	cmp	r7, #0
1a006992:	f040 819b 	bne.w	1a006ccc <_dtoa_r+0x9a4>
1a006996:	4651      	mov	r1, sl
1a006998:	4632      	mov	r2, r6
1a00699a:	4648      	mov	r0, r9
1a00699c:	f001 ff44 	bl	1a008828 <__pow5mult>
1a0069a0:	4682      	mov	sl, r0
1a0069a2:	2101      	movs	r1, #1
1a0069a4:	4648      	mov	r0, r9
1a0069a6:	f001 fe8f 	bl	1a0086c8 <__i2b>
1a0069aa:	9a0c      	ldr	r2, [sp, #48]	; 0x30
1a0069ac:	4606      	mov	r6, r0
1a0069ae:	2a00      	cmp	r2, #0
1a0069b0:	f040 8125 	bne.w	1a006bfe <_dtoa_r+0x8d6>
1a0069b4:	9b02      	ldr	r3, [sp, #8]
1a0069b6:	2b01      	cmp	r3, #1
1a0069b8:	f340 816c 	ble.w	1a006c94 <_dtoa_r+0x96c>
1a0069bc:	2001      	movs	r0, #1
1a0069be:	4440      	add	r0, r8
1a0069c0:	f010 001f 	ands.w	r0, r0, #31
1a0069c4:	f000 8119 	beq.w	1a006bfa <_dtoa_r+0x8d2>
1a0069c8:	f1c0 0320 	rsb	r3, r0, #32
1a0069cc:	2b04      	cmp	r3, #4
1a0069ce:	f340 83ac 	ble.w	1a00712a <_dtoa_r+0xe02>
1a0069d2:	f1c0 001c 	rsb	r0, r0, #28
1a0069d6:	9b08      	ldr	r3, [sp, #32]
1a0069d8:	4403      	add	r3, r0
1a0069da:	9308      	str	r3, [sp, #32]
1a0069dc:	4404      	add	r4, r0
1a0069de:	4480      	add	r8, r0
1a0069e0:	9b08      	ldr	r3, [sp, #32]
1a0069e2:	2b00      	cmp	r3, #0
1a0069e4:	dd05      	ble.n	1a0069f2 <_dtoa_r+0x6ca>
1a0069e6:	4651      	mov	r1, sl
1a0069e8:	461a      	mov	r2, r3
1a0069ea:	4648      	mov	r0, r9
1a0069ec:	f001 ff6c 	bl	1a0088c8 <__lshift>
1a0069f0:	4682      	mov	sl, r0
1a0069f2:	f1b8 0f00 	cmp.w	r8, #0
1a0069f6:	dd05      	ble.n	1a006a04 <_dtoa_r+0x6dc>
1a0069f8:	4631      	mov	r1, r6
1a0069fa:	4642      	mov	r2, r8
1a0069fc:	4648      	mov	r0, r9
1a0069fe:	f001 ff63 	bl	1a0088c8 <__lshift>
1a006a02:	4606      	mov	r6, r0
1a006a04:	9b0d      	ldr	r3, [sp, #52]	; 0x34
1a006a06:	2b00      	cmp	r3, #0
1a006a08:	d177      	bne.n	1a006afa <_dtoa_r+0x7d2>
1a006a0a:	9b09      	ldr	r3, [sp, #36]	; 0x24
1a006a0c:	2b00      	cmp	r3, #0
1a006a0e:	f340 8209 	ble.w	1a006e24 <_dtoa_r+0xafc>
1a006a12:	9b0a      	ldr	r3, [sp, #40]	; 0x28
1a006a14:	2b00      	cmp	r3, #0
1a006a16:	f000 8089 	beq.w	1a006b2c <_dtoa_r+0x804>
1a006a1a:	2c00      	cmp	r4, #0
1a006a1c:	f300 816b 	bgt.w	1a006cf6 <_dtoa_r+0x9ce>
1a006a20:	9b0c      	ldr	r3, [sp, #48]	; 0x30
1a006a22:	2b00      	cmp	r3, #0
1a006a24:	f040 81cd 	bne.w	1a006dc2 <_dtoa_r+0xa9a>
1a006a28:	46a8      	mov	r8, r5
1a006a2a:	9a00      	ldr	r2, [sp, #0]
1a006a2c:	f8cd b02c 	str.w	fp, [sp, #44]	; 0x2c
1a006a30:	f002 0201 	and.w	r2, r2, #1
1a006a34:	920a      	str	r2, [sp, #40]	; 0x28
1a006a36:	9a09      	ldr	r2, [sp, #36]	; 0x24
1a006a38:	f10b 33ff 	add.w	r3, fp, #4294967295	; 0xffffffff
1a006a3c:	441a      	add	r2, r3
1a006a3e:	465f      	mov	r7, fp
1a006a40:	9209      	str	r2, [sp, #36]	; 0x24
1a006a42:	46b3      	mov	fp, r6
1a006a44:	4659      	mov	r1, fp
1a006a46:	4650      	mov	r0, sl
1a006a48:	f7ff fbdc 	bl	1a006204 <quorem>
1a006a4c:	4629      	mov	r1, r5
1a006a4e:	4604      	mov	r4, r0
1a006a50:	4650      	mov	r0, sl
1a006a52:	f001 ff8f 	bl	1a008974 <__mcmp>
1a006a56:	4659      	mov	r1, fp
1a006a58:	4606      	mov	r6, r0
1a006a5a:	4642      	mov	r2, r8
1a006a5c:	4648      	mov	r0, r9
1a006a5e:	f001 ffa5 	bl	1a0089ac <__mdiff>
1a006a62:	f104 0330 	add.w	r3, r4, #48	; 0x30
1a006a66:	9300      	str	r3, [sp, #0]
1a006a68:	68c3      	ldr	r3, [r0, #12]
1a006a6a:	4601      	mov	r1, r0
1a006a6c:	2b00      	cmp	r3, #0
1a006a6e:	f040 81d4 	bne.w	1a006e1a <_dtoa_r+0xaf2>
1a006a72:	9008      	str	r0, [sp, #32]
1a006a74:	4650      	mov	r0, sl
1a006a76:	f001 ff7d 	bl	1a008974 <__mcmp>
1a006a7a:	9a08      	ldr	r2, [sp, #32]
1a006a7c:	9007      	str	r0, [sp, #28]
1a006a7e:	4611      	mov	r1, r2
1a006a80:	4648      	mov	r0, r9
1a006a82:	f001 fd3b 	bl	1a0084fc <_Bfree>
1a006a86:	9b07      	ldr	r3, [sp, #28]
1a006a88:	b933      	cbnz	r3, 1a006a98 <_dtoa_r+0x770>
1a006a8a:	9a02      	ldr	r2, [sp, #8]
1a006a8c:	b922      	cbnz	r2, 1a006a98 <_dtoa_r+0x770>
1a006a8e:	9b0a      	ldr	r3, [sp, #40]	; 0x28
1a006a90:	2b00      	cmp	r3, #0
1a006a92:	f000 8319 	beq.w	1a0070c8 <_dtoa_r+0xda0>
1a006a96:	9b02      	ldr	r3, [sp, #8]
1a006a98:	2e00      	cmp	r6, #0
1a006a9a:	f2c0 821c 	blt.w	1a006ed6 <_dtoa_r+0xbae>
1a006a9e:	d105      	bne.n	1a006aac <_dtoa_r+0x784>
1a006aa0:	9a02      	ldr	r2, [sp, #8]
1a006aa2:	b91a      	cbnz	r2, 1a006aac <_dtoa_r+0x784>
1a006aa4:	9a0a      	ldr	r2, [sp, #40]	; 0x28
1a006aa6:	2a00      	cmp	r2, #0
1a006aa8:	f000 8215 	beq.w	1a006ed6 <_dtoa_r+0xbae>
1a006aac:	2b00      	cmp	r3, #0
1a006aae:	f107 0401 	add.w	r4, r7, #1
1a006ab2:	f300 8225 	bgt.w	1a006f00 <_dtoa_r+0xbd8>
1a006ab6:	9b00      	ldr	r3, [sp, #0]
1a006ab8:	703b      	strb	r3, [r7, #0]
1a006aba:	9b09      	ldr	r3, [sp, #36]	; 0x24
1a006abc:	42bb      	cmp	r3, r7
1a006abe:	f000 8230 	beq.w	1a006f22 <_dtoa_r+0xbfa>
1a006ac2:	4651      	mov	r1, sl
1a006ac4:	2300      	movs	r3, #0
1a006ac6:	220a      	movs	r2, #10
1a006ac8:	4648      	mov	r0, r9
1a006aca:	f001 fd21 	bl	1a008510 <__multadd>
1a006ace:	4545      	cmp	r5, r8
1a006ad0:	4682      	mov	sl, r0
1a006ad2:	4629      	mov	r1, r5
1a006ad4:	f04f 0300 	mov.w	r3, #0
1a006ad8:	f04f 020a 	mov.w	r2, #10
1a006adc:	4648      	mov	r0, r9
1a006ade:	f000 8196 	beq.w	1a006e0e <_dtoa_r+0xae6>
1a006ae2:	f001 fd15 	bl	1a008510 <__multadd>
1a006ae6:	4641      	mov	r1, r8
1a006ae8:	4605      	mov	r5, r0
1a006aea:	2300      	movs	r3, #0
1a006aec:	220a      	movs	r2, #10
1a006aee:	4648      	mov	r0, r9
1a006af0:	f001 fd0e 	bl	1a008510 <__multadd>
1a006af4:	4627      	mov	r7, r4
1a006af6:	4680      	mov	r8, r0
1a006af8:	e7a4      	b.n	1a006a44 <_dtoa_r+0x71c>
1a006afa:	4631      	mov	r1, r6
1a006afc:	4650      	mov	r0, sl
1a006afe:	f001 ff39 	bl	1a008974 <__mcmp>
1a006b02:	2800      	cmp	r0, #0
1a006b04:	da81      	bge.n	1a006a0a <_dtoa_r+0x6e2>
1a006b06:	9f06      	ldr	r7, [sp, #24]
1a006b08:	4651      	mov	r1, sl
1a006b0a:	2300      	movs	r3, #0
1a006b0c:	220a      	movs	r2, #10
1a006b0e:	4648      	mov	r0, r9
1a006b10:	3f01      	subs	r7, #1
1a006b12:	9706      	str	r7, [sp, #24]
1a006b14:	f001 fcfc 	bl	1a008510 <__multadd>
1a006b18:	9b0a      	ldr	r3, [sp, #40]	; 0x28
1a006b1a:	4682      	mov	sl, r0
1a006b1c:	2b00      	cmp	r3, #0
1a006b1e:	f040 82eb 	bne.w	1a0070f8 <_dtoa_r+0xdd0>
1a006b22:	9b0e      	ldr	r3, [sp, #56]	; 0x38
1a006b24:	2b00      	cmp	r3, #0
1a006b26:	f340 82f3 	ble.w	1a007110 <_dtoa_r+0xde8>
1a006b2a:	9309      	str	r3, [sp, #36]	; 0x24
1a006b2c:	465c      	mov	r4, fp
1a006b2e:	f8dd 8024 	ldr.w	r8, [sp, #36]	; 0x24
1a006b32:	e002      	b.n	1a006b3a <_dtoa_r+0x812>
1a006b34:	f001 fcec 	bl	1a008510 <__multadd>
1a006b38:	4682      	mov	sl, r0
1a006b3a:	4631      	mov	r1, r6
1a006b3c:	4650      	mov	r0, sl
1a006b3e:	f7ff fb61 	bl	1a006204 <quorem>
1a006b42:	f100 0730 	add.w	r7, r0, #48	; 0x30
1a006b46:	f804 7b01 	strb.w	r7, [r4], #1
1a006b4a:	eba4 030b 	sub.w	r3, r4, fp
1a006b4e:	4598      	cmp	r8, r3
1a006b50:	f04f 020a 	mov.w	r2, #10
1a006b54:	f04f 0300 	mov.w	r3, #0
1a006b58:	4651      	mov	r1, sl
1a006b5a:	4648      	mov	r0, r9
1a006b5c:	dcea      	bgt.n	1a006b34 <_dtoa_r+0x80c>
1a006b5e:	2300      	movs	r3, #0
1a006b60:	9700      	str	r7, [sp, #0]
1a006b62:	9302      	str	r3, [sp, #8]
1a006b64:	4651      	mov	r1, sl
1a006b66:	2201      	movs	r2, #1
1a006b68:	4648      	mov	r0, r9
1a006b6a:	f001 fead 	bl	1a0088c8 <__lshift>
1a006b6e:	4631      	mov	r1, r6
1a006b70:	4682      	mov	sl, r0
1a006b72:	f001 feff 	bl	1a008974 <__mcmp>
1a006b76:	2800      	cmp	r0, #0
1a006b78:	f814 2c01 	ldrb.w	r2, [r4, #-1]
1a006b7c:	dc14      	bgt.n	1a006ba8 <_dtoa_r+0x880>
1a006b7e:	d108      	bne.n	1a006b92 <_dtoa_r+0x86a>
1a006b80:	9b00      	ldr	r3, [sp, #0]
1a006b82:	07db      	lsls	r3, r3, #31
1a006b84:	d410      	bmi.n	1a006ba8 <_dtoa_r+0x880>
1a006b86:	e004      	b.n	1a006b92 <_dtoa_r+0x86a>
1a006b88:	40240000 	.word	0x40240000
1a006b8c:	f814 2c02 	ldrb.w	r2, [r4, #-2]
1a006b90:	461c      	mov	r4, r3
1a006b92:	2a30      	cmp	r2, #48	; 0x30
1a006b94:	f104 33ff 	add.w	r3, r4, #4294967295	; 0xffffffff
1a006b98:	d0f8      	beq.n	1a006b8c <_dtoa_r+0x864>
1a006b9a:	e00b      	b.n	1a006bb4 <_dtoa_r+0x88c>
1a006b9c:	459b      	cmp	fp, r3
1a006b9e:	f000 814e 	beq.w	1a006e3e <_dtoa_r+0xb16>
1a006ba2:	f813 2c01 	ldrb.w	r2, [r3, #-1]
1a006ba6:	461c      	mov	r4, r3
1a006ba8:	2a39      	cmp	r2, #57	; 0x39
1a006baa:	f104 33ff 	add.w	r3, r4, #4294967295	; 0xffffffff
1a006bae:	d0f5      	beq.n	1a006b9c <_dtoa_r+0x874>
1a006bb0:	3201      	adds	r2, #1
1a006bb2:	701a      	strb	r2, [r3, #0]
1a006bb4:	4631      	mov	r1, r6
1a006bb6:	4648      	mov	r0, r9
1a006bb8:	f001 fca0 	bl	1a0084fc <_Bfree>
1a006bbc:	b155      	cbz	r5, 1a006bd4 <_dtoa_r+0x8ac>
1a006bbe:	9902      	ldr	r1, [sp, #8]
1a006bc0:	b121      	cbz	r1, 1a006bcc <_dtoa_r+0x8a4>
1a006bc2:	42a9      	cmp	r1, r5
1a006bc4:	d002      	beq.n	1a006bcc <_dtoa_r+0x8a4>
1a006bc6:	4648      	mov	r0, r9
1a006bc8:	f001 fc98 	bl	1a0084fc <_Bfree>
1a006bcc:	4629      	mov	r1, r5
1a006bce:	4648      	mov	r0, r9
1a006bd0:	f001 fc94 	bl	1a0084fc <_Bfree>
1a006bd4:	4651      	mov	r1, sl
1a006bd6:	4648      	mov	r0, r9
1a006bd8:	f001 fc90 	bl	1a0084fc <_Bfree>
1a006bdc:	2200      	movs	r2, #0
1a006bde:	9b06      	ldr	r3, [sp, #24]
1a006be0:	7022      	strb	r2, [r4, #0]
1a006be2:	9a05      	ldr	r2, [sp, #20]
1a006be4:	3301      	adds	r3, #1
1a006be6:	6013      	str	r3, [r2, #0]
1a006be8:	9b25      	ldr	r3, [sp, #148]	; 0x94
1a006bea:	2b00      	cmp	r3, #0
1a006bec:	f43f abdb 	beq.w	1a0063a6 <_dtoa_r+0x7e>
1a006bf0:	4658      	mov	r0, fp
1a006bf2:	601c      	str	r4, [r3, #0]
1a006bf4:	b01b      	add	sp, #108	; 0x6c
1a006bf6:	e8bd 8ff0 	ldmia.w	sp!, {r4, r5, r6, r7, r8, r9, sl, fp, pc}
1a006bfa:	201c      	movs	r0, #28
1a006bfc:	e6eb      	b.n	1a0069d6 <_dtoa_r+0x6ae>
1a006bfe:	4601      	mov	r1, r0
1a006c00:	4648      	mov	r0, r9
1a006c02:	f001 fe11 	bl	1a008828 <__pow5mult>
1a006c06:	9b02      	ldr	r3, [sp, #8]
1a006c08:	2b01      	cmp	r3, #1
1a006c0a:	4606      	mov	r6, r0
1a006c0c:	f340 80d4 	ble.w	1a006db8 <_dtoa_r+0xa90>
1a006c10:	2300      	movs	r3, #0
1a006c12:	930c      	str	r3, [sp, #48]	; 0x30
1a006c14:	6933      	ldr	r3, [r6, #16]
1a006c16:	eb06 0383 	add.w	r3, r6, r3, lsl #2
1a006c1a:	6918      	ldr	r0, [r3, #16]
1a006c1c:	f001 fd04 	bl	1a008628 <__hi0bits>
1a006c20:	f1c0 0020 	rsb	r0, r0, #32
1a006c24:	e6cb      	b.n	1a0069be <_dtoa_r+0x696>
1a006c26:	900d      	str	r0, [sp, #52]	; 0x34
1a006c28:	e42a      	b.n	1a006480 <_dtoa_r+0x158>
1a006c2a:	2501      	movs	r5, #1
1a006c2c:	e440      	b.n	1a0064b0 <_dtoa_r+0x188>
1a006c2e:	f1c3 0820 	rsb	r8, r3, #32
1a006c32:	9b00      	ldr	r3, [sp, #0]
1a006c34:	fa03 f008 	lsl.w	r0, r3, r8
1a006c38:	f7ff bbd8 	b.w	1a0063ec <_dtoa_r+0xc4>
1a006c3c:	2300      	movs	r3, #0
1a006c3e:	930a      	str	r3, [sp, #40]	; 0x28
1a006c40:	e9dd 3206 	ldrd	r3, r2, [sp, #24]
1a006c44:	4413      	add	r3, r2
1a006c46:	930e      	str	r3, [sp, #56]	; 0x38
1a006c48:	3301      	adds	r3, #1
1a006c4a:	2b01      	cmp	r3, #1
1a006c4c:	461e      	mov	r6, r3
1a006c4e:	9309      	str	r3, [sp, #36]	; 0x24
1a006c50:	bfb8      	it	lt
1a006c52:	2601      	movlt	r6, #1
1a006c54:	2100      	movs	r1, #0
1a006c56:	2e17      	cmp	r6, #23
1a006c58:	f8c9 1044 	str.w	r1, [r9, #68]	; 0x44
1a006c5c:	9c09      	ldr	r4, [sp, #36]	; 0x24
1a006c5e:	f77f ac89 	ble.w	1a006574 <_dtoa_r+0x24c>
1a006c62:	2201      	movs	r2, #1
1a006c64:	2304      	movs	r3, #4
1a006c66:	005b      	lsls	r3, r3, #1
1a006c68:	f103 0014 	add.w	r0, r3, #20
1a006c6c:	42b0      	cmp	r0, r6
1a006c6e:	4611      	mov	r1, r2
1a006c70:	f102 0201 	add.w	r2, r2, #1
1a006c74:	d9f7      	bls.n	1a006c66 <_dtoa_r+0x93e>
1a006c76:	f8c9 1044 	str.w	r1, [r9, #68]	; 0x44
1a006c7a:	e47b      	b.n	1a006574 <_dtoa_r+0x24c>
1a006c7c:	2300      	movs	r3, #0
1a006c7e:	930a      	str	r3, [sp, #40]	; 0x28
1a006c80:	9e07      	ldr	r6, [sp, #28]
1a006c82:	2e00      	cmp	r6, #0
1a006c84:	f340 80e2 	ble.w	1a006e4c <_dtoa_r+0xb24>
1a006c88:	960e      	str	r6, [sp, #56]	; 0x38
1a006c8a:	9609      	str	r6, [sp, #36]	; 0x24
1a006c8c:	e7e2      	b.n	1a006c54 <_dtoa_r+0x92c>
1a006c8e:	2301      	movs	r3, #1
1a006c90:	930a      	str	r3, [sp, #40]	; 0x28
1a006c92:	e7f5      	b.n	1a006c80 <_dtoa_r+0x958>
1a006c94:	9b00      	ldr	r3, [sp, #0]
1a006c96:	2b00      	cmp	r3, #0
1a006c98:	f47f ae90 	bne.w	1a0069bc <_dtoa_r+0x694>
1a006c9c:	e9dd 1200 	ldrd	r1, r2, [sp]
1a006ca0:	f3c2 0313 	ubfx	r3, r2, #0, #20
1a006ca4:	2b00      	cmp	r3, #0
1a006ca6:	f040 8192 	bne.w	1a006fce <_dtoa_r+0xca6>
1a006caa:	f022 4300 	bic.w	r3, r2, #2147483648	; 0x80000000
1a006cae:	0d1b      	lsrs	r3, r3, #20
1a006cb0:	051b      	lsls	r3, r3, #20
1a006cb2:	b12b      	cbz	r3, 1a006cc0 <_dtoa_r+0x998>
1a006cb4:	9b08      	ldr	r3, [sp, #32]
1a006cb6:	3301      	adds	r3, #1
1a006cb8:	9308      	str	r3, [sp, #32]
1a006cba:	f108 0801 	add.w	r8, r8, #1
1a006cbe:	2301      	movs	r3, #1
1a006cc0:	9a0c      	ldr	r2, [sp, #48]	; 0x30
1a006cc2:	930c      	str	r3, [sp, #48]	; 0x30
1a006cc4:	2a00      	cmp	r2, #0
1a006cc6:	f43f ae79 	beq.w	1a0069bc <_dtoa_r+0x694>
1a006cca:	e7a3      	b.n	1a006c14 <_dtoa_r+0x8ec>
1a006ccc:	463a      	mov	r2, r7
1a006cce:	4629      	mov	r1, r5
1a006cd0:	4648      	mov	r0, r9
1a006cd2:	f001 fda9 	bl	1a008828 <__pow5mult>
1a006cd6:	4652      	mov	r2, sl
1a006cd8:	4601      	mov	r1, r0
1a006cda:	4605      	mov	r5, r0
1a006cdc:	4648      	mov	r0, r9
1a006cde:	f001 fcfd 	bl	1a0086dc <__multiply>
1a006ce2:	4651      	mov	r1, sl
1a006ce4:	4607      	mov	r7, r0
1a006ce6:	4648      	mov	r0, r9
1a006ce8:	f001 fc08 	bl	1a0084fc <_Bfree>
1a006cec:	46ba      	mov	sl, r7
1a006cee:	2e00      	cmp	r6, #0
1a006cf0:	f43f ae57 	beq.w	1a0069a2 <_dtoa_r+0x67a>
1a006cf4:	e64f      	b.n	1a006996 <_dtoa_r+0x66e>
1a006cf6:	4629      	mov	r1, r5
1a006cf8:	4622      	mov	r2, r4
1a006cfa:	4648      	mov	r0, r9
1a006cfc:	f001 fde4 	bl	1a0088c8 <__lshift>
1a006d00:	4605      	mov	r5, r0
1a006d02:	e68d      	b.n	1a006a20 <_dtoa_r+0x6f8>
1a006d04:	9a0f      	ldr	r2, [sp, #60]	; 0x3c
1a006d06:	2a00      	cmp	r2, #0
1a006d08:	f000 815d 	beq.w	1a006fc6 <_dtoa_r+0xc9e>
1a006d0c:	f203 4333 	addw	r3, r3, #1075	; 0x433
1a006d10:	9a08      	ldr	r2, [sp, #32]
1a006d12:	9f0b      	ldr	r7, [sp, #44]	; 0x2c
1a006d14:	4614      	mov	r4, r2
1a006d16:	441a      	add	r2, r3
1a006d18:	4498      	add	r8, r3
1a006d1a:	9208      	str	r2, [sp, #32]
1a006d1c:	e5f7      	b.n	1a00690e <_dtoa_r+0x5e6>
1a006d1e:	9b09      	ldr	r3, [sp, #36]	; 0x24
1a006d20:	2b00      	cmp	r3, #0
1a006d22:	f73f ad3e 	bgt.w	1a0067a2 <_dtoa_r+0x47a>
1a006d26:	f040 80bc 	bne.w	1a006ea2 <_dtoa_r+0xb7a>
1a006d2a:	ec51 0b17 	vmov	r0, r1, d7
1a006d2e:	2200      	movs	r2, #0
1a006d30:	4bb2      	ldr	r3, [pc, #712]	; (1a006ffc <_dtoa_r+0xcd4>)
1a006d32:	f7fb fa5b 	bl	1a0021ec <__aeabi_dmul>
1a006d36:	e9dd 2300 	ldrd	r2, r3, [sp]
1a006d3a:	f7fb fcdd 	bl	1a0026f8 <__aeabi_dcmpge>
1a006d3e:	9e09      	ldr	r6, [sp, #36]	; 0x24
1a006d40:	4635      	mov	r5, r6
1a006d42:	2800      	cmp	r0, #0
1a006d44:	d176      	bne.n	1a006e34 <_dtoa_r+0xb0c>
1a006d46:	9a06      	ldr	r2, [sp, #24]
1a006d48:	2331      	movs	r3, #49	; 0x31
1a006d4a:	3201      	adds	r2, #1
1a006d4c:	9206      	str	r2, [sp, #24]
1a006d4e:	f88b 3000 	strb.w	r3, [fp]
1a006d52:	f10b 0401 	add.w	r4, fp, #1
1a006d56:	4631      	mov	r1, r6
1a006d58:	4648      	mov	r0, r9
1a006d5a:	f001 fbcf 	bl	1a0084fc <_Bfree>
1a006d5e:	2d00      	cmp	r5, #0
1a006d60:	f47f af34 	bne.w	1a006bcc <_dtoa_r+0x8a4>
1a006d64:	e736      	b.n	1a006bd4 <_dtoa_r+0x8ac>
1a006d66:	f000 8142 	beq.w	1a006fee <_dtoa_r+0xcc6>
1a006d6a:	9b06      	ldr	r3, [sp, #24]
1a006d6c:	425c      	negs	r4, r3
1a006d6e:	4ba4      	ldr	r3, [pc, #656]	; (1a007000 <_dtoa_r+0xcd8>)
1a006d70:	f004 020f 	and.w	r2, r4, #15
1a006d74:	eb03 03c2 	add.w	r3, r3, r2, lsl #3
1a006d78:	e9d3 2300 	ldrd	r2, r3, [r3]
1a006d7c:	e9dd 0110 	ldrd	r0, r1, [sp, #64]	; 0x40
1a006d80:	f7fb fa34 	bl	1a0021ec <__aeabi_dmul>
1a006d84:	1124      	asrs	r4, r4, #4
1a006d86:	e9cd 0100 	strd	r0, r1, [sp]
1a006d8a:	f000 81c6 	beq.w	1a00711a <_dtoa_r+0xdf2>
1a006d8e:	4d9d      	ldr	r5, [pc, #628]	; (1a007004 <_dtoa_r+0xcdc>)
1a006d90:	2300      	movs	r3, #0
1a006d92:	2602      	movs	r6, #2
1a006d94:	07e7      	lsls	r7, r4, #31
1a006d96:	d505      	bpl.n	1a006da4 <_dtoa_r+0xa7c>
1a006d98:	e9d5 2300 	ldrd	r2, r3, [r5]
1a006d9c:	f7fb fa26 	bl	1a0021ec <__aeabi_dmul>
1a006da0:	3601      	adds	r6, #1
1a006da2:	2301      	movs	r3, #1
1a006da4:	1064      	asrs	r4, r4, #1
1a006da6:	f105 0508 	add.w	r5, r5, #8
1a006daa:	d1f3      	bne.n	1a006d94 <_dtoa_r+0xa6c>
1a006dac:	2b00      	cmp	r3, #0
1a006dae:	f43f ac27 	beq.w	1a006600 <_dtoa_r+0x2d8>
1a006db2:	e9cd 0100 	strd	r0, r1, [sp]
1a006db6:	e423      	b.n	1a006600 <_dtoa_r+0x2d8>
1a006db8:	9b00      	ldr	r3, [sp, #0]
1a006dba:	2b00      	cmp	r3, #0
1a006dbc:	f43f af6e 	beq.w	1a006c9c <_dtoa_r+0x974>
1a006dc0:	e726      	b.n	1a006c10 <_dtoa_r+0x8e8>
1a006dc2:	6869      	ldr	r1, [r5, #4]
1a006dc4:	4648      	mov	r0, r9
1a006dc6:	f001 fb73 	bl	1a0084b0 <_Balloc>
1a006dca:	692b      	ldr	r3, [r5, #16]
1a006dcc:	3302      	adds	r3, #2
1a006dce:	009a      	lsls	r2, r3, #2
1a006dd0:	4604      	mov	r4, r0
1a006dd2:	f105 010c 	add.w	r1, r5, #12
1a006dd6:	300c      	adds	r0, #12
1a006dd8:	f7fb fe96 	bl	1a002b08 <memcpy>
1a006ddc:	4621      	mov	r1, r4
1a006dde:	2201      	movs	r2, #1
1a006de0:	4648      	mov	r0, r9
1a006de2:	f001 fd71 	bl	1a0088c8 <__lshift>
1a006de6:	4680      	mov	r8, r0
1a006de8:	e61f      	b.n	1a006a2a <_dtoa_r+0x702>
1a006dea:	2400      	movs	r4, #0
1a006dec:	f8c9 4044 	str.w	r4, [r9, #68]	; 0x44
1a006df0:	4621      	mov	r1, r4
1a006df2:	4648      	mov	r0, r9
1a006df4:	f001 fb5c 	bl	1a0084b0 <_Balloc>
1a006df8:	f04f 33ff 	mov.w	r3, #4294967295	; 0xffffffff
1a006dfc:	930e      	str	r3, [sp, #56]	; 0x38
1a006dfe:	9309      	str	r3, [sp, #36]	; 0x24
1a006e00:	2301      	movs	r3, #1
1a006e02:	4683      	mov	fp, r0
1a006e04:	9407      	str	r4, [sp, #28]
1a006e06:	f8c9 0040 	str.w	r0, [r9, #64]	; 0x40
1a006e0a:	930a      	str	r3, [sp, #40]	; 0x28
1a006e0c:	e4b6      	b.n	1a00677c <_dtoa_r+0x454>
1a006e0e:	f001 fb7f 	bl	1a008510 <__multadd>
1a006e12:	4627      	mov	r7, r4
1a006e14:	4605      	mov	r5, r0
1a006e16:	4680      	mov	r8, r0
1a006e18:	e614      	b.n	1a006a44 <_dtoa_r+0x71c>
1a006e1a:	4648      	mov	r0, r9
1a006e1c:	f001 fb6e 	bl	1a0084fc <_Bfree>
1a006e20:	2301      	movs	r3, #1
1a006e22:	e639      	b.n	1a006a98 <_dtoa_r+0x770>
1a006e24:	9b02      	ldr	r3, [sp, #8]
1a006e26:	2b02      	cmp	r3, #2
1a006e28:	f77f adf3 	ble.w	1a006a12 <_dtoa_r+0x6ea>
1a006e2c:	9b09      	ldr	r3, [sp, #36]	; 0x24
1a006e2e:	2b00      	cmp	r3, #0
1a006e30:	f000 80cf 	beq.w	1a006fd2 <_dtoa_r+0xcaa>
1a006e34:	9b07      	ldr	r3, [sp, #28]
1a006e36:	43db      	mvns	r3, r3
1a006e38:	9306      	str	r3, [sp, #24]
1a006e3a:	465c      	mov	r4, fp
1a006e3c:	e78b      	b.n	1a006d56 <_dtoa_r+0xa2e>
1a006e3e:	9a06      	ldr	r2, [sp, #24]
1a006e40:	2331      	movs	r3, #49	; 0x31
1a006e42:	3201      	adds	r2, #1
1a006e44:	9206      	str	r2, [sp, #24]
1a006e46:	f88b 3000 	strb.w	r3, [fp]
1a006e4a:	e6b3      	b.n	1a006bb4 <_dtoa_r+0x88c>
1a006e4c:	2401      	movs	r4, #1
1a006e4e:	9409      	str	r4, [sp, #36]	; 0x24
1a006e50:	9407      	str	r4, [sp, #28]
1a006e52:	f7ff bb8b 	b.w	1a00656c <_dtoa_r+0x244>
1a006e56:	4630      	mov	r0, r6
1a006e58:	f7fb f95e 	bl	1a002118 <__aeabi_i2d>
1a006e5c:	e9dd 2300 	ldrd	r2, r3, [sp]
1a006e60:	f7fb f9c4 	bl	1a0021ec <__aeabi_dmul>
1a006e64:	2200      	movs	r2, #0
1a006e66:	4b68      	ldr	r3, [pc, #416]	; (1a007008 <_dtoa_r+0xce0>)
1a006e68:	f7fb f80a 	bl	1a001e80 <__adddf3>
1a006e6c:	4606      	mov	r6, r0
1a006e6e:	f1a1 7750 	sub.w	r7, r1, #54525952	; 0x3400000
1a006e72:	2200      	movs	r2, #0
1a006e74:	4b61      	ldr	r3, [pc, #388]	; (1a006ffc <_dtoa_r+0xcd4>)
1a006e76:	e9dd 0100 	ldrd	r0, r1, [sp]
1a006e7a:	f7fa ffff 	bl	1a001e7c <__aeabi_dsub>
1a006e7e:	4632      	mov	r2, r6
1a006e80:	463b      	mov	r3, r7
1a006e82:	4604      	mov	r4, r0
1a006e84:	460d      	mov	r5, r1
1a006e86:	f7fb fc41 	bl	1a00270c <__aeabi_dcmpgt>
1a006e8a:	2800      	cmp	r0, #0
1a006e8c:	d14f      	bne.n	1a006f2e <_dtoa_r+0xc06>
1a006e8e:	4632      	mov	r2, r6
1a006e90:	f107 4300 	add.w	r3, r7, #2147483648	; 0x80000000
1a006e94:	4620      	mov	r0, r4
1a006e96:	4629      	mov	r1, r5
1a006e98:	f7fb fc1a 	bl	1a0026d0 <__aeabi_dcmplt>
1a006e9c:	2800      	cmp	r0, #0
1a006e9e:	f43f ac69 	beq.w	1a006774 <_dtoa_r+0x44c>
1a006ea2:	2600      	movs	r6, #0
1a006ea4:	4635      	mov	r5, r6
1a006ea6:	e7c5      	b.n	1a006e34 <_dtoa_r+0xb0c>
1a006ea8:	2301      	movs	r3, #1
1a006eaa:	930a      	str	r3, [sp, #40]	; 0x28
1a006eac:	e6c8      	b.n	1a006c40 <_dtoa_r+0x918>
1a006eae:	4651      	mov	r1, sl
1a006eb0:	9a0b      	ldr	r2, [sp, #44]	; 0x2c
1a006eb2:	4648      	mov	r0, r9
1a006eb4:	f001 fcb8 	bl	1a008828 <__pow5mult>
1a006eb8:	4682      	mov	sl, r0
1a006eba:	e572      	b.n	1a0069a2 <_dtoa_r+0x67a>
1a006ebc:	f8dd a000 	ldr.w	sl, [sp]
1a006ec0:	f8dd 901c 	ldr.w	r9, [sp, #28]
1a006ec4:	e686      	b.n	1a006bd4 <_dtoa_r+0x8ac>
1a006ec6:	9b0b      	ldr	r3, [sp, #44]	; 0x2c
1a006ec8:	9a0c      	ldr	r2, [sp, #48]	; 0x30
1a006eca:	1afb      	subs	r3, r7, r3
1a006ecc:	441a      	add	r2, r3
1a006ece:	e9cd 720b 	strd	r7, r2, [sp, #44]	; 0x2c
1a006ed2:	2700      	movs	r7, #0
1a006ed4:	e512      	b.n	1a0068fc <_dtoa_r+0x5d4>
1a006ed6:	2b00      	cmp	r3, #0
1a006ed8:	9402      	str	r4, [sp, #8]
1a006eda:	465e      	mov	r6, fp
1a006edc:	f107 0401 	add.w	r4, r7, #1
1a006ee0:	f8dd b02c 	ldr.w	fp, [sp, #44]	; 0x2c
1a006ee4:	f300 80ba 	bgt.w	1a00705c <_dtoa_r+0xd34>
1a006ee8:	9b00      	ldr	r3, [sp, #0]
1a006eea:	9502      	str	r5, [sp, #8]
1a006eec:	703b      	strb	r3, [r7, #0]
1a006eee:	4645      	mov	r5, r8
1a006ef0:	e660      	b.n	1a006bb4 <_dtoa_r+0x88c>
1a006ef2:	ed9d 7b10 	vldr	d7, [sp, #64]	; 0x40
1a006ef6:	2602      	movs	r6, #2
1a006ef8:	ed8d 7b12 	vstr	d7, [sp, #72]	; 0x48
1a006efc:	f7ff bb67 	b.w	1a0065ce <_dtoa_r+0x2a6>
1a006f00:	9b00      	ldr	r3, [sp, #0]
1a006f02:	2b39      	cmp	r3, #57	; 0x39
1a006f04:	465e      	mov	r6, fp
1a006f06:	f8dd b02c 	ldr.w	fp, [sp, #44]	; 0x2c
1a006f0a:	f000 80b9 	beq.w	1a007080 <_dtoa_r+0xd58>
1a006f0e:	9b00      	ldr	r3, [sp, #0]
1a006f10:	9502      	str	r5, [sp, #8]
1a006f12:	3301      	adds	r3, #1
1a006f14:	703b      	strb	r3, [r7, #0]
1a006f16:	4645      	mov	r5, r8
1a006f18:	e64c      	b.n	1a006bb4 <_dtoa_r+0x88c>
1a006f1a:	e9dd 3208 	ldrd	r3, r2, [sp, #32]
1a006f1e:	1a9c      	subs	r4, r3, r2
1a006f20:	e4f5      	b.n	1a00690e <_dtoa_r+0x5e6>
1a006f22:	465e      	mov	r6, fp
1a006f24:	9502      	str	r5, [sp, #8]
1a006f26:	f8dd b02c 	ldr.w	fp, [sp, #44]	; 0x2c
1a006f2a:	4645      	mov	r5, r8
1a006f2c:	e61a      	b.n	1a006b64 <_dtoa_r+0x83c>
1a006f2e:	2600      	movs	r6, #0
1a006f30:	4635      	mov	r5, r6
1a006f32:	e708      	b.n	1a006d46 <_dtoa_r+0xa1e>
1a006f34:	e9dd 2314 	ldrd	r2, r3, [sp, #80]	; 0x50
1a006f38:	e9dd 0100 	ldrd	r0, r1, [sp]
1a006f3c:	f7fb f956 	bl	1a0021ec <__aeabi_dmul>
1a006f40:	9b12      	ldr	r3, [sp, #72]	; 0x48
1a006f42:	f88b 5000 	strb.w	r5, [fp]
1a006f46:	2b01      	cmp	r3, #1
1a006f48:	e9cd 0100 	strd	r0, r1, [sp]
1a006f4c:	d020      	beq.n	1a006f90 <_dtoa_r+0xc68>
1a006f4e:	9b12      	ldr	r3, [sp, #72]	; 0x48
1a006f50:	f8cd 8048 	str.w	r8, [sp, #72]	; 0x48
1a006f54:	445b      	add	r3, fp
1a006f56:	4698      	mov	r8, r3
1a006f58:	2200      	movs	r2, #0
1a006f5a:	4b2c      	ldr	r3, [pc, #176]	; (1a00700c <_dtoa_r+0xce4>)
1a006f5c:	4630      	mov	r0, r6
1a006f5e:	4639      	mov	r1, r7
1a006f60:	f7fb f944 	bl	1a0021ec <__aeabi_dmul>
1a006f64:	460f      	mov	r7, r1
1a006f66:	4606      	mov	r6, r0
1a006f68:	f006 f8fa 	bl	1a00d160 <__aeabi_d2iz>
1a006f6c:	4605      	mov	r5, r0
1a006f6e:	f7fb f8d3 	bl	1a002118 <__aeabi_i2d>
1a006f72:	3530      	adds	r5, #48	; 0x30
1a006f74:	4602      	mov	r2, r0
1a006f76:	460b      	mov	r3, r1
1a006f78:	4630      	mov	r0, r6
1a006f7a:	4639      	mov	r1, r7
1a006f7c:	f7fa ff7e 	bl	1a001e7c <__aeabi_dsub>
1a006f80:	f804 5b01 	strb.w	r5, [r4], #1
1a006f84:	4544      	cmp	r4, r8
1a006f86:	4606      	mov	r6, r0
1a006f88:	460f      	mov	r7, r1
1a006f8a:	d1e5      	bne.n	1a006f58 <_dtoa_r+0xc30>
1a006f8c:	f8dd 8048 	ldr.w	r8, [sp, #72]	; 0x48
1a006f90:	4b1f      	ldr	r3, [pc, #124]	; (1a007010 <_dtoa_r+0xce8>)
1a006f92:	2200      	movs	r2, #0
1a006f94:	e9dd 0100 	ldrd	r0, r1, [sp]
1a006f98:	f7fa ff72 	bl	1a001e80 <__adddf3>
1a006f9c:	4632      	mov	r2, r6
1a006f9e:	463b      	mov	r3, r7
1a006fa0:	f7fb fb96 	bl	1a0026d0 <__aeabi_dcmplt>
1a006fa4:	2800      	cmp	r0, #0
1a006fa6:	d070      	beq.n	1a00708a <_dtoa_r+0xd62>
1a006fa8:	9b16      	ldr	r3, [sp, #88]	; 0x58
1a006faa:	9306      	str	r3, [sp, #24]
1a006fac:	f814 5c01 	ldrb.w	r5, [r4, #-1]
1a006fb0:	e48f      	b.n	1a0068d2 <_dtoa_r+0x5aa>
1a006fb2:	2330      	movs	r3, #48	; 0x30
1a006fb4:	f88b 3000 	strb.w	r3, [fp]
1a006fb8:	9b06      	ldr	r3, [sp, #24]
1a006fba:	f814 5c01 	ldrb.w	r5, [r4, #-1]
1a006fbe:	3301      	adds	r3, #1
1a006fc0:	9306      	str	r3, [sp, #24]
1a006fc2:	465b      	mov	r3, fp
1a006fc4:	e489      	b.n	1a0068da <_dtoa_r+0x5b2>
1a006fc6:	9b18      	ldr	r3, [sp, #96]	; 0x60
1a006fc8:	f1c3 0336 	rsb	r3, r3, #54	; 0x36
1a006fcc:	e6a0      	b.n	1a006d10 <_dtoa_r+0x9e8>
1a006fce:	2300      	movs	r3, #0
1a006fd0:	e676      	b.n	1a006cc0 <_dtoa_r+0x998>
1a006fd2:	4631      	mov	r1, r6
1a006fd4:	2205      	movs	r2, #5
1a006fd6:	4648      	mov	r0, r9
1a006fd8:	f001 fa9a 	bl	1a008510 <__multadd>
1a006fdc:	4601      	mov	r1, r0
1a006fde:	4606      	mov	r6, r0
1a006fe0:	4650      	mov	r0, sl
1a006fe2:	f001 fcc7 	bl	1a008974 <__mcmp>
1a006fe6:	2800      	cmp	r0, #0
1a006fe8:	f73f aead 	bgt.w	1a006d46 <_dtoa_r+0xa1e>
1a006fec:	e722      	b.n	1a006e34 <_dtoa_r+0xb0c>
1a006fee:	ed9d 7b10 	vldr	d7, [sp, #64]	; 0x40
1a006ff2:	2602      	movs	r6, #2
1a006ff4:	ed8d 7b00 	vstr	d7, [sp]
1a006ff8:	f7ff bb02 	b.w	1a006600 <_dtoa_r+0x2d8>
1a006ffc:	40140000 	.word	0x40140000
1a007000:	1a00d820 	.word	0x1a00d820
1a007004:	1a00d7f8 	.word	0x1a00d7f8
1a007008:	401c0000 	.word	0x401c0000
1a00700c:	40240000 	.word	0x40240000
1a007010:	3fe00000 	.word	0x3fe00000
1a007014:	9b09      	ldr	r3, [sp, #36]	; 0x24
1a007016:	2b00      	cmp	r3, #0
1a007018:	f43f af1d 	beq.w	1a006e56 <_dtoa_r+0xb2e>
1a00701c:	9c0e      	ldr	r4, [sp, #56]	; 0x38
1a00701e:	2c00      	cmp	r4, #0
1a007020:	f77f aba8 	ble.w	1a006774 <_dtoa_r+0x44c>
1a007024:	2200      	movs	r2, #0
1a007026:	4b45      	ldr	r3, [pc, #276]	; (1a00713c <_dtoa_r+0xe14>)
1a007028:	e9dd 0100 	ldrd	r0, r1, [sp]
1a00702c:	f7fb f8de 	bl	1a0021ec <__aeabi_dmul>
1a007030:	e9cd 0100 	strd	r0, r1, [sp]
1a007034:	1c70      	adds	r0, r6, #1
1a007036:	f7fb f86f 	bl	1a002118 <__aeabi_i2d>
1a00703a:	e9dd 2300 	ldrd	r2, r3, [sp]
1a00703e:	f7fb f8d5 	bl	1a0021ec <__aeabi_dmul>
1a007042:	4b3f      	ldr	r3, [pc, #252]	; (1a007140 <_dtoa_r+0xe18>)
1a007044:	2200      	movs	r2, #0
1a007046:	f7fa ff1b 	bl	1a001e80 <__adddf3>
1a00704a:	9b06      	ldr	r3, [sp, #24]
1a00704c:	9412      	str	r4, [sp, #72]	; 0x48
1a00704e:	3b01      	subs	r3, #1
1a007050:	4606      	mov	r6, r0
1a007052:	f1a1 7750 	sub.w	r7, r1, #54525952	; 0x3400000
1a007056:	9316      	str	r3, [sp, #88]	; 0x58
1a007058:	f7ff baf3 	b.w	1a006642 <_dtoa_r+0x31a>
1a00705c:	4651      	mov	r1, sl
1a00705e:	2201      	movs	r2, #1
1a007060:	4648      	mov	r0, r9
1a007062:	f001 fc31 	bl	1a0088c8 <__lshift>
1a007066:	4631      	mov	r1, r6
1a007068:	4682      	mov	sl, r0
1a00706a:	f001 fc83 	bl	1a008974 <__mcmp>
1a00706e:	2800      	cmp	r0, #0
1a007070:	dd3b      	ble.n	1a0070ea <_dtoa_r+0xdc2>
1a007072:	9b00      	ldr	r3, [sp, #0]
1a007074:	2b39      	cmp	r3, #57	; 0x39
1a007076:	d003      	beq.n	1a007080 <_dtoa_r+0xd58>
1a007078:	9b02      	ldr	r3, [sp, #8]
1a00707a:	3331      	adds	r3, #49	; 0x31
1a00707c:	9300      	str	r3, [sp, #0]
1a00707e:	e733      	b.n	1a006ee8 <_dtoa_r+0xbc0>
1a007080:	2239      	movs	r2, #57	; 0x39
1a007082:	9502      	str	r5, [sp, #8]
1a007084:	703a      	strb	r2, [r7, #0]
1a007086:	4645      	mov	r5, r8
1a007088:	e58e      	b.n	1a006ba8 <_dtoa_r+0x880>
1a00708a:	e9dd 2300 	ldrd	r2, r3, [sp]
1a00708e:	2000      	movs	r0, #0
1a007090:	492c      	ldr	r1, [pc, #176]	; (1a007144 <_dtoa_r+0xe1c>)
1a007092:	f7fa fef3 	bl	1a001e7c <__aeabi_dsub>
1a007096:	4632      	mov	r2, r6
1a007098:	463b      	mov	r3, r7
1a00709a:	f7fb fb37 	bl	1a00270c <__aeabi_dcmpgt>
1a00709e:	b910      	cbnz	r0, 1a0070a6 <_dtoa_r+0xd7e>
1a0070a0:	f7ff bb68 	b.w	1a006774 <_dtoa_r+0x44c>
1a0070a4:	4614      	mov	r4, r2
1a0070a6:	f814 3c01 	ldrb.w	r3, [r4, #-1]
1a0070aa:	2b30      	cmp	r3, #48	; 0x30
1a0070ac:	f104 32ff 	add.w	r2, r4, #4294967295	; 0xffffffff
1a0070b0:	d0f8      	beq.n	1a0070a4 <_dtoa_r+0xd7c>
1a0070b2:	9b16      	ldr	r3, [sp, #88]	; 0x58
1a0070b4:	9306      	str	r3, [sp, #24]
1a0070b6:	e58d      	b.n	1a006bd4 <_dtoa_r+0x8ac>
1a0070b8:	46d9      	mov	r9, fp
1a0070ba:	f8dd a048 	ldr.w	sl, [sp, #72]	; 0x48
1a0070be:	f8dd b050 	ldr.w	fp, [sp, #80]	; 0x50
1a0070c2:	9b16      	ldr	r3, [sp, #88]	; 0x58
1a0070c4:	9306      	str	r3, [sp, #24]
1a0070c6:	e404      	b.n	1a0068d2 <_dtoa_r+0x5aa>
1a0070c8:	9b00      	ldr	r3, [sp, #0]
1a0070ca:	2b39      	cmp	r3, #57	; 0x39
1a0070cc:	4621      	mov	r1, r4
1a0070ce:	4632      	mov	r2, r6
1a0070d0:	f107 0401 	add.w	r4, r7, #1
1a0070d4:	465e      	mov	r6, fp
1a0070d6:	f8dd b02c 	ldr.w	fp, [sp, #44]	; 0x2c
1a0070da:	d0d1      	beq.n	1a007080 <_dtoa_r+0xd58>
1a0070dc:	2a00      	cmp	r2, #0
1a0070de:	f77f af03 	ble.w	1a006ee8 <_dtoa_r+0xbc0>
1a0070e2:	460b      	mov	r3, r1
1a0070e4:	3331      	adds	r3, #49	; 0x31
1a0070e6:	9300      	str	r3, [sp, #0]
1a0070e8:	e6fe      	b.n	1a006ee8 <_dtoa_r+0xbc0>
1a0070ea:	f47f aefd 	bne.w	1a006ee8 <_dtoa_r+0xbc0>
1a0070ee:	9b00      	ldr	r3, [sp, #0]
1a0070f0:	07da      	lsls	r2, r3, #31
1a0070f2:	f57f aef9 	bpl.w	1a006ee8 <_dtoa_r+0xbc0>
1a0070f6:	e7bc      	b.n	1a007072 <_dtoa_r+0xd4a>
1a0070f8:	4629      	mov	r1, r5
1a0070fa:	2300      	movs	r3, #0
1a0070fc:	220a      	movs	r2, #10
1a0070fe:	4648      	mov	r0, r9
1a007100:	f001 fa06 	bl	1a008510 <__multadd>
1a007104:	9b0e      	ldr	r3, [sp, #56]	; 0x38
1a007106:	2b00      	cmp	r3, #0
1a007108:	4605      	mov	r5, r0
1a00710a:	dd09      	ble.n	1a007120 <_dtoa_r+0xdf8>
1a00710c:	9309      	str	r3, [sp, #36]	; 0x24
1a00710e:	e484      	b.n	1a006a1a <_dtoa_r+0x6f2>
1a007110:	9b02      	ldr	r3, [sp, #8]
1a007112:	2b02      	cmp	r3, #2
1a007114:	dc0e      	bgt.n	1a007134 <_dtoa_r+0xe0c>
1a007116:	9b0e      	ldr	r3, [sp, #56]	; 0x38
1a007118:	e507      	b.n	1a006b2a <_dtoa_r+0x802>
1a00711a:	2602      	movs	r6, #2
1a00711c:	f7ff ba70 	b.w	1a006600 <_dtoa_r+0x2d8>
1a007120:	9b02      	ldr	r3, [sp, #8]
1a007122:	2b02      	cmp	r3, #2
1a007124:	dc06      	bgt.n	1a007134 <_dtoa_r+0xe0c>
1a007126:	9b0e      	ldr	r3, [sp, #56]	; 0x38
1a007128:	e7f0      	b.n	1a00710c <_dtoa_r+0xde4>
1a00712a:	f43f ac59 	beq.w	1a0069e0 <_dtoa_r+0x6b8>
1a00712e:	f1c0 003c 	rsb	r0, r0, #60	; 0x3c
1a007132:	e450      	b.n	1a0069d6 <_dtoa_r+0x6ae>
1a007134:	9b0e      	ldr	r3, [sp, #56]	; 0x38
1a007136:	9309      	str	r3, [sp, #36]	; 0x24
1a007138:	e678      	b.n	1a006e2c <_dtoa_r+0xb04>
1a00713a:	bf00      	nop
1a00713c:	40240000 	.word	0x40240000
1a007140:	401c0000 	.word	0x401c0000
1a007144:	3fe00000 	.word	0x3fe00000

1a007148 <__sflush_r>:
1a007148:	f9b1 300c 	ldrsh.w	r3, [r1, #12]
1a00714c:	b29a      	uxth	r2, r3
1a00714e:	e92d 41f0 	stmdb	sp!, {r4, r5, r6, r7, r8, lr}
1a007152:	460c      	mov	r4, r1
1a007154:	0711      	lsls	r1, r2, #28
1a007156:	4680      	mov	r8, r0
1a007158:	d444      	bmi.n	1a0071e4 <__sflush_r+0x9c>
1a00715a:	6862      	ldr	r2, [r4, #4]
1a00715c:	f443 6300 	orr.w	r3, r3, #2048	; 0x800
1a007160:	2a00      	cmp	r2, #0
1a007162:	81a3      	strh	r3, [r4, #12]
1a007164:	dd59      	ble.n	1a00721a <__sflush_r+0xd2>
1a007166:	6aa5      	ldr	r5, [r4, #40]	; 0x28
1a007168:	2d00      	cmp	r5, #0
1a00716a:	d053      	beq.n	1a007214 <__sflush_r+0xcc>
1a00716c:	2200      	movs	r2, #0
1a00716e:	b29b      	uxth	r3, r3
1a007170:	f8d8 6000 	ldr.w	r6, [r8]
1a007174:	69e1      	ldr	r1, [r4, #28]
1a007176:	f8c8 2000 	str.w	r2, [r8]
1a00717a:	f413 5280 	ands.w	r2, r3, #4096	; 0x1000
1a00717e:	f040 8083 	bne.w	1a007288 <__sflush_r+0x140>
1a007182:	2301      	movs	r3, #1
1a007184:	4640      	mov	r0, r8
1a007186:	47a8      	blx	r5
1a007188:	1c42      	adds	r2, r0, #1
1a00718a:	d04a      	beq.n	1a007222 <__sflush_r+0xda>
1a00718c:	89a3      	ldrh	r3, [r4, #12]
1a00718e:	6aa5      	ldr	r5, [r4, #40]	; 0x28
1a007190:	69e1      	ldr	r1, [r4, #28]
1a007192:	075b      	lsls	r3, r3, #29
1a007194:	d505      	bpl.n	1a0071a2 <__sflush_r+0x5a>
1a007196:	6862      	ldr	r2, [r4, #4]
1a007198:	6b23      	ldr	r3, [r4, #48]	; 0x30
1a00719a:	1a80      	subs	r0, r0, r2
1a00719c:	b10b      	cbz	r3, 1a0071a2 <__sflush_r+0x5a>
1a00719e:	6be3      	ldr	r3, [r4, #60]	; 0x3c
1a0071a0:	1ac0      	subs	r0, r0, r3
1a0071a2:	4602      	mov	r2, r0
1a0071a4:	2300      	movs	r3, #0
1a0071a6:	4640      	mov	r0, r8
1a0071a8:	47a8      	blx	r5
1a0071aa:	1c47      	adds	r7, r0, #1
1a0071ac:	d045      	beq.n	1a00723a <__sflush_r+0xf2>
1a0071ae:	f9b4 300c 	ldrsh.w	r3, [r4, #12]
1a0071b2:	6922      	ldr	r2, [r4, #16]
1a0071b4:	6022      	str	r2, [r4, #0]
1a0071b6:	f423 6300 	bic.w	r3, r3, #2048	; 0x800
1a0071ba:	2200      	movs	r2, #0
1a0071bc:	81a3      	strh	r3, [r4, #12]
1a0071be:	04db      	lsls	r3, r3, #19
1a0071c0:	6062      	str	r2, [r4, #4]
1a0071c2:	d500      	bpl.n	1a0071c6 <__sflush_r+0x7e>
1a0071c4:	6520      	str	r0, [r4, #80]	; 0x50
1a0071c6:	6b21      	ldr	r1, [r4, #48]	; 0x30
1a0071c8:	f8c8 6000 	str.w	r6, [r8]
1a0071cc:	b311      	cbz	r1, 1a007214 <__sflush_r+0xcc>
1a0071ce:	f104 0340 	add.w	r3, r4, #64	; 0x40
1a0071d2:	4299      	cmp	r1, r3
1a0071d4:	d002      	beq.n	1a0071dc <__sflush_r+0x94>
1a0071d6:	4640      	mov	r0, r8
1a0071d8:	f000 fa30 	bl	1a00763c <_free_r>
1a0071dc:	2000      	movs	r0, #0
1a0071de:	6320      	str	r0, [r4, #48]	; 0x30
1a0071e0:	e8bd 81f0 	ldmia.w	sp!, {r4, r5, r6, r7, r8, pc}
1a0071e4:	6926      	ldr	r6, [r4, #16]
1a0071e6:	b1ae      	cbz	r6, 1a007214 <__sflush_r+0xcc>
1a0071e8:	6825      	ldr	r5, [r4, #0]
1a0071ea:	6026      	str	r6, [r4, #0]
1a0071ec:	0792      	lsls	r2, r2, #30
1a0071ee:	bf0c      	ite	eq
1a0071f0:	6963      	ldreq	r3, [r4, #20]
1a0071f2:	2300      	movne	r3, #0
1a0071f4:	1bad      	subs	r5, r5, r6
1a0071f6:	60a3      	str	r3, [r4, #8]
1a0071f8:	e00a      	b.n	1a007210 <__sflush_r+0xc8>
1a0071fa:	462b      	mov	r3, r5
1a0071fc:	4632      	mov	r2, r6
1a0071fe:	6a67      	ldr	r7, [r4, #36]	; 0x24
1a007200:	69e1      	ldr	r1, [r4, #28]
1a007202:	4640      	mov	r0, r8
1a007204:	47b8      	blx	r7
1a007206:	2800      	cmp	r0, #0
1a007208:	eba5 0500 	sub.w	r5, r5, r0
1a00720c:	4406      	add	r6, r0
1a00720e:	dd2b      	ble.n	1a007268 <__sflush_r+0x120>
1a007210:	2d00      	cmp	r5, #0
1a007212:	dcf2      	bgt.n	1a0071fa <__sflush_r+0xb2>
1a007214:	2000      	movs	r0, #0
1a007216:	e8bd 81f0 	ldmia.w	sp!, {r4, r5, r6, r7, r8, pc}
1a00721a:	6be2      	ldr	r2, [r4, #60]	; 0x3c
1a00721c:	2a00      	cmp	r2, #0
1a00721e:	dca2      	bgt.n	1a007166 <__sflush_r+0x1e>
1a007220:	e7f8      	b.n	1a007214 <__sflush_r+0xcc>
1a007222:	f8d8 3000 	ldr.w	r3, [r8]
1a007226:	2b00      	cmp	r3, #0
1a007228:	d0b0      	beq.n	1a00718c <__sflush_r+0x44>
1a00722a:	2b1d      	cmp	r3, #29
1a00722c:	d001      	beq.n	1a007232 <__sflush_r+0xea>
1a00722e:	2b16      	cmp	r3, #22
1a007230:	d12c      	bne.n	1a00728c <__sflush_r+0x144>
1a007232:	f8c8 6000 	str.w	r6, [r8]
1a007236:	2000      	movs	r0, #0
1a007238:	e7ed      	b.n	1a007216 <__sflush_r+0xce>
1a00723a:	f8d8 1000 	ldr.w	r1, [r8]
1a00723e:	291d      	cmp	r1, #29
1a007240:	d81a      	bhi.n	1a007278 <__sflush_r+0x130>
1a007242:	4b15      	ldr	r3, [pc, #84]	; (1a007298 <__sflush_r+0x150>)
1a007244:	f9b4 200c 	ldrsh.w	r2, [r4, #12]
1a007248:	40cb      	lsrs	r3, r1
1a00724a:	43db      	mvns	r3, r3
1a00724c:	f013 0301 	ands.w	r3, r3, #1
1a007250:	d114      	bne.n	1a00727c <__sflush_r+0x134>
1a007252:	6925      	ldr	r5, [r4, #16]
1a007254:	f422 6200 	bic.w	r2, r2, #2048	; 0x800
1a007258:	e9c4 5300 	strd	r5, r3, [r4]
1a00725c:	04d5      	lsls	r5, r2, #19
1a00725e:	81a2      	strh	r2, [r4, #12]
1a007260:	d5b1      	bpl.n	1a0071c6 <__sflush_r+0x7e>
1a007262:	2900      	cmp	r1, #0
1a007264:	d1af      	bne.n	1a0071c6 <__sflush_r+0x7e>
1a007266:	e7ad      	b.n	1a0071c4 <__sflush_r+0x7c>
1a007268:	89a3      	ldrh	r3, [r4, #12]
1a00726a:	f043 0340 	orr.w	r3, r3, #64	; 0x40
1a00726e:	81a3      	strh	r3, [r4, #12]
1a007270:	f04f 30ff 	mov.w	r0, #4294967295	; 0xffffffff
1a007274:	e8bd 81f0 	ldmia.w	sp!, {r4, r5, r6, r7, r8, pc}
1a007278:	f9b4 200c 	ldrsh.w	r2, [r4, #12]
1a00727c:	f042 0240 	orr.w	r2, r2, #64	; 0x40
1a007280:	81a2      	strh	r2, [r4, #12]
1a007282:	f04f 30ff 	mov.w	r0, #4294967295	; 0xffffffff
1a007286:	e7c6      	b.n	1a007216 <__sflush_r+0xce>
1a007288:	6d20      	ldr	r0, [r4, #80]	; 0x50
1a00728a:	e782      	b.n	1a007192 <__sflush_r+0x4a>
1a00728c:	89a3      	ldrh	r3, [r4, #12]
1a00728e:	f043 0340 	orr.w	r3, r3, #64	; 0x40
1a007292:	81a3      	strh	r3, [r4, #12]
1a007294:	e7bf      	b.n	1a007216 <__sflush_r+0xce>
1a007296:	bf00      	nop
1a007298:	20400001 	.word	0x20400001

1a00729c <_fflush_r>:
1a00729c:	b538      	push	{r3, r4, r5, lr}
1a00729e:	460d      	mov	r5, r1
1a0072a0:	4604      	mov	r4, r0
1a0072a2:	b108      	cbz	r0, 1a0072a8 <_fflush_r+0xc>
1a0072a4:	6b83      	ldr	r3, [r0, #56]	; 0x38
1a0072a6:	b1a3      	cbz	r3, 1a0072d2 <_fflush_r+0x36>
1a0072a8:	f9b5 000c 	ldrsh.w	r0, [r5, #12]
1a0072ac:	b1b8      	cbz	r0, 1a0072de <_fflush_r+0x42>
1a0072ae:	6e6b      	ldr	r3, [r5, #100]	; 0x64
1a0072b0:	07db      	lsls	r3, r3, #31
1a0072b2:	d401      	bmi.n	1a0072b8 <_fflush_r+0x1c>
1a0072b4:	0581      	lsls	r1, r0, #22
1a0072b6:	d51a      	bpl.n	1a0072ee <_fflush_r+0x52>
1a0072b8:	4620      	mov	r0, r4
1a0072ba:	4629      	mov	r1, r5
1a0072bc:	f7ff ff44 	bl	1a007148 <__sflush_r>
1a0072c0:	6e6b      	ldr	r3, [r5, #100]	; 0x64
1a0072c2:	07da      	lsls	r2, r3, #31
1a0072c4:	4604      	mov	r4, r0
1a0072c6:	d402      	bmi.n	1a0072ce <_fflush_r+0x32>
1a0072c8:	89ab      	ldrh	r3, [r5, #12]
1a0072ca:	059b      	lsls	r3, r3, #22
1a0072cc:	d50a      	bpl.n	1a0072e4 <_fflush_r+0x48>
1a0072ce:	4620      	mov	r0, r4
1a0072d0:	bd38      	pop	{r3, r4, r5, pc}
1a0072d2:	f000 f851 	bl	1a007378 <__sinit>
1a0072d6:	f9b5 000c 	ldrsh.w	r0, [r5, #12]
1a0072da:	2800      	cmp	r0, #0
1a0072dc:	d1e7      	bne.n	1a0072ae <_fflush_r+0x12>
1a0072de:	4604      	mov	r4, r0
1a0072e0:	4620      	mov	r0, r4
1a0072e2:	bd38      	pop	{r3, r4, r5, pc}
1a0072e4:	6da8      	ldr	r0, [r5, #88]	; 0x58
1a0072e6:	f000 fcaf 	bl	1a007c48 <__retarget_lock_release_recursive>
1a0072ea:	4620      	mov	r0, r4
1a0072ec:	bd38      	pop	{r3, r4, r5, pc}
1a0072ee:	6da8      	ldr	r0, [r5, #88]	; 0x58
1a0072f0:	f000 fca8 	bl	1a007c44 <__retarget_lock_acquire_recursive>
1a0072f4:	e7e0      	b.n	1a0072b8 <_fflush_r+0x1c>
1a0072f6:	bf00      	nop

1a0072f8 <fflush>:
1a0072f8:	b120      	cbz	r0, 1a007304 <fflush+0xc>
1a0072fa:	4b05      	ldr	r3, [pc, #20]	; (1a007310 <fflush+0x18>)
1a0072fc:	4601      	mov	r1, r0
1a0072fe:	6818      	ldr	r0, [r3, #0]
1a007300:	f7ff bfcc 	b.w	1a00729c <_fflush_r>
1a007304:	4b03      	ldr	r3, [pc, #12]	; (1a007314 <fflush+0x1c>)
1a007306:	4904      	ldr	r1, [pc, #16]	; (1a007318 <fflush+0x20>)
1a007308:	6818      	ldr	r0, [r3, #0]
1a00730a:	f000 bc2f 	b.w	1a007b6c <_fwalk_reent>
1a00730e:	bf00      	nop
1a007310:	10000048 	.word	0x10000048
1a007314:	1a00d7e0 	.word	0x1a00d7e0
1a007318:	1a00729d 	.word	0x1a00729d

1a00731c <std>:
1a00731c:	b510      	push	{r4, lr}
1a00731e:	2300      	movs	r3, #0
1a007320:	4604      	mov	r4, r0
1a007322:	8181      	strh	r1, [r0, #12]
1a007324:	81c2      	strh	r2, [r0, #14]
1a007326:	e9c0 3300 	strd	r3, r3, [r0]
1a00732a:	6083      	str	r3, [r0, #8]
1a00732c:	6643      	str	r3, [r0, #100]	; 0x64
1a00732e:	e9c0 3304 	strd	r3, r3, [r0, #16]
1a007332:	6183      	str	r3, [r0, #24]
1a007334:	4619      	mov	r1, r3
1a007336:	2208      	movs	r2, #8
1a007338:	305c      	adds	r0, #92	; 0x5c
1a00733a:	f7fb fc7f 	bl	1a002c3c <memset>
1a00733e:	4807      	ldr	r0, [pc, #28]	; (1a00735c <std+0x40>)
1a007340:	4907      	ldr	r1, [pc, #28]	; (1a007360 <std+0x44>)
1a007342:	4a08      	ldr	r2, [pc, #32]	; (1a007364 <std+0x48>)
1a007344:	4b08      	ldr	r3, [pc, #32]	; (1a007368 <std+0x4c>)
1a007346:	62e3      	str	r3, [r4, #44]	; 0x2c
1a007348:	e9c4 4007 	strd	r4, r0, [r4, #28]
1a00734c:	e9c4 1209 	strd	r1, r2, [r4, #36]	; 0x24
1a007350:	f104 0058 	add.w	r0, r4, #88	; 0x58
1a007354:	e8bd 4010 	ldmia.w	sp!, {r4, lr}
1a007358:	f000 bc70 	b.w	1a007c3c <__retarget_lock_init_recursive>
1a00735c:	1a00932d 	.word	0x1a00932d
1a007360:	1a009351 	.word	0x1a009351
1a007364:	1a00938d 	.word	0x1a00938d
1a007368:	1a0093ad 	.word	0x1a0093ad

1a00736c <_cleanup_r>:
1a00736c:	4901      	ldr	r1, [pc, #4]	; (1a007374 <_cleanup_r+0x8>)
1a00736e:	f000 bbfd 	b.w	1a007b6c <_fwalk_reent>
1a007372:	bf00      	nop
1a007374:	1a00c535 	.word	0x1a00c535

1a007378 <__sinit>:
1a007378:	b510      	push	{r4, lr}
1a00737a:	4604      	mov	r4, r0
1a00737c:	4812      	ldr	r0, [pc, #72]	; (1a0073c8 <__sinit+0x50>)
1a00737e:	f000 fc61 	bl	1a007c44 <__retarget_lock_acquire_recursive>
1a007382:	6ba2      	ldr	r2, [r4, #56]	; 0x38
1a007384:	b9d2      	cbnz	r2, 1a0073bc <__sinit+0x44>
1a007386:	f504 733b 	add.w	r3, r4, #748	; 0x2ec
1a00738a:	4810      	ldr	r0, [pc, #64]	; (1a0073cc <__sinit+0x54>)
1a00738c:	f8c4 32e8 	str.w	r3, [r4, #744]	; 0x2e8
1a007390:	2103      	movs	r1, #3
1a007392:	f8c4 22e0 	str.w	r2, [r4, #736]	; 0x2e0
1a007396:	63e0      	str	r0, [r4, #60]	; 0x3c
1a007398:	f8c4 12e4 	str.w	r1, [r4, #740]	; 0x2e4
1a00739c:	6860      	ldr	r0, [r4, #4]
1a00739e:	2104      	movs	r1, #4
1a0073a0:	f7ff ffbc 	bl	1a00731c <std>
1a0073a4:	2201      	movs	r2, #1
1a0073a6:	2109      	movs	r1, #9
1a0073a8:	68a0      	ldr	r0, [r4, #8]
1a0073aa:	f7ff ffb7 	bl	1a00731c <std>
1a0073ae:	2202      	movs	r2, #2
1a0073b0:	2112      	movs	r1, #18
1a0073b2:	68e0      	ldr	r0, [r4, #12]
1a0073b4:	f7ff ffb2 	bl	1a00731c <std>
1a0073b8:	2301      	movs	r3, #1
1a0073ba:	63a3      	str	r3, [r4, #56]	; 0x38
1a0073bc:	4802      	ldr	r0, [pc, #8]	; (1a0073c8 <__sinit+0x50>)
1a0073be:	e8bd 4010 	ldmia.w	sp!, {r4, lr}
1a0073c2:	f000 bc41 	b.w	1a007c48 <__retarget_lock_release_recursive>
1a0073c6:	bf00      	nop
1a0073c8:	10000a68 	.word	0x10000a68
1a0073cc:	1a00736d 	.word	0x1a00736d

1a0073d0 <__sfp_lock_acquire>:
1a0073d0:	4801      	ldr	r0, [pc, #4]	; (1a0073d8 <__sfp_lock_acquire+0x8>)
1a0073d2:	f000 bc37 	b.w	1a007c44 <__retarget_lock_acquire_recursive>
1a0073d6:	bf00      	nop
1a0073d8:	10000a7c 	.word	0x10000a7c

1a0073dc <__sfp_lock_release>:
1a0073dc:	4801      	ldr	r0, [pc, #4]	; (1a0073e4 <__sfp_lock_release+0x8>)
1a0073de:	f000 bc33 	b.w	1a007c48 <__retarget_lock_release_recursive>
1a0073e2:	bf00      	nop
1a0073e4:	10000a7c 	.word	0x10000a7c

1a0073e8 <_fread_r>:
1a0073e8:	e92d 4ff0 	stmdb	sp!, {r4, r5, r6, r7, r8, r9, sl, fp, lr}
1a0073ec:	b083      	sub	sp, #12
1a0073ee:	fb02 f703 	mul.w	r7, r2, r3
1a0073f2:	9c0c      	ldr	r4, [sp, #48]	; 0x30
1a0073f4:	2f00      	cmp	r7, #0
1a0073f6:	d052      	beq.n	1a00749e <_fread_r+0xb6>
1a0073f8:	4691      	mov	r9, r2
1a0073fa:	4698      	mov	r8, r3
1a0073fc:	460d      	mov	r5, r1
1a0073fe:	4606      	mov	r6, r0
1a007400:	b118      	cbz	r0, 1a00740a <_fread_r+0x22>
1a007402:	6b83      	ldr	r3, [r0, #56]	; 0x38
1a007404:	2b00      	cmp	r3, #0
1a007406:	f000 80af 	beq.w	1a007568 <_fread_r+0x180>
1a00740a:	6e61      	ldr	r1, [r4, #100]	; 0x64
1a00740c:	f9b4 300c 	ldrsh.w	r3, [r4, #12]
1a007410:	07c9      	lsls	r1, r1, #31
1a007412:	b29a      	uxth	r2, r3
1a007414:	d402      	bmi.n	1a00741c <_fread_r+0x34>
1a007416:	0590      	lsls	r0, r2, #22
1a007418:	f140 80a9 	bpl.w	1a00756e <_fread_r+0x186>
1a00741c:	0491      	lsls	r1, r2, #18
1a00741e:	d407      	bmi.n	1a007430 <_fread_r+0x48>
1a007420:	6e62      	ldr	r2, [r4, #100]	; 0x64
1a007422:	f443 5300 	orr.w	r3, r3, #8192	; 0x2000
1a007426:	f422 5100 	bic.w	r1, r2, #8192	; 0x2000
1a00742a:	81a3      	strh	r3, [r4, #12]
1a00742c:	b29a      	uxth	r2, r3
1a00742e:	6661      	str	r1, [r4, #100]	; 0x64
1a007430:	f8d4 a004 	ldr.w	sl, [r4, #4]
1a007434:	f1ba 0f00 	cmp.w	sl, #0
1a007438:	db35      	blt.n	1a0074a6 <_fread_r+0xbe>
1a00743a:	0792      	lsls	r2, r2, #30
1a00743c:	4653      	mov	r3, sl
1a00743e:	f8d4 c000 	ldr.w	ip, [r4]
1a007442:	d438      	bmi.n	1a0074b6 <_fread_r+0xce>
1a007444:	4632      	mov	r2, r6
1a007446:	46bb      	mov	fp, r7
1a007448:	4656      	mov	r6, sl
1a00744a:	4663      	mov	r3, ip
1a00744c:	4692      	mov	sl, r2
1a00744e:	e010      	b.n	1a007472 <_fread_r+0x8a>
1a007450:	f7fb fb5a 	bl	1a002b08 <memcpy>
1a007454:	6823      	ldr	r3, [r4, #0]
1a007456:	4433      	add	r3, r6
1a007458:	6023      	str	r3, [r4, #0]
1a00745a:	4621      	mov	r1, r4
1a00745c:	4650      	mov	r0, sl
1a00745e:	4435      	add	r5, r6
1a007460:	ebab 0b06 	sub.w	fp, fp, r6
1a007464:	f001 fe42 	bl	1a0090ec <__srefill_r>
1a007468:	2800      	cmp	r0, #0
1a00746a:	f040 808c 	bne.w	1a007586 <_fread_r+0x19e>
1a00746e:	e9d4 3600 	ldrd	r3, r6, [r4]
1a007472:	45b3      	cmp	fp, r6
1a007474:	4632      	mov	r2, r6
1a007476:	4619      	mov	r1, r3
1a007478:	4628      	mov	r0, r5
1a00747a:	d8e9      	bhi.n	1a007450 <_fread_r+0x68>
1a00747c:	465a      	mov	r2, fp
1a00747e:	f7fb fb43 	bl	1a002b08 <memcpy>
1a007482:	e9d4 7300 	ldrd	r7, r3, [r4]
1a007486:	eba3 030b 	sub.w	r3, r3, fp
1a00748a:	445f      	add	r7, fp
1a00748c:	e9c4 7300 	strd	r7, r3, [r4]
1a007490:	6e63      	ldr	r3, [r4, #100]	; 0x64
1a007492:	07da      	lsls	r2, r3, #31
1a007494:	d402      	bmi.n	1a00749c <_fread_r+0xb4>
1a007496:	89a3      	ldrh	r3, [r4, #12]
1a007498:	059b      	lsls	r3, r3, #22
1a00749a:	d56f      	bpl.n	1a00757c <_fread_r+0x194>
1a00749c:	4647      	mov	r7, r8
1a00749e:	4638      	mov	r0, r7
1a0074a0:	b003      	add	sp, #12
1a0074a2:	e8bd 8ff0 	ldmia.w	sp!, {r4, r5, r6, r7, r8, r9, sl, fp, pc}
1a0074a6:	2100      	movs	r1, #0
1a0074a8:	0792      	lsls	r2, r2, #30
1a0074aa:	460b      	mov	r3, r1
1a0074ac:	6061      	str	r1, [r4, #4]
1a0074ae:	468a      	mov	sl, r1
1a0074b0:	f8d4 c000 	ldr.w	ip, [r4]
1a0074b4:	d5c6      	bpl.n	1a007444 <_fread_r+0x5c>
1a0074b6:	42bb      	cmp	r3, r7
1a0074b8:	bf28      	it	cs
1a0074ba:	463b      	movcs	r3, r7
1a0074bc:	461a      	mov	r2, r3
1a0074be:	4661      	mov	r1, ip
1a0074c0:	4628      	mov	r0, r5
1a0074c2:	9300      	str	r3, [sp, #0]
1a0074c4:	f7fb fb20 	bl	1a002b08 <memcpy>
1a0074c8:	e9d4 0200 	ldrd	r0, r2, [r4]
1a0074cc:	9b00      	ldr	r3, [sp, #0]
1a0074ce:	6b21      	ldr	r1, [r4, #48]	; 0x30
1a0074d0:	eb00 0a03 	add.w	sl, r0, r3
1a0074d4:	1ad2      	subs	r2, r2, r3
1a0074d6:	e9c4 a200 	strd	sl, r2, [r4]
1a0074da:	eba7 0b03 	sub.w	fp, r7, r3
1a0074de:	2900      	cmp	r1, #0
1a0074e0:	d055      	beq.n	1a00758e <_fread_r+0x1a6>
1a0074e2:	f1bb 0f00 	cmp.w	fp, #0
1a0074e6:	d0d3      	beq.n	1a007490 <_fread_r+0xa8>
1a0074e8:	f104 0040 	add.w	r0, r4, #64	; 0x40
1a0074ec:	4281      	cmp	r1, r0
1a0074ee:	d005      	beq.n	1a0074fc <_fread_r+0x114>
1a0074f0:	4630      	mov	r0, r6
1a0074f2:	f000 f8a3 	bl	1a00763c <_free_r>
1a0074f6:	f8d4 a000 	ldr.w	sl, [r4]
1a0074fa:	9b00      	ldr	r3, [sp, #0]
1a0074fc:	2100      	movs	r1, #0
1a0074fe:	6321      	str	r1, [r4, #48]	; 0x30
1a007500:	e9d4 2104 	ldrd	r2, r1, [r4, #16]
1a007504:	441d      	add	r5, r3
1a007506:	9700      	str	r7, [sp, #0]
1a007508:	f8cd 8004 	str.w	r8, [sp, #4]
1a00750c:	460f      	mov	r7, r1
1a00750e:	46a8      	mov	r8, r5
1a007510:	4655      	mov	r5, sl
1a007512:	46b2      	mov	sl, r6
1a007514:	4616      	mov	r6, r2
1a007516:	e002      	b.n	1a00751e <_fread_r+0x136>
1a007518:	f1bb 0f00 	cmp.w	fp, #0
1a00751c:	d03b      	beq.n	1a007596 <_fread_r+0x1ae>
1a00751e:	e9c4 8b04 	strd	r8, fp, [r4, #16]
1a007522:	f8c4 8000 	str.w	r8, [r4]
1a007526:	4621      	mov	r1, r4
1a007528:	4650      	mov	r0, sl
1a00752a:	f001 fddf 	bl	1a0090ec <__srefill_r>
1a00752e:	6861      	ldr	r1, [r4, #4]
1a007530:	6025      	str	r5, [r4, #0]
1a007532:	2300      	movs	r3, #0
1a007534:	e9c4 6704 	strd	r6, r7, [r4, #16]
1a007538:	ebab 0b01 	sub.w	fp, fp, r1
1a00753c:	4488      	add	r8, r1
1a00753e:	6063      	str	r3, [r4, #4]
1a007540:	2800      	cmp	r0, #0
1a007542:	d0e9      	beq.n	1a007518 <_fread_r+0x130>
1a007544:	6e63      	ldr	r3, [r4, #100]	; 0x64
1a007546:	9f00      	ldr	r7, [sp, #0]
1a007548:	07dd      	lsls	r5, r3, #31
1a00754a:	d405      	bmi.n	1a007558 <_fread_r+0x170>
1a00754c:	89a3      	ldrh	r3, [r4, #12]
1a00754e:	0599      	lsls	r1, r3, #22
1a007550:	d402      	bmi.n	1a007558 <_fread_r+0x170>
1a007552:	6da0      	ldr	r0, [r4, #88]	; 0x58
1a007554:	f000 fb78 	bl	1a007c48 <__retarget_lock_release_recursive>
1a007558:	eba7 070b 	sub.w	r7, r7, fp
1a00755c:	fbb7 f7f9 	udiv	r7, r7, r9
1a007560:	4638      	mov	r0, r7
1a007562:	b003      	add	sp, #12
1a007564:	e8bd 8ff0 	ldmia.w	sp!, {r4, r5, r6, r7, r8, r9, sl, fp, pc}
1a007568:	f7ff ff06 	bl	1a007378 <__sinit>
1a00756c:	e74d      	b.n	1a00740a <_fread_r+0x22>
1a00756e:	6da0      	ldr	r0, [r4, #88]	; 0x58
1a007570:	f000 fb68 	bl	1a007c44 <__retarget_lock_acquire_recursive>
1a007574:	f9b4 300c 	ldrsh.w	r3, [r4, #12]
1a007578:	b29a      	uxth	r2, r3
1a00757a:	e74f      	b.n	1a00741c <_fread_r+0x34>
1a00757c:	6da0      	ldr	r0, [r4, #88]	; 0x58
1a00757e:	f000 fb63 	bl	1a007c48 <__retarget_lock_release_recursive>
1a007582:	4647      	mov	r7, r8
1a007584:	e78b      	b.n	1a00749e <_fread_r+0xb6>
1a007586:	6e63      	ldr	r3, [r4, #100]	; 0x64
1a007588:	07d8      	lsls	r0, r3, #31
1a00758a:	d4e5      	bmi.n	1a007558 <_fread_r+0x170>
1a00758c:	e7de      	b.n	1a00754c <_fread_r+0x164>
1a00758e:	f1bb 0f00 	cmp.w	fp, #0
1a007592:	d1b5      	bne.n	1a007500 <_fread_r+0x118>
1a007594:	e77c      	b.n	1a007490 <_fread_r+0xa8>
1a007596:	f8dd 8004 	ldr.w	r8, [sp, #4]
1a00759a:	e779      	b.n	1a007490 <_fread_r+0xa8>

1a00759c <_malloc_trim_r>:
1a00759c:	b5f8      	push	{r3, r4, r5, r6, r7, lr}
1a00759e:	4f24      	ldr	r7, [pc, #144]	; (1a007630 <_malloc_trim_r+0x94>)
1a0075a0:	460c      	mov	r4, r1
1a0075a2:	4606      	mov	r6, r0
1a0075a4:	f000 ff78 	bl	1a008498 <__malloc_lock>
1a0075a8:	68bb      	ldr	r3, [r7, #8]
1a0075aa:	685d      	ldr	r5, [r3, #4]
1a0075ac:	f5c4 617e 	rsb	r1, r4, #4064	; 0xfe0
1a0075b0:	310f      	adds	r1, #15
1a0075b2:	f025 0503 	bic.w	r5, r5, #3
1a0075b6:	4429      	add	r1, r5
1a0075b8:	f421 617f 	bic.w	r1, r1, #4080	; 0xff0
1a0075bc:	f021 010f 	bic.w	r1, r1, #15
1a0075c0:	f5a1 5480 	sub.w	r4, r1, #4096	; 0x1000
1a0075c4:	f5b4 5f80 	cmp.w	r4, #4096	; 0x1000
1a0075c8:	db07      	blt.n	1a0075da <_malloc_trim_r+0x3e>
1a0075ca:	2100      	movs	r1, #0
1a0075cc:	4630      	mov	r0, r6
1a0075ce:	f7f9 fa1d 	bl	1a000a0c <_sbrk_r>
1a0075d2:	68bb      	ldr	r3, [r7, #8]
1a0075d4:	442b      	add	r3, r5
1a0075d6:	4298      	cmp	r0, r3
1a0075d8:	d004      	beq.n	1a0075e4 <_malloc_trim_r+0x48>
1a0075da:	4630      	mov	r0, r6
1a0075dc:	f000 ff62 	bl	1a0084a4 <__malloc_unlock>
1a0075e0:	2000      	movs	r0, #0
1a0075e2:	bdf8      	pop	{r3, r4, r5, r6, r7, pc}
1a0075e4:	4261      	negs	r1, r4
1a0075e6:	4630      	mov	r0, r6
1a0075e8:	f7f9 fa10 	bl	1a000a0c <_sbrk_r>
1a0075ec:	3001      	adds	r0, #1
1a0075ee:	d00d      	beq.n	1a00760c <_malloc_trim_r+0x70>
1a0075f0:	4b10      	ldr	r3, [pc, #64]	; (1a007634 <_malloc_trim_r+0x98>)
1a0075f2:	68ba      	ldr	r2, [r7, #8]
1a0075f4:	6819      	ldr	r1, [r3, #0]
1a0075f6:	1b2d      	subs	r5, r5, r4
1a0075f8:	f045 0501 	orr.w	r5, r5, #1
1a0075fc:	4630      	mov	r0, r6
1a0075fe:	1b09      	subs	r1, r1, r4
1a007600:	6055      	str	r5, [r2, #4]
1a007602:	6019      	str	r1, [r3, #0]
1a007604:	f000 ff4e 	bl	1a0084a4 <__malloc_unlock>
1a007608:	2001      	movs	r0, #1
1a00760a:	bdf8      	pop	{r3, r4, r5, r6, r7, pc}
1a00760c:	2100      	movs	r1, #0
1a00760e:	4630      	mov	r0, r6
1a007610:	f7f9 f9fc 	bl	1a000a0c <_sbrk_r>
1a007614:	68ba      	ldr	r2, [r7, #8]
1a007616:	1a83      	subs	r3, r0, r2
1a007618:	2b0f      	cmp	r3, #15
1a00761a:	ddde      	ble.n	1a0075da <_malloc_trim_r+0x3e>
1a00761c:	4c06      	ldr	r4, [pc, #24]	; (1a007638 <_malloc_trim_r+0x9c>)
1a00761e:	4905      	ldr	r1, [pc, #20]	; (1a007634 <_malloc_trim_r+0x98>)
1a007620:	6824      	ldr	r4, [r4, #0]
1a007622:	f043 0301 	orr.w	r3, r3, #1
1a007626:	1b00      	subs	r0, r0, r4
1a007628:	6053      	str	r3, [r2, #4]
1a00762a:	6008      	str	r0, [r1, #0]
1a00762c:	e7d5      	b.n	1a0075da <_malloc_trim_r+0x3e>
1a00762e:	bf00      	nop
1a007630:	100005e4 	.word	0x100005e4
1a007634:	10000a20 	.word	0x10000a20
1a007638:	100009ec 	.word	0x100009ec

1a00763c <_free_r>:
1a00763c:	2900      	cmp	r1, #0
1a00763e:	d053      	beq.n	1a0076e8 <_free_r+0xac>
1a007640:	b5f8      	push	{r3, r4, r5, r6, r7, lr}
1a007642:	460c      	mov	r4, r1
1a007644:	4606      	mov	r6, r0
1a007646:	f000 ff27 	bl	1a008498 <__malloc_lock>
1a00764a:	f854 cc04 	ldr.w	ip, [r4, #-4]
1a00764e:	4f71      	ldr	r7, [pc, #452]	; (1a007814 <_free_r+0x1d8>)
1a007650:	f02c 0101 	bic.w	r1, ip, #1
1a007654:	f1a4 0508 	sub.w	r5, r4, #8
1a007658:	186b      	adds	r3, r5, r1
1a00765a:	68b8      	ldr	r0, [r7, #8]
1a00765c:	685a      	ldr	r2, [r3, #4]
1a00765e:	4298      	cmp	r0, r3
1a007660:	f022 0203 	bic.w	r2, r2, #3
1a007664:	d053      	beq.n	1a00770e <_free_r+0xd2>
1a007666:	f01c 0f01 	tst.w	ip, #1
1a00766a:	605a      	str	r2, [r3, #4]
1a00766c:	eb03 0002 	add.w	r0, r3, r2
1a007670:	d13b      	bne.n	1a0076ea <_free_r+0xae>
1a007672:	f854 cc08 	ldr.w	ip, [r4, #-8]
1a007676:	6840      	ldr	r0, [r0, #4]
1a007678:	eba5 050c 	sub.w	r5, r5, ip
1a00767c:	f107 0e08 	add.w	lr, r7, #8
1a007680:	68ac      	ldr	r4, [r5, #8]
1a007682:	4574      	cmp	r4, lr
1a007684:	4461      	add	r1, ip
1a007686:	f000 0001 	and.w	r0, r0, #1
1a00768a:	d075      	beq.n	1a007778 <_free_r+0x13c>
1a00768c:	f8d5 c00c 	ldr.w	ip, [r5, #12]
1a007690:	f8c4 c00c 	str.w	ip, [r4, #12]
1a007694:	f8cc 4008 	str.w	r4, [ip, #8]
1a007698:	b360      	cbz	r0, 1a0076f4 <_free_r+0xb8>
1a00769a:	f041 0301 	orr.w	r3, r1, #1
1a00769e:	606b      	str	r3, [r5, #4]
1a0076a0:	5069      	str	r1, [r5, r1]
1a0076a2:	f5b1 7f00 	cmp.w	r1, #512	; 0x200
1a0076a6:	d350      	bcc.n	1a00774a <_free_r+0x10e>
1a0076a8:	0a4b      	lsrs	r3, r1, #9
1a0076aa:	2b04      	cmp	r3, #4
1a0076ac:	d870      	bhi.n	1a007790 <_free_r+0x154>
1a0076ae:	098b      	lsrs	r3, r1, #6
1a0076b0:	f103 0439 	add.w	r4, r3, #57	; 0x39
1a0076b4:	00e4      	lsls	r4, r4, #3
1a0076b6:	f103 0238 	add.w	r2, r3, #56	; 0x38
1a0076ba:	1938      	adds	r0, r7, r4
1a0076bc:	593b      	ldr	r3, [r7, r4]
1a0076be:	3808      	subs	r0, #8
1a0076c0:	4298      	cmp	r0, r3
1a0076c2:	d078      	beq.n	1a0077b6 <_free_r+0x17a>
1a0076c4:	685a      	ldr	r2, [r3, #4]
1a0076c6:	f022 0203 	bic.w	r2, r2, #3
1a0076ca:	428a      	cmp	r2, r1
1a0076cc:	d971      	bls.n	1a0077b2 <_free_r+0x176>
1a0076ce:	689b      	ldr	r3, [r3, #8]
1a0076d0:	4298      	cmp	r0, r3
1a0076d2:	d1f7      	bne.n	1a0076c4 <_free_r+0x88>
1a0076d4:	68c3      	ldr	r3, [r0, #12]
1a0076d6:	e9c5 0302 	strd	r0, r3, [r5, #8]
1a0076da:	609d      	str	r5, [r3, #8]
1a0076dc:	60c5      	str	r5, [r0, #12]
1a0076de:	4630      	mov	r0, r6
1a0076e0:	e8bd 40f8 	ldmia.w	sp!, {r3, r4, r5, r6, r7, lr}
1a0076e4:	f000 bede 	b.w	1a0084a4 <__malloc_unlock>
1a0076e8:	4770      	bx	lr
1a0076ea:	6840      	ldr	r0, [r0, #4]
1a0076ec:	f000 0001 	and.w	r0, r0, #1
1a0076f0:	2800      	cmp	r0, #0
1a0076f2:	d1d2      	bne.n	1a00769a <_free_r+0x5e>
1a0076f4:	6898      	ldr	r0, [r3, #8]
1a0076f6:	4c48      	ldr	r4, [pc, #288]	; (1a007818 <_free_r+0x1dc>)
1a0076f8:	4411      	add	r1, r2
1a0076fa:	42a0      	cmp	r0, r4
1a0076fc:	f041 0201 	orr.w	r2, r1, #1
1a007700:	d062      	beq.n	1a0077c8 <_free_r+0x18c>
1a007702:	68db      	ldr	r3, [r3, #12]
1a007704:	60c3      	str	r3, [r0, #12]
1a007706:	6098      	str	r0, [r3, #8]
1a007708:	606a      	str	r2, [r5, #4]
1a00770a:	5069      	str	r1, [r5, r1]
1a00770c:	e7c9      	b.n	1a0076a2 <_free_r+0x66>
1a00770e:	f01c 0f01 	tst.w	ip, #1
1a007712:	440a      	add	r2, r1
1a007714:	d107      	bne.n	1a007726 <_free_r+0xea>
1a007716:	f854 3c08 	ldr.w	r3, [r4, #-8]
1a00771a:	1aed      	subs	r5, r5, r3
1a00771c:	441a      	add	r2, r3
1a00771e:	e9d5 1302 	ldrd	r1, r3, [r5, #8]
1a007722:	60cb      	str	r3, [r1, #12]
1a007724:	6099      	str	r1, [r3, #8]
1a007726:	4b3d      	ldr	r3, [pc, #244]	; (1a00781c <_free_r+0x1e0>)
1a007728:	681b      	ldr	r3, [r3, #0]
1a00772a:	f042 0101 	orr.w	r1, r2, #1
1a00772e:	4293      	cmp	r3, r2
1a007730:	6069      	str	r1, [r5, #4]
1a007732:	60bd      	str	r5, [r7, #8]
1a007734:	d804      	bhi.n	1a007740 <_free_r+0x104>
1a007736:	4b3a      	ldr	r3, [pc, #232]	; (1a007820 <_free_r+0x1e4>)
1a007738:	4630      	mov	r0, r6
1a00773a:	6819      	ldr	r1, [r3, #0]
1a00773c:	f7ff ff2e 	bl	1a00759c <_malloc_trim_r>
1a007740:	4630      	mov	r0, r6
1a007742:	e8bd 40f8 	ldmia.w	sp!, {r3, r4, r5, r6, r7, lr}
1a007746:	f000 bead 	b.w	1a0084a4 <__malloc_unlock>
1a00774a:	08c9      	lsrs	r1, r1, #3
1a00774c:	6878      	ldr	r0, [r7, #4]
1a00774e:	1c4a      	adds	r2, r1, #1
1a007750:	2301      	movs	r3, #1
1a007752:	1089      	asrs	r1, r1, #2
1a007754:	408b      	lsls	r3, r1
1a007756:	4303      	orrs	r3, r0
1a007758:	eb07 01c2 	add.w	r1, r7, r2, lsl #3
1a00775c:	f857 0032 	ldr.w	r0, [r7, r2, lsl #3]
1a007760:	607b      	str	r3, [r7, #4]
1a007762:	3908      	subs	r1, #8
1a007764:	e9c5 0102 	strd	r0, r1, [r5, #8]
1a007768:	f847 5032 	str.w	r5, [r7, r2, lsl #3]
1a00776c:	60c5      	str	r5, [r0, #12]
1a00776e:	4630      	mov	r0, r6
1a007770:	e8bd 40f8 	ldmia.w	sp!, {r3, r4, r5, r6, r7, lr}
1a007774:	f000 be96 	b.w	1a0084a4 <__malloc_unlock>
1a007778:	2800      	cmp	r0, #0
1a00777a:	d145      	bne.n	1a007808 <_free_r+0x1cc>
1a00777c:	440a      	add	r2, r1
1a00777e:	e9d3 1302 	ldrd	r1, r3, [r3, #8]
1a007782:	f042 0001 	orr.w	r0, r2, #1
1a007786:	60cb      	str	r3, [r1, #12]
1a007788:	6099      	str	r1, [r3, #8]
1a00778a:	6068      	str	r0, [r5, #4]
1a00778c:	50aa      	str	r2, [r5, r2]
1a00778e:	e7d7      	b.n	1a007740 <_free_r+0x104>
1a007790:	2b14      	cmp	r3, #20
1a007792:	d908      	bls.n	1a0077a6 <_free_r+0x16a>
1a007794:	2b54      	cmp	r3, #84	; 0x54
1a007796:	d81e      	bhi.n	1a0077d6 <_free_r+0x19a>
1a007798:	0b0b      	lsrs	r3, r1, #12
1a00779a:	f103 046f 	add.w	r4, r3, #111	; 0x6f
1a00779e:	00e4      	lsls	r4, r4, #3
1a0077a0:	f103 026e 	add.w	r2, r3, #110	; 0x6e
1a0077a4:	e789      	b.n	1a0076ba <_free_r+0x7e>
1a0077a6:	f103 045c 	add.w	r4, r3, #92	; 0x5c
1a0077aa:	00e4      	lsls	r4, r4, #3
1a0077ac:	f103 025b 	add.w	r2, r3, #91	; 0x5b
1a0077b0:	e783      	b.n	1a0076ba <_free_r+0x7e>
1a0077b2:	4618      	mov	r0, r3
1a0077b4:	e78e      	b.n	1a0076d4 <_free_r+0x98>
1a0077b6:	1093      	asrs	r3, r2, #2
1a0077b8:	6879      	ldr	r1, [r7, #4]
1a0077ba:	2201      	movs	r2, #1
1a0077bc:	fa02 f303 	lsl.w	r3, r2, r3
1a0077c0:	430b      	orrs	r3, r1
1a0077c2:	607b      	str	r3, [r7, #4]
1a0077c4:	4603      	mov	r3, r0
1a0077c6:	e786      	b.n	1a0076d6 <_free_r+0x9a>
1a0077c8:	e9c7 5504 	strd	r5, r5, [r7, #16]
1a0077cc:	e9c5 0002 	strd	r0, r0, [r5, #8]
1a0077d0:	606a      	str	r2, [r5, #4]
1a0077d2:	5069      	str	r1, [r5, r1]
1a0077d4:	e7b4      	b.n	1a007740 <_free_r+0x104>
1a0077d6:	f5b3 7faa 	cmp.w	r3, #340	; 0x154
1a0077da:	d806      	bhi.n	1a0077ea <_free_r+0x1ae>
1a0077dc:	0bcb      	lsrs	r3, r1, #15
1a0077de:	f103 0478 	add.w	r4, r3, #120	; 0x78
1a0077e2:	00e4      	lsls	r4, r4, #3
1a0077e4:	f103 0277 	add.w	r2, r3, #119	; 0x77
1a0077e8:	e767      	b.n	1a0076ba <_free_r+0x7e>
1a0077ea:	f240 5254 	movw	r2, #1364	; 0x554
1a0077ee:	4293      	cmp	r3, r2
1a0077f0:	d806      	bhi.n	1a007800 <_free_r+0x1c4>
1a0077f2:	0c8b      	lsrs	r3, r1, #18
1a0077f4:	f103 047d 	add.w	r4, r3, #125	; 0x7d
1a0077f8:	00e4      	lsls	r4, r4, #3
1a0077fa:	f103 027c 	add.w	r2, r3, #124	; 0x7c
1a0077fe:	e75c      	b.n	1a0076ba <_free_r+0x7e>
1a007800:	f44f 747e 	mov.w	r4, #1016	; 0x3f8
1a007804:	227e      	movs	r2, #126	; 0x7e
1a007806:	e758      	b.n	1a0076ba <_free_r+0x7e>
1a007808:	f041 0201 	orr.w	r2, r1, #1
1a00780c:	606a      	str	r2, [r5, #4]
1a00780e:	6019      	str	r1, [r3, #0]
1a007810:	e796      	b.n	1a007740 <_free_r+0x104>
1a007812:	bf00      	nop
1a007814:	100005e4 	.word	0x100005e4
1a007818:	100005ec 	.word	0x100005ec
1a00781c:	100009f0 	.word	0x100009f0
1a007820:	10000a50 	.word	0x10000a50

1a007824 <__sfvwrite_r>:
1a007824:	6893      	ldr	r3, [r2, #8]
1a007826:	2b00      	cmp	r3, #0
1a007828:	f000 80e4 	beq.w	1a0079f4 <__sfvwrite_r+0x1d0>
1a00782c:	e92d 4ff0 	stmdb	sp!, {r4, r5, r6, r7, r8, r9, sl, fp, lr}
1a007830:	f9b1 300c 	ldrsh.w	r3, [r1, #12]
1a007834:	b29b      	uxth	r3, r3
1a007836:	460c      	mov	r4, r1
1a007838:	0719      	lsls	r1, r3, #28
1a00783a:	b083      	sub	sp, #12
1a00783c:	4682      	mov	sl, r0
1a00783e:	4690      	mov	r8, r2
1a007840:	d535      	bpl.n	1a0078ae <__sfvwrite_r+0x8a>
1a007842:	6922      	ldr	r2, [r4, #16]
1a007844:	b39a      	cbz	r2, 1a0078ae <__sfvwrite_r+0x8a>
1a007846:	f013 0202 	ands.w	r2, r3, #2
1a00784a:	f8d8 6000 	ldr.w	r6, [r8]
1a00784e:	d03d      	beq.n	1a0078cc <__sfvwrite_r+0xa8>
1a007850:	2700      	movs	r7, #0
1a007852:	f8d4 b024 	ldr.w	fp, [r4, #36]	; 0x24
1a007856:	f8d4 c01c 	ldr.w	ip, [r4, #28]
1a00785a:	f8df 92c0 	ldr.w	r9, [pc, #704]	; 1a007b1c <__sfvwrite_r+0x2f8>
1a00785e:	463d      	mov	r5, r7
1a007860:	454d      	cmp	r5, r9
1a007862:	462b      	mov	r3, r5
1a007864:	463a      	mov	r2, r7
1a007866:	bf28      	it	cs
1a007868:	464b      	movcs	r3, r9
1a00786a:	4661      	mov	r1, ip
1a00786c:	4650      	mov	r0, sl
1a00786e:	b1d5      	cbz	r5, 1a0078a6 <__sfvwrite_r+0x82>
1a007870:	47d8      	blx	fp
1a007872:	2800      	cmp	r0, #0
1a007874:	f340 80c6 	ble.w	1a007a04 <__sfvwrite_r+0x1e0>
1a007878:	f8d8 3008 	ldr.w	r3, [r8, #8]
1a00787c:	1a1b      	subs	r3, r3, r0
1a00787e:	4407      	add	r7, r0
1a007880:	1a2d      	subs	r5, r5, r0
1a007882:	f8c8 3008 	str.w	r3, [r8, #8]
1a007886:	2b00      	cmp	r3, #0
1a007888:	f000 80b0 	beq.w	1a0079ec <__sfvwrite_r+0x1c8>
1a00788c:	f8d4 c01c 	ldr.w	ip, [r4, #28]
1a007890:	f8d4 b024 	ldr.w	fp, [r4, #36]	; 0x24
1a007894:	454d      	cmp	r5, r9
1a007896:	462b      	mov	r3, r5
1a007898:	463a      	mov	r2, r7
1a00789a:	bf28      	it	cs
1a00789c:	464b      	movcs	r3, r9
1a00789e:	4661      	mov	r1, ip
1a0078a0:	4650      	mov	r0, sl
1a0078a2:	2d00      	cmp	r5, #0
1a0078a4:	d1e4      	bne.n	1a007870 <__sfvwrite_r+0x4c>
1a0078a6:	e9d6 7500 	ldrd	r7, r5, [r6]
1a0078aa:	3608      	adds	r6, #8
1a0078ac:	e7d8      	b.n	1a007860 <__sfvwrite_r+0x3c>
1a0078ae:	4621      	mov	r1, r4
1a0078b0:	4650      	mov	r0, sl
1a0078b2:	f7fe fc41 	bl	1a006138 <__swsetup_r>
1a0078b6:	2800      	cmp	r0, #0
1a0078b8:	f040 812a 	bne.w	1a007b10 <__sfvwrite_r+0x2ec>
1a0078bc:	f9b4 300c 	ldrsh.w	r3, [r4, #12]
1a0078c0:	f8d8 6000 	ldr.w	r6, [r8]
1a0078c4:	b29b      	uxth	r3, r3
1a0078c6:	f013 0202 	ands.w	r2, r3, #2
1a0078ca:	d1c1      	bne.n	1a007850 <__sfvwrite_r+0x2c>
1a0078cc:	f013 0901 	ands.w	r9, r3, #1
1a0078d0:	d15d      	bne.n	1a00798e <__sfvwrite_r+0x16a>
1a0078d2:	68a7      	ldr	r7, [r4, #8]
1a0078d4:	6820      	ldr	r0, [r4, #0]
1a0078d6:	464d      	mov	r5, r9
1a0078d8:	2d00      	cmp	r5, #0
1a0078da:	d054      	beq.n	1a007986 <__sfvwrite_r+0x162>
1a0078dc:	059a      	lsls	r2, r3, #22
1a0078de:	f140 809b 	bpl.w	1a007a18 <__sfvwrite_r+0x1f4>
1a0078e2:	42af      	cmp	r7, r5
1a0078e4:	46bb      	mov	fp, r7
1a0078e6:	f200 80d8 	bhi.w	1a007a9a <__sfvwrite_r+0x276>
1a0078ea:	f413 6f90 	tst.w	r3, #1152	; 0x480
1a0078ee:	d02f      	beq.n	1a007950 <__sfvwrite_r+0x12c>
1a0078f0:	e9d4 1704 	ldrd	r1, r7, [r4, #16]
1a0078f4:	eb07 0747 	add.w	r7, r7, r7, lsl #1
1a0078f8:	eba0 0b01 	sub.w	fp, r0, r1
1a0078fc:	eb07 77d7 	add.w	r7, r7, r7, lsr #31
1a007900:	1c68      	adds	r0, r5, #1
1a007902:	107f      	asrs	r7, r7, #1
1a007904:	4458      	add	r0, fp
1a007906:	42b8      	cmp	r0, r7
1a007908:	463a      	mov	r2, r7
1a00790a:	bf84      	itt	hi
1a00790c:	4607      	movhi	r7, r0
1a00790e:	463a      	movhi	r2, r7
1a007910:	055b      	lsls	r3, r3, #21
1a007912:	f140 80d3 	bpl.w	1a007abc <__sfvwrite_r+0x298>
1a007916:	4611      	mov	r1, r2
1a007918:	4650      	mov	r0, sl
1a00791a:	f000 fa1f 	bl	1a007d5c <_malloc_r>
1a00791e:	2800      	cmp	r0, #0
1a007920:	f000 80f0 	beq.w	1a007b04 <__sfvwrite_r+0x2e0>
1a007924:	465a      	mov	r2, fp
1a007926:	6921      	ldr	r1, [r4, #16]
1a007928:	9001      	str	r0, [sp, #4]
1a00792a:	f7fb f8ed 	bl	1a002b08 <memcpy>
1a00792e:	89a2      	ldrh	r2, [r4, #12]
1a007930:	9b01      	ldr	r3, [sp, #4]
1a007932:	f422 6290 	bic.w	r2, r2, #1152	; 0x480
1a007936:	f042 0280 	orr.w	r2, r2, #128	; 0x80
1a00793a:	81a2      	strh	r2, [r4, #12]
1a00793c:	eba7 020b 	sub.w	r2, r7, fp
1a007940:	eb03 000b 	add.w	r0, r3, fp
1a007944:	6167      	str	r7, [r4, #20]
1a007946:	6123      	str	r3, [r4, #16]
1a007948:	6020      	str	r0, [r4, #0]
1a00794a:	60a2      	str	r2, [r4, #8]
1a00794c:	462f      	mov	r7, r5
1a00794e:	46ab      	mov	fp, r5
1a007950:	465a      	mov	r2, fp
1a007952:	4649      	mov	r1, r9
1a007954:	f000 fd3c 	bl	1a0083d0 <memmove>
1a007958:	68a2      	ldr	r2, [r4, #8]
1a00795a:	6823      	ldr	r3, [r4, #0]
1a00795c:	1bd2      	subs	r2, r2, r7
1a00795e:	445b      	add	r3, fp
1a007960:	462f      	mov	r7, r5
1a007962:	60a2      	str	r2, [r4, #8]
1a007964:	6023      	str	r3, [r4, #0]
1a007966:	2500      	movs	r5, #0
1a007968:	f8d8 3008 	ldr.w	r3, [r8, #8]
1a00796c:	1bdb      	subs	r3, r3, r7
1a00796e:	44b9      	add	r9, r7
1a007970:	f8c8 3008 	str.w	r3, [r8, #8]
1a007974:	2b00      	cmp	r3, #0
1a007976:	d039      	beq.n	1a0079ec <__sfvwrite_r+0x1c8>
1a007978:	f9b4 300c 	ldrsh.w	r3, [r4, #12]
1a00797c:	68a7      	ldr	r7, [r4, #8]
1a00797e:	6820      	ldr	r0, [r4, #0]
1a007980:	b29b      	uxth	r3, r3
1a007982:	2d00      	cmp	r5, #0
1a007984:	d1aa      	bne.n	1a0078dc <__sfvwrite_r+0xb8>
1a007986:	e9d6 9500 	ldrd	r9, r5, [r6]
1a00798a:	3608      	adds	r6, #8
1a00798c:	e7a4      	b.n	1a0078d8 <__sfvwrite_r+0xb4>
1a00798e:	4633      	mov	r3, r6
1a007990:	4691      	mov	r9, r2
1a007992:	4610      	mov	r0, r2
1a007994:	4617      	mov	r7, r2
1a007996:	464e      	mov	r6, r9
1a007998:	469b      	mov	fp, r3
1a00799a:	2f00      	cmp	r7, #0
1a00799c:	d06b      	beq.n	1a007a76 <__sfvwrite_r+0x252>
1a00799e:	2800      	cmp	r0, #0
1a0079a0:	d071      	beq.n	1a007a86 <__sfvwrite_r+0x262>
1a0079a2:	e9d4 1204 	ldrd	r1, r2, [r4, #16]
1a0079a6:	6820      	ldr	r0, [r4, #0]
1a0079a8:	45b9      	cmp	r9, r7
1a0079aa:	464b      	mov	r3, r9
1a0079ac:	bf28      	it	cs
1a0079ae:	463b      	movcs	r3, r7
1a0079b0:	4288      	cmp	r0, r1
1a0079b2:	d903      	bls.n	1a0079bc <__sfvwrite_r+0x198>
1a0079b4:	68a5      	ldr	r5, [r4, #8]
1a0079b6:	4415      	add	r5, r2
1a0079b8:	42ab      	cmp	r3, r5
1a0079ba:	dc71      	bgt.n	1a007aa0 <__sfvwrite_r+0x27c>
1a0079bc:	429a      	cmp	r2, r3
1a0079be:	f300 8093 	bgt.w	1a007ae8 <__sfvwrite_r+0x2c4>
1a0079c2:	4613      	mov	r3, r2
1a0079c4:	6a65      	ldr	r5, [r4, #36]	; 0x24
1a0079c6:	69e1      	ldr	r1, [r4, #28]
1a0079c8:	4632      	mov	r2, r6
1a0079ca:	4650      	mov	r0, sl
1a0079cc:	47a8      	blx	r5
1a0079ce:	1e05      	subs	r5, r0, #0
1a0079d0:	dd18      	ble.n	1a007a04 <__sfvwrite_r+0x1e0>
1a0079d2:	ebb9 0905 	subs.w	r9, r9, r5
1a0079d6:	d00f      	beq.n	1a0079f8 <__sfvwrite_r+0x1d4>
1a0079d8:	2001      	movs	r0, #1
1a0079da:	f8d8 3008 	ldr.w	r3, [r8, #8]
1a0079de:	1b5b      	subs	r3, r3, r5
1a0079e0:	442e      	add	r6, r5
1a0079e2:	1b7f      	subs	r7, r7, r5
1a0079e4:	f8c8 3008 	str.w	r3, [r8, #8]
1a0079e8:	2b00      	cmp	r3, #0
1a0079ea:	d1d6      	bne.n	1a00799a <__sfvwrite_r+0x176>
1a0079ec:	2000      	movs	r0, #0
1a0079ee:	b003      	add	sp, #12
1a0079f0:	e8bd 8ff0 	ldmia.w	sp!, {r4, r5, r6, r7, r8, r9, sl, fp, pc}
1a0079f4:	2000      	movs	r0, #0
1a0079f6:	4770      	bx	lr
1a0079f8:	4621      	mov	r1, r4
1a0079fa:	4650      	mov	r0, sl
1a0079fc:	f7ff fc4e 	bl	1a00729c <_fflush_r>
1a007a00:	2800      	cmp	r0, #0
1a007a02:	d0ea      	beq.n	1a0079da <__sfvwrite_r+0x1b6>
1a007a04:	f9b4 300c 	ldrsh.w	r3, [r4, #12]
1a007a08:	f043 0340 	orr.w	r3, r3, #64	; 0x40
1a007a0c:	f04f 30ff 	mov.w	r0, #4294967295	; 0xffffffff
1a007a10:	81a3      	strh	r3, [r4, #12]
1a007a12:	b003      	add	sp, #12
1a007a14:	e8bd 8ff0 	ldmia.w	sp!, {r4, r5, r6, r7, r8, r9, sl, fp, pc}
1a007a18:	6923      	ldr	r3, [r4, #16]
1a007a1a:	4283      	cmp	r3, r0
1a007a1c:	d315      	bcc.n	1a007a4a <__sfvwrite_r+0x226>
1a007a1e:	6961      	ldr	r1, [r4, #20]
1a007a20:	42a9      	cmp	r1, r5
1a007a22:	d812      	bhi.n	1a007a4a <__sfvwrite_r+0x226>
1a007a24:	4b3c      	ldr	r3, [pc, #240]	; (1a007b18 <__sfvwrite_r+0x2f4>)
1a007a26:	6a67      	ldr	r7, [r4, #36]	; 0x24
1a007a28:	429d      	cmp	r5, r3
1a007a2a:	bf94      	ite	ls
1a007a2c:	462b      	movls	r3, r5
1a007a2e:	f06f 4300 	mvnhi.w	r3, #2147483648	; 0x80000000
1a007a32:	464a      	mov	r2, r9
1a007a34:	fb93 f3f1 	sdiv	r3, r3, r1
1a007a38:	4650      	mov	r0, sl
1a007a3a:	fb01 f303 	mul.w	r3, r1, r3
1a007a3e:	69e1      	ldr	r1, [r4, #28]
1a007a40:	47b8      	blx	r7
1a007a42:	1e07      	subs	r7, r0, #0
1a007a44:	ddde      	ble.n	1a007a04 <__sfvwrite_r+0x1e0>
1a007a46:	1bed      	subs	r5, r5, r7
1a007a48:	e78e      	b.n	1a007968 <__sfvwrite_r+0x144>
1a007a4a:	42af      	cmp	r7, r5
1a007a4c:	bf28      	it	cs
1a007a4e:	462f      	movcs	r7, r5
1a007a50:	463a      	mov	r2, r7
1a007a52:	4649      	mov	r1, r9
1a007a54:	f000 fcbc 	bl	1a0083d0 <memmove>
1a007a58:	68a3      	ldr	r3, [r4, #8]
1a007a5a:	6822      	ldr	r2, [r4, #0]
1a007a5c:	1bdb      	subs	r3, r3, r7
1a007a5e:	443a      	add	r2, r7
1a007a60:	60a3      	str	r3, [r4, #8]
1a007a62:	6022      	str	r2, [r4, #0]
1a007a64:	2b00      	cmp	r3, #0
1a007a66:	d1ee      	bne.n	1a007a46 <__sfvwrite_r+0x222>
1a007a68:	4621      	mov	r1, r4
1a007a6a:	4650      	mov	r0, sl
1a007a6c:	f7ff fc16 	bl	1a00729c <_fflush_r>
1a007a70:	2800      	cmp	r0, #0
1a007a72:	d0e8      	beq.n	1a007a46 <__sfvwrite_r+0x222>
1a007a74:	e7c6      	b.n	1a007a04 <__sfvwrite_r+0x1e0>
1a007a76:	f10b 0308 	add.w	r3, fp, #8
1a007a7a:	e953 6702 	ldrd	r6, r7, [r3, #-8]
1a007a7e:	469b      	mov	fp, r3
1a007a80:	3308      	adds	r3, #8
1a007a82:	2f00      	cmp	r7, #0
1a007a84:	d0f9      	beq.n	1a007a7a <__sfvwrite_r+0x256>
1a007a86:	463a      	mov	r2, r7
1a007a88:	210a      	movs	r1, #10
1a007a8a:	4630      	mov	r0, r6
1a007a8c:	f000 fc50 	bl	1a008330 <memchr>
1a007a90:	b338      	cbz	r0, 1a007ae2 <__sfvwrite_r+0x2be>
1a007a92:	3001      	adds	r0, #1
1a007a94:	eba0 0906 	sub.w	r9, r0, r6
1a007a98:	e783      	b.n	1a0079a2 <__sfvwrite_r+0x17e>
1a007a9a:	462f      	mov	r7, r5
1a007a9c:	46ab      	mov	fp, r5
1a007a9e:	e757      	b.n	1a007950 <__sfvwrite_r+0x12c>
1a007aa0:	4631      	mov	r1, r6
1a007aa2:	462a      	mov	r2, r5
1a007aa4:	f000 fc94 	bl	1a0083d0 <memmove>
1a007aa8:	6823      	ldr	r3, [r4, #0]
1a007aaa:	442b      	add	r3, r5
1a007aac:	6023      	str	r3, [r4, #0]
1a007aae:	4621      	mov	r1, r4
1a007ab0:	4650      	mov	r0, sl
1a007ab2:	f7ff fbf3 	bl	1a00729c <_fflush_r>
1a007ab6:	2800      	cmp	r0, #0
1a007ab8:	d08b      	beq.n	1a0079d2 <__sfvwrite_r+0x1ae>
1a007aba:	e7a3      	b.n	1a007a04 <__sfvwrite_r+0x1e0>
1a007abc:	4650      	mov	r0, sl
1a007abe:	f001 f95d 	bl	1a008d7c <_realloc_r>
1a007ac2:	4603      	mov	r3, r0
1a007ac4:	2800      	cmp	r0, #0
1a007ac6:	f47f af39 	bne.w	1a00793c <__sfvwrite_r+0x118>
1a007aca:	6921      	ldr	r1, [r4, #16]
1a007acc:	4650      	mov	r0, sl
1a007ace:	f7ff fdb5 	bl	1a00763c <_free_r>
1a007ad2:	f9b4 300c 	ldrsh.w	r3, [r4, #12]
1a007ad6:	220c      	movs	r2, #12
1a007ad8:	f023 0380 	bic.w	r3, r3, #128	; 0x80
1a007adc:	f8ca 2000 	str.w	r2, [sl]
1a007ae0:	e792      	b.n	1a007a08 <__sfvwrite_r+0x1e4>
1a007ae2:	f107 0901 	add.w	r9, r7, #1
1a007ae6:	e75c      	b.n	1a0079a2 <__sfvwrite_r+0x17e>
1a007ae8:	461a      	mov	r2, r3
1a007aea:	4631      	mov	r1, r6
1a007aec:	9301      	str	r3, [sp, #4]
1a007aee:	f000 fc6f 	bl	1a0083d0 <memmove>
1a007af2:	9b01      	ldr	r3, [sp, #4]
1a007af4:	68a1      	ldr	r1, [r4, #8]
1a007af6:	6822      	ldr	r2, [r4, #0]
1a007af8:	1ac9      	subs	r1, r1, r3
1a007afa:	441a      	add	r2, r3
1a007afc:	60a1      	str	r1, [r4, #8]
1a007afe:	6022      	str	r2, [r4, #0]
1a007b00:	461d      	mov	r5, r3
1a007b02:	e766      	b.n	1a0079d2 <__sfvwrite_r+0x1ae>
1a007b04:	230c      	movs	r3, #12
1a007b06:	f8ca 3000 	str.w	r3, [sl]
1a007b0a:	f9b4 300c 	ldrsh.w	r3, [r4, #12]
1a007b0e:	e77b      	b.n	1a007a08 <__sfvwrite_r+0x1e4>
1a007b10:	f04f 30ff 	mov.w	r0, #4294967295	; 0xffffffff
1a007b14:	e76b      	b.n	1a0079ee <__sfvwrite_r+0x1ca>
1a007b16:	bf00      	nop
1a007b18:	7ffffffe 	.word	0x7ffffffe
1a007b1c:	7ffffc00 	.word	0x7ffffc00

1a007b20 <_fwalk>:
1a007b20:	e92d 41f0 	stmdb	sp!, {r4, r5, r6, r7, r8, lr}
1a007b24:	f510 7738 	adds.w	r7, r0, #736	; 0x2e0
1a007b28:	d01b      	beq.n	1a007b62 <_fwalk+0x42>
1a007b2a:	4688      	mov	r8, r1
1a007b2c:	2600      	movs	r6, #0
1a007b2e:	e9d7 5401 	ldrd	r5, r4, [r7, #4]
1a007b32:	3d01      	subs	r5, #1
1a007b34:	d40f      	bmi.n	1a007b56 <_fwalk+0x36>
1a007b36:	89a3      	ldrh	r3, [r4, #12]
1a007b38:	2b01      	cmp	r3, #1
1a007b3a:	f105 35ff 	add.w	r5, r5, #4294967295	; 0xffffffff
1a007b3e:	4620      	mov	r0, r4
1a007b40:	d905      	bls.n	1a007b4e <_fwalk+0x2e>
1a007b42:	f9b4 300e 	ldrsh.w	r3, [r4, #14]
1a007b46:	3301      	adds	r3, #1
1a007b48:	d001      	beq.n	1a007b4e <_fwalk+0x2e>
1a007b4a:	47c0      	blx	r8
1a007b4c:	4306      	orrs	r6, r0
1a007b4e:	1c6b      	adds	r3, r5, #1
1a007b50:	f104 0468 	add.w	r4, r4, #104	; 0x68
1a007b54:	d1ef      	bne.n	1a007b36 <_fwalk+0x16>
1a007b56:	683f      	ldr	r7, [r7, #0]
1a007b58:	2f00      	cmp	r7, #0
1a007b5a:	d1e8      	bne.n	1a007b2e <_fwalk+0xe>
1a007b5c:	4630      	mov	r0, r6
1a007b5e:	e8bd 81f0 	ldmia.w	sp!, {r4, r5, r6, r7, r8, pc}
1a007b62:	463e      	mov	r6, r7
1a007b64:	4630      	mov	r0, r6
1a007b66:	e8bd 81f0 	ldmia.w	sp!, {r4, r5, r6, r7, r8, pc}
1a007b6a:	bf00      	nop

1a007b6c <_fwalk_reent>:
1a007b6c:	e92d 43f8 	stmdb	sp!, {r3, r4, r5, r6, r7, r8, r9, lr}
1a007b70:	f510 7738 	adds.w	r7, r0, #736	; 0x2e0
1a007b74:	d01f      	beq.n	1a007bb6 <_fwalk_reent+0x4a>
1a007b76:	4688      	mov	r8, r1
1a007b78:	4606      	mov	r6, r0
1a007b7a:	f04f 0900 	mov.w	r9, #0
1a007b7e:	e9d7 5401 	ldrd	r5, r4, [r7, #4]
1a007b82:	3d01      	subs	r5, #1
1a007b84:	d411      	bmi.n	1a007baa <_fwalk_reent+0x3e>
1a007b86:	89a3      	ldrh	r3, [r4, #12]
1a007b88:	2b01      	cmp	r3, #1
1a007b8a:	f105 35ff 	add.w	r5, r5, #4294967295	; 0xffffffff
1a007b8e:	4621      	mov	r1, r4
1a007b90:	4630      	mov	r0, r6
1a007b92:	d906      	bls.n	1a007ba2 <_fwalk_reent+0x36>
1a007b94:	f9b4 300e 	ldrsh.w	r3, [r4, #14]
1a007b98:	3301      	adds	r3, #1
1a007b9a:	d002      	beq.n	1a007ba2 <_fwalk_reent+0x36>
1a007b9c:	47c0      	blx	r8
1a007b9e:	ea49 0900 	orr.w	r9, r9, r0
1a007ba2:	1c6b      	adds	r3, r5, #1
1a007ba4:	f104 0468 	add.w	r4, r4, #104	; 0x68
1a007ba8:	d1ed      	bne.n	1a007b86 <_fwalk_reent+0x1a>
1a007baa:	683f      	ldr	r7, [r7, #0]
1a007bac:	2f00      	cmp	r7, #0
1a007bae:	d1e6      	bne.n	1a007b7e <_fwalk_reent+0x12>
1a007bb0:	4648      	mov	r0, r9
1a007bb2:	e8bd 83f8 	ldmia.w	sp!, {r3, r4, r5, r6, r7, r8, r9, pc}
1a007bb6:	46b9      	mov	r9, r7
1a007bb8:	4648      	mov	r0, r9
1a007bba:	e8bd 83f8 	ldmia.w	sp!, {r3, r4, r5, r6, r7, r8, r9, pc}
1a007bbe:	bf00      	nop

1a007bc0 <iswspace>:
1a007bc0:	28ff      	cmp	r0, #255	; 0xff
1a007bc2:	d901      	bls.n	1a007bc8 <iswspace+0x8>
1a007bc4:	2000      	movs	r0, #0
1a007bc6:	4770      	bx	lr
1a007bc8:	b510      	push	{r4, lr}
1a007bca:	4604      	mov	r4, r0
1a007bcc:	f000 f818 	bl	1a007c00 <__locale_ctype_ptr>
1a007bd0:	4420      	add	r0, r4
1a007bd2:	7840      	ldrb	r0, [r0, #1]
1a007bd4:	f000 0008 	and.w	r0, r0, #8
1a007bd8:	bd10      	pop	{r4, pc}
1a007bda:	bf00      	nop

1a007bdc <__locale_mb_cur_max>:
1a007bdc:	4b04      	ldr	r3, [pc, #16]	; (1a007bf0 <__locale_mb_cur_max+0x14>)
1a007bde:	4a05      	ldr	r2, [pc, #20]	; (1a007bf4 <__locale_mb_cur_max+0x18>)
1a007be0:	681b      	ldr	r3, [r3, #0]
1a007be2:	6b5b      	ldr	r3, [r3, #52]	; 0x34
1a007be4:	2b00      	cmp	r3, #0
1a007be6:	bf08      	it	eq
1a007be8:	4613      	moveq	r3, r2
1a007bea:	f893 0128 	ldrb.w	r0, [r3, #296]	; 0x128
1a007bee:	4770      	bx	lr
1a007bf0:	10000048 	.word	0x10000048
1a007bf4:	10000478 	.word	0x10000478

1a007bf8 <__locale_ctype_ptr_l>:
1a007bf8:	f8d0 00ec 	ldr.w	r0, [r0, #236]	; 0xec
1a007bfc:	4770      	bx	lr
1a007bfe:	bf00      	nop

1a007c00 <__locale_ctype_ptr>:
1a007c00:	4b04      	ldr	r3, [pc, #16]	; (1a007c14 <__locale_ctype_ptr+0x14>)
1a007c02:	4a05      	ldr	r2, [pc, #20]	; (1a007c18 <__locale_ctype_ptr+0x18>)
1a007c04:	681b      	ldr	r3, [r3, #0]
1a007c06:	6b5b      	ldr	r3, [r3, #52]	; 0x34
1a007c08:	2b00      	cmp	r3, #0
1a007c0a:	bf08      	it	eq
1a007c0c:	4613      	moveq	r3, r2
1a007c0e:	f8d3 00ec 	ldr.w	r0, [r3, #236]	; 0xec
1a007c12:	4770      	bx	lr
1a007c14:	10000048 	.word	0x10000048
1a007c18:	10000478 	.word	0x10000478

1a007c1c <__localeconv_l>:
1a007c1c:	30f0      	adds	r0, #240	; 0xf0
1a007c1e:	4770      	bx	lr

1a007c20 <_localeconv_r>:
1a007c20:	4a04      	ldr	r2, [pc, #16]	; (1a007c34 <_localeconv_r+0x14>)
1a007c22:	4b05      	ldr	r3, [pc, #20]	; (1a007c38 <_localeconv_r+0x18>)
1a007c24:	6812      	ldr	r2, [r2, #0]
1a007c26:	6b50      	ldr	r0, [r2, #52]	; 0x34
1a007c28:	2800      	cmp	r0, #0
1a007c2a:	bf08      	it	eq
1a007c2c:	4618      	moveq	r0, r3
1a007c2e:	30f0      	adds	r0, #240	; 0xf0
1a007c30:	4770      	bx	lr
1a007c32:	bf00      	nop
1a007c34:	10000048 	.word	0x10000048
1a007c38:	10000478 	.word	0x10000478

1a007c3c <__retarget_lock_init_recursive>:
1a007c3c:	4770      	bx	lr
1a007c3e:	bf00      	nop

1a007c40 <__retarget_lock_close_recursive>:
1a007c40:	4770      	bx	lr
1a007c42:	bf00      	nop

1a007c44 <__retarget_lock_acquire_recursive>:
1a007c44:	4770      	bx	lr
1a007c46:	bf00      	nop

1a007c48 <__retarget_lock_release_recursive>:
1a007c48:	4770      	bx	lr
1a007c4a:	bf00      	nop

1a007c4c <__swhatbuf_r>:
1a007c4c:	b570      	push	{r4, r5, r6, lr}
1a007c4e:	460c      	mov	r4, r1
1a007c50:	f9b1 100e 	ldrsh.w	r1, [r1, #14]
1a007c54:	2900      	cmp	r1, #0
1a007c56:	b096      	sub	sp, #88	; 0x58
1a007c58:	4615      	mov	r5, r2
1a007c5a:	461e      	mov	r6, r3
1a007c5c:	da0f      	bge.n	1a007c7e <__swhatbuf_r+0x32>
1a007c5e:	89a2      	ldrh	r2, [r4, #12]
1a007c60:	2300      	movs	r3, #0
1a007c62:	f012 0080 	ands.w	r0, r2, #128	; 0x80
1a007c66:	6033      	str	r3, [r6, #0]
1a007c68:	d104      	bne.n	1a007c74 <__swhatbuf_r+0x28>
1a007c6a:	f44f 6380 	mov.w	r3, #1024	; 0x400
1a007c6e:	602b      	str	r3, [r5, #0]
1a007c70:	b016      	add	sp, #88	; 0x58
1a007c72:	bd70      	pop	{r4, r5, r6, pc}
1a007c74:	2240      	movs	r2, #64	; 0x40
1a007c76:	4618      	mov	r0, r3
1a007c78:	602a      	str	r2, [r5, #0]
1a007c7a:	b016      	add	sp, #88	; 0x58
1a007c7c:	bd70      	pop	{r4, r5, r6, pc}
1a007c7e:	466a      	mov	r2, sp
1a007c80:	f7f8 fe75 	bl	1a00096e <_fstat_r>
1a007c84:	2800      	cmp	r0, #0
1a007c86:	dbea      	blt.n	1a007c5e <__swhatbuf_r+0x12>
1a007c88:	9b01      	ldr	r3, [sp, #4]
1a007c8a:	f403 4370 	and.w	r3, r3, #61440	; 0xf000
1a007c8e:	f5a3 5300 	sub.w	r3, r3, #8192	; 0x2000
1a007c92:	fab3 f383 	clz	r3, r3
1a007c96:	095b      	lsrs	r3, r3, #5
1a007c98:	f44f 6280 	mov.w	r2, #1024	; 0x400
1a007c9c:	f44f 6000 	mov.w	r0, #2048	; 0x800
1a007ca0:	6033      	str	r3, [r6, #0]
1a007ca2:	602a      	str	r2, [r5, #0]
1a007ca4:	b016      	add	sp, #88	; 0x58
1a007ca6:	bd70      	pop	{r4, r5, r6, pc}

1a007ca8 <__smakebuf_r>:
1a007ca8:	898a      	ldrh	r2, [r1, #12]
1a007caa:	0792      	lsls	r2, r2, #30
1a007cac:	460b      	mov	r3, r1
1a007cae:	d506      	bpl.n	1a007cbe <__smakebuf_r+0x16>
1a007cb0:	f101 0243 	add.w	r2, r1, #67	; 0x43
1a007cb4:	2101      	movs	r1, #1
1a007cb6:	601a      	str	r2, [r3, #0]
1a007cb8:	e9c3 2104 	strd	r2, r1, [r3, #16]
1a007cbc:	4770      	bx	lr
1a007cbe:	b570      	push	{r4, r5, r6, lr}
1a007cc0:	b082      	sub	sp, #8
1a007cc2:	ab01      	add	r3, sp, #4
1a007cc4:	466a      	mov	r2, sp
1a007cc6:	460c      	mov	r4, r1
1a007cc8:	4605      	mov	r5, r0
1a007cca:	f7ff ffbf 	bl	1a007c4c <__swhatbuf_r>
1a007cce:	9900      	ldr	r1, [sp, #0]
1a007cd0:	4606      	mov	r6, r0
1a007cd2:	4628      	mov	r0, r5
1a007cd4:	f000 f842 	bl	1a007d5c <_malloc_r>
1a007cd8:	f9b4 300c 	ldrsh.w	r3, [r4, #12]
1a007cdc:	b1d8      	cbz	r0, 1a007d16 <__smakebuf_r+0x6e>
1a007cde:	4916      	ldr	r1, [pc, #88]	; (1a007d38 <__smakebuf_r+0x90>)
1a007ce0:	63e9      	str	r1, [r5, #60]	; 0x3c
1a007ce2:	9a01      	ldr	r2, [sp, #4]
1a007ce4:	9900      	ldr	r1, [sp, #0]
1a007ce6:	6020      	str	r0, [r4, #0]
1a007ce8:	f043 0380 	orr.w	r3, r3, #128	; 0x80
1a007cec:	81a3      	strh	r3, [r4, #12]
1a007cee:	e9c4 0104 	strd	r0, r1, [r4, #16]
1a007cf2:	b91a      	cbnz	r2, 1a007cfc <__smakebuf_r+0x54>
1a007cf4:	4333      	orrs	r3, r6
1a007cf6:	81a3      	strh	r3, [r4, #12]
1a007cf8:	b002      	add	sp, #8
1a007cfa:	bd70      	pop	{r4, r5, r6, pc}
1a007cfc:	4628      	mov	r0, r5
1a007cfe:	f9b4 100e 	ldrsh.w	r1, [r4, #14]
1a007d02:	f7f8 fe39 	bl	1a000978 <_isatty_r>
1a007d06:	b1a0      	cbz	r0, 1a007d32 <__smakebuf_r+0x8a>
1a007d08:	89a3      	ldrh	r3, [r4, #12]
1a007d0a:	f023 0303 	bic.w	r3, r3, #3
1a007d0e:	f043 0301 	orr.w	r3, r3, #1
1a007d12:	b21b      	sxth	r3, r3
1a007d14:	e7ee      	b.n	1a007cf4 <__smakebuf_r+0x4c>
1a007d16:	059a      	lsls	r2, r3, #22
1a007d18:	d4ee      	bmi.n	1a007cf8 <__smakebuf_r+0x50>
1a007d1a:	f023 0303 	bic.w	r3, r3, #3
1a007d1e:	f104 0243 	add.w	r2, r4, #67	; 0x43
1a007d22:	f043 0302 	orr.w	r3, r3, #2
1a007d26:	2101      	movs	r1, #1
1a007d28:	81a3      	strh	r3, [r4, #12]
1a007d2a:	6022      	str	r2, [r4, #0]
1a007d2c:	e9c4 2104 	strd	r2, r1, [r4, #16]
1a007d30:	e7e2      	b.n	1a007cf8 <__smakebuf_r+0x50>
1a007d32:	f9b4 300c 	ldrsh.w	r3, [r4, #12]
1a007d36:	e7dd      	b.n	1a007cf4 <__smakebuf_r+0x4c>
1a007d38:	1a00736d 	.word	0x1a00736d

1a007d3c <malloc>:
1a007d3c:	4b02      	ldr	r3, [pc, #8]	; (1a007d48 <malloc+0xc>)
1a007d3e:	4601      	mov	r1, r0
1a007d40:	6818      	ldr	r0, [r3, #0]
1a007d42:	f000 b80b 	b.w	1a007d5c <_malloc_r>
1a007d46:	bf00      	nop
1a007d48:	10000048 	.word	0x10000048

1a007d4c <free>:
1a007d4c:	4b02      	ldr	r3, [pc, #8]	; (1a007d58 <free+0xc>)
1a007d4e:	4601      	mov	r1, r0
1a007d50:	6818      	ldr	r0, [r3, #0]
1a007d52:	f7ff bc73 	b.w	1a00763c <_free_r>
1a007d56:	bf00      	nop
1a007d58:	10000048 	.word	0x10000048

1a007d5c <_malloc_r>:
1a007d5c:	e92d 4ff0 	stmdb	sp!, {r4, r5, r6, r7, r8, r9, sl, fp, lr}
1a007d60:	f101 050b 	add.w	r5, r1, #11
1a007d64:	2d16      	cmp	r5, #22
1a007d66:	b083      	sub	sp, #12
1a007d68:	4606      	mov	r6, r0
1a007d6a:	d823      	bhi.n	1a007db4 <_malloc_r+0x58>
1a007d6c:	2910      	cmp	r1, #16
1a007d6e:	f200 80b9 	bhi.w	1a007ee4 <_malloc_r+0x188>
1a007d72:	f000 fb91 	bl	1a008498 <__malloc_lock>
1a007d76:	2510      	movs	r5, #16
1a007d78:	2318      	movs	r3, #24
1a007d7a:	2002      	movs	r0, #2
1a007d7c:	4fc5      	ldr	r7, [pc, #788]	; (1a008094 <_malloc_r+0x338>)
1a007d7e:	443b      	add	r3, r7
1a007d80:	f1a3 0208 	sub.w	r2, r3, #8
1a007d84:	685c      	ldr	r4, [r3, #4]
1a007d86:	4294      	cmp	r4, r2
1a007d88:	f000 8166 	beq.w	1a008058 <_malloc_r+0x2fc>
1a007d8c:	6863      	ldr	r3, [r4, #4]
1a007d8e:	f023 0303 	bic.w	r3, r3, #3
1a007d92:	4423      	add	r3, r4
1a007d94:	e9d4 5102 	ldrd	r5, r1, [r4, #8]
1a007d98:	685a      	ldr	r2, [r3, #4]
1a007d9a:	60e9      	str	r1, [r5, #12]
1a007d9c:	f042 0201 	orr.w	r2, r2, #1
1a007da0:	608d      	str	r5, [r1, #8]
1a007da2:	4630      	mov	r0, r6
1a007da4:	605a      	str	r2, [r3, #4]
1a007da6:	f000 fb7d 	bl	1a0084a4 <__malloc_unlock>
1a007daa:	3408      	adds	r4, #8
1a007dac:	4620      	mov	r0, r4
1a007dae:	b003      	add	sp, #12
1a007db0:	e8bd 8ff0 	ldmia.w	sp!, {r4, r5, r6, r7, r8, r9, sl, fp, pc}
1a007db4:	f035 0507 	bics.w	r5, r5, #7
1a007db8:	f100 8094 	bmi.w	1a007ee4 <_malloc_r+0x188>
1a007dbc:	42a9      	cmp	r1, r5
1a007dbe:	f200 8091 	bhi.w	1a007ee4 <_malloc_r+0x188>
1a007dc2:	f000 fb69 	bl	1a008498 <__malloc_lock>
1a007dc6:	f5b5 7ffc 	cmp.w	r5, #504	; 0x1f8
1a007dca:	f0c0 8183 	bcc.w	1a0080d4 <_malloc_r+0x378>
1a007dce:	0a6b      	lsrs	r3, r5, #9
1a007dd0:	f000 808f 	beq.w	1a007ef2 <_malloc_r+0x196>
1a007dd4:	2b04      	cmp	r3, #4
1a007dd6:	f200 8146 	bhi.w	1a008066 <_malloc_r+0x30a>
1a007dda:	09ab      	lsrs	r3, r5, #6
1a007ddc:	f103 0039 	add.w	r0, r3, #57	; 0x39
1a007de0:	f103 0c38 	add.w	ip, r3, #56	; 0x38
1a007de4:	00c3      	lsls	r3, r0, #3
1a007de6:	4fab      	ldr	r7, [pc, #684]	; (1a008094 <_malloc_r+0x338>)
1a007de8:	443b      	add	r3, r7
1a007dea:	f1a3 0108 	sub.w	r1, r3, #8
1a007dee:	685c      	ldr	r4, [r3, #4]
1a007df0:	42a1      	cmp	r1, r4
1a007df2:	d106      	bne.n	1a007e02 <_malloc_r+0xa6>
1a007df4:	e00c      	b.n	1a007e10 <_malloc_r+0xb4>
1a007df6:	2a00      	cmp	r2, #0
1a007df8:	f280 811d 	bge.w	1a008036 <_malloc_r+0x2da>
1a007dfc:	68e4      	ldr	r4, [r4, #12]
1a007dfe:	42a1      	cmp	r1, r4
1a007e00:	d006      	beq.n	1a007e10 <_malloc_r+0xb4>
1a007e02:	6863      	ldr	r3, [r4, #4]
1a007e04:	f023 0303 	bic.w	r3, r3, #3
1a007e08:	1b5a      	subs	r2, r3, r5
1a007e0a:	2a0f      	cmp	r2, #15
1a007e0c:	ddf3      	ble.n	1a007df6 <_malloc_r+0x9a>
1a007e0e:	4660      	mov	r0, ip
1a007e10:	693c      	ldr	r4, [r7, #16]
1a007e12:	f8df c294 	ldr.w	ip, [pc, #660]	; 1a0080a8 <_malloc_r+0x34c>
1a007e16:	4564      	cmp	r4, ip
1a007e18:	d071      	beq.n	1a007efe <_malloc_r+0x1a2>
1a007e1a:	6863      	ldr	r3, [r4, #4]
1a007e1c:	f023 0303 	bic.w	r3, r3, #3
1a007e20:	1b5a      	subs	r2, r3, r5
1a007e22:	2a0f      	cmp	r2, #15
1a007e24:	f300 8144 	bgt.w	1a0080b0 <_malloc_r+0x354>
1a007e28:	2a00      	cmp	r2, #0
1a007e2a:	e9c7 cc04 	strd	ip, ip, [r7, #16]
1a007e2e:	f280 8126 	bge.w	1a00807e <_malloc_r+0x322>
1a007e32:	f5b3 7f00 	cmp.w	r3, #512	; 0x200
1a007e36:	f080 8169 	bcs.w	1a00810c <_malloc_r+0x3b0>
1a007e3a:	08db      	lsrs	r3, r3, #3
1a007e3c:	1c59      	adds	r1, r3, #1
1a007e3e:	687a      	ldr	r2, [r7, #4]
1a007e40:	f857 8031 	ldr.w	r8, [r7, r1, lsl #3]
1a007e44:	f8c4 8008 	str.w	r8, [r4, #8]
1a007e48:	f04f 0e01 	mov.w	lr, #1
1a007e4c:	109b      	asrs	r3, r3, #2
1a007e4e:	fa0e f303 	lsl.w	r3, lr, r3
1a007e52:	eb07 0ec1 	add.w	lr, r7, r1, lsl #3
1a007e56:	4313      	orrs	r3, r2
1a007e58:	f1ae 0208 	sub.w	r2, lr, #8
1a007e5c:	60e2      	str	r2, [r4, #12]
1a007e5e:	607b      	str	r3, [r7, #4]
1a007e60:	f847 4031 	str.w	r4, [r7, r1, lsl #3]
1a007e64:	f8c8 400c 	str.w	r4, [r8, #12]
1a007e68:	1082      	asrs	r2, r0, #2
1a007e6a:	2401      	movs	r4, #1
1a007e6c:	4094      	lsls	r4, r2
1a007e6e:	429c      	cmp	r4, r3
1a007e70:	d84b      	bhi.n	1a007f0a <_malloc_r+0x1ae>
1a007e72:	421c      	tst	r4, r3
1a007e74:	d106      	bne.n	1a007e84 <_malloc_r+0x128>
1a007e76:	f020 0003 	bic.w	r0, r0, #3
1a007e7a:	0064      	lsls	r4, r4, #1
1a007e7c:	421c      	tst	r4, r3
1a007e7e:	f100 0004 	add.w	r0, r0, #4
1a007e82:	d0fa      	beq.n	1a007e7a <_malloc_r+0x11e>
1a007e84:	eb07 09c0 	add.w	r9, r7, r0, lsl #3
1a007e88:	46ce      	mov	lr, r9
1a007e8a:	4680      	mov	r8, r0
1a007e8c:	f8de 300c 	ldr.w	r3, [lr, #12]
1a007e90:	459e      	cmp	lr, r3
1a007e92:	d107      	bne.n	1a007ea4 <_malloc_r+0x148>
1a007e94:	e122      	b.n	1a0080dc <_malloc_r+0x380>
1a007e96:	2a00      	cmp	r2, #0
1a007e98:	f280 8129 	bge.w	1a0080ee <_malloc_r+0x392>
1a007e9c:	68db      	ldr	r3, [r3, #12]
1a007e9e:	459e      	cmp	lr, r3
1a007ea0:	f000 811c 	beq.w	1a0080dc <_malloc_r+0x380>
1a007ea4:	6859      	ldr	r1, [r3, #4]
1a007ea6:	f021 0103 	bic.w	r1, r1, #3
1a007eaa:	1b4a      	subs	r2, r1, r5
1a007eac:	2a0f      	cmp	r2, #15
1a007eae:	ddf2      	ble.n	1a007e96 <_malloc_r+0x13a>
1a007eb0:	e9d3 8e02 	ldrd	r8, lr, [r3, #8]
1a007eb4:	195c      	adds	r4, r3, r5
1a007eb6:	f045 0501 	orr.w	r5, r5, #1
1a007eba:	605d      	str	r5, [r3, #4]
1a007ebc:	f042 0501 	orr.w	r5, r2, #1
1a007ec0:	f8c8 e00c 	str.w	lr, [r8, #12]
1a007ec4:	4630      	mov	r0, r6
1a007ec6:	f8ce 8008 	str.w	r8, [lr, #8]
1a007eca:	e9c7 4404 	strd	r4, r4, [r7, #16]
1a007ece:	e9c4 cc02 	strd	ip, ip, [r4, #8]
1a007ed2:	6065      	str	r5, [r4, #4]
1a007ed4:	505a      	str	r2, [r3, r1]
1a007ed6:	9301      	str	r3, [sp, #4]
1a007ed8:	f000 fae4 	bl	1a0084a4 <__malloc_unlock>
1a007edc:	9b01      	ldr	r3, [sp, #4]
1a007ede:	f103 0408 	add.w	r4, r3, #8
1a007ee2:	e763      	b.n	1a007dac <_malloc_r+0x50>
1a007ee4:	2400      	movs	r4, #0
1a007ee6:	230c      	movs	r3, #12
1a007ee8:	4620      	mov	r0, r4
1a007eea:	6033      	str	r3, [r6, #0]
1a007eec:	b003      	add	sp, #12
1a007eee:	e8bd 8ff0 	ldmia.w	sp!, {r4, r5, r6, r7, r8, r9, sl, fp, pc}
1a007ef2:	f44f 7300 	mov.w	r3, #512	; 0x200
1a007ef6:	2040      	movs	r0, #64	; 0x40
1a007ef8:	f04f 0c3f 	mov.w	ip, #63	; 0x3f
1a007efc:	e773      	b.n	1a007de6 <_malloc_r+0x8a>
1a007efe:	687b      	ldr	r3, [r7, #4]
1a007f00:	1082      	asrs	r2, r0, #2
1a007f02:	2401      	movs	r4, #1
1a007f04:	4094      	lsls	r4, r2
1a007f06:	429c      	cmp	r4, r3
1a007f08:	d9b3      	bls.n	1a007e72 <_malloc_r+0x116>
1a007f0a:	68bc      	ldr	r4, [r7, #8]
1a007f0c:	6863      	ldr	r3, [r4, #4]
1a007f0e:	f023 0903 	bic.w	r9, r3, #3
1a007f12:	45a9      	cmp	r9, r5
1a007f14:	d303      	bcc.n	1a007f1e <_malloc_r+0x1c2>
1a007f16:	eba9 0305 	sub.w	r3, r9, r5
1a007f1a:	2b0f      	cmp	r3, #15
1a007f1c:	dc7b      	bgt.n	1a008016 <_malloc_r+0x2ba>
1a007f1e:	4b5e      	ldr	r3, [pc, #376]	; (1a008098 <_malloc_r+0x33c>)
1a007f20:	f8df a188 	ldr.w	sl, [pc, #392]	; 1a0080ac <_malloc_r+0x350>
1a007f24:	681a      	ldr	r2, [r3, #0]
1a007f26:	f8da 3000 	ldr.w	r3, [sl]
1a007f2a:	3301      	adds	r3, #1
1a007f2c:	eb05 0802 	add.w	r8, r5, r2
1a007f30:	f000 8148 	beq.w	1a0081c4 <_malloc_r+0x468>
1a007f34:	f508 5880 	add.w	r8, r8, #4096	; 0x1000
1a007f38:	f108 080f 	add.w	r8, r8, #15
1a007f3c:	f428 687f 	bic.w	r8, r8, #4080	; 0xff0
1a007f40:	f028 080f 	bic.w	r8, r8, #15
1a007f44:	4641      	mov	r1, r8
1a007f46:	4630      	mov	r0, r6
1a007f48:	f7f8 fd60 	bl	1a000a0c <_sbrk_r>
1a007f4c:	f1b0 3fff 	cmp.w	r0, #4294967295	; 0xffffffff
1a007f50:	4683      	mov	fp, r0
1a007f52:	f000 8104 	beq.w	1a00815e <_malloc_r+0x402>
1a007f56:	eb04 0009 	add.w	r0, r4, r9
1a007f5a:	4558      	cmp	r0, fp
1a007f5c:	f200 80fd 	bhi.w	1a00815a <_malloc_r+0x3fe>
1a007f60:	4a4e      	ldr	r2, [pc, #312]	; (1a00809c <_malloc_r+0x340>)
1a007f62:	6813      	ldr	r3, [r2, #0]
1a007f64:	4443      	add	r3, r8
1a007f66:	6013      	str	r3, [r2, #0]
1a007f68:	f000 814d 	beq.w	1a008206 <_malloc_r+0x4aa>
1a007f6c:	f8da 1000 	ldr.w	r1, [sl]
1a007f70:	3101      	adds	r1, #1
1a007f72:	bf1b      	ittet	ne
1a007f74:	ebab 0000 	subne.w	r0, fp, r0
1a007f78:	181b      	addne	r3, r3, r0
1a007f7a:	f8ca b000 	streq.w	fp, [sl]
1a007f7e:	6013      	strne	r3, [r2, #0]
1a007f80:	f01b 0307 	ands.w	r3, fp, #7
1a007f84:	f000 8134 	beq.w	1a0081f0 <_malloc_r+0x494>
1a007f88:	f1c3 0108 	rsb	r1, r3, #8
1a007f8c:	f5c3 5380 	rsb	r3, r3, #4096	; 0x1000
1a007f90:	448b      	add	fp, r1
1a007f92:	3308      	adds	r3, #8
1a007f94:	44d8      	add	r8, fp
1a007f96:	f3c8 080b 	ubfx	r8, r8, #0, #12
1a007f9a:	eba3 0808 	sub.w	r8, r3, r8
1a007f9e:	4641      	mov	r1, r8
1a007fa0:	4630      	mov	r0, r6
1a007fa2:	9201      	str	r2, [sp, #4]
1a007fa4:	f7f8 fd32 	bl	1a000a0c <_sbrk_r>
1a007fa8:	1c43      	adds	r3, r0, #1
1a007faa:	9a01      	ldr	r2, [sp, #4]
1a007fac:	f000 8146 	beq.w	1a00823c <_malloc_r+0x4e0>
1a007fb0:	eba0 010b 	sub.w	r1, r0, fp
1a007fb4:	4441      	add	r1, r8
1a007fb6:	f041 0101 	orr.w	r1, r1, #1
1a007fba:	6813      	ldr	r3, [r2, #0]
1a007fbc:	f8c7 b008 	str.w	fp, [r7, #8]
1a007fc0:	4443      	add	r3, r8
1a007fc2:	42bc      	cmp	r4, r7
1a007fc4:	f8cb 1004 	str.w	r1, [fp, #4]
1a007fc8:	6013      	str	r3, [r2, #0]
1a007fca:	d015      	beq.n	1a007ff8 <_malloc_r+0x29c>
1a007fcc:	f1b9 0f0f 	cmp.w	r9, #15
1a007fd0:	f240 8130 	bls.w	1a008234 <_malloc_r+0x4d8>
1a007fd4:	6860      	ldr	r0, [r4, #4]
1a007fd6:	f1a9 010c 	sub.w	r1, r9, #12
1a007fda:	f021 0107 	bic.w	r1, r1, #7
1a007fde:	f000 0001 	and.w	r0, r0, #1
1a007fe2:	eb04 0c01 	add.w	ip, r4, r1
1a007fe6:	4308      	orrs	r0, r1
1a007fe8:	f04f 0e05 	mov.w	lr, #5
1a007fec:	290f      	cmp	r1, #15
1a007fee:	6060      	str	r0, [r4, #4]
1a007ff0:	e9cc ee01 	strd	lr, lr, [ip, #4]
1a007ff4:	f200 813a 	bhi.w	1a00826c <_malloc_r+0x510>
1a007ff8:	4a29      	ldr	r2, [pc, #164]	; (1a0080a0 <_malloc_r+0x344>)
1a007ffa:	482a      	ldr	r0, [pc, #168]	; (1a0080a4 <_malloc_r+0x348>)
1a007ffc:	6811      	ldr	r1, [r2, #0]
1a007ffe:	68bc      	ldr	r4, [r7, #8]
1a008000:	428b      	cmp	r3, r1
1a008002:	6801      	ldr	r1, [r0, #0]
1a008004:	bf88      	it	hi
1a008006:	6013      	strhi	r3, [r2, #0]
1a008008:	6862      	ldr	r2, [r4, #4]
1a00800a:	428b      	cmp	r3, r1
1a00800c:	f022 0203 	bic.w	r2, r2, #3
1a008010:	bf88      	it	hi
1a008012:	6003      	strhi	r3, [r0, #0]
1a008014:	e0a7      	b.n	1a008166 <_malloc_r+0x40a>
1a008016:	1962      	adds	r2, r4, r5
1a008018:	f043 0301 	orr.w	r3, r3, #1
1a00801c:	f045 0501 	orr.w	r5, r5, #1
1a008020:	6065      	str	r5, [r4, #4]
1a008022:	4630      	mov	r0, r6
1a008024:	60ba      	str	r2, [r7, #8]
1a008026:	6053      	str	r3, [r2, #4]
1a008028:	f000 fa3c 	bl	1a0084a4 <__malloc_unlock>
1a00802c:	3408      	adds	r4, #8
1a00802e:	4620      	mov	r0, r4
1a008030:	b003      	add	sp, #12
1a008032:	e8bd 8ff0 	ldmia.w	sp!, {r4, r5, r6, r7, r8, r9, sl, fp, pc}
1a008036:	4423      	add	r3, r4
1a008038:	68e1      	ldr	r1, [r4, #12]
1a00803a:	685a      	ldr	r2, [r3, #4]
1a00803c:	68a5      	ldr	r5, [r4, #8]
1a00803e:	f042 0201 	orr.w	r2, r2, #1
1a008042:	60e9      	str	r1, [r5, #12]
1a008044:	4630      	mov	r0, r6
1a008046:	608d      	str	r5, [r1, #8]
1a008048:	605a      	str	r2, [r3, #4]
1a00804a:	f000 fa2b 	bl	1a0084a4 <__malloc_unlock>
1a00804e:	3408      	adds	r4, #8
1a008050:	4620      	mov	r0, r4
1a008052:	b003      	add	sp, #12
1a008054:	e8bd 8ff0 	ldmia.w	sp!, {r4, r5, r6, r7, r8, r9, sl, fp, pc}
1a008058:	68dc      	ldr	r4, [r3, #12]
1a00805a:	42a3      	cmp	r3, r4
1a00805c:	bf08      	it	eq
1a00805e:	3002      	addeq	r0, #2
1a008060:	f43f aed6 	beq.w	1a007e10 <_malloc_r+0xb4>
1a008064:	e692      	b.n	1a007d8c <_malloc_r+0x30>
1a008066:	2b14      	cmp	r3, #20
1a008068:	d971      	bls.n	1a00814e <_malloc_r+0x3f2>
1a00806a:	2b54      	cmp	r3, #84	; 0x54
1a00806c:	f200 80ad 	bhi.w	1a0081ca <_malloc_r+0x46e>
1a008070:	0b2b      	lsrs	r3, r5, #12
1a008072:	f103 006f 	add.w	r0, r3, #111	; 0x6f
1a008076:	f103 0c6e 	add.w	ip, r3, #110	; 0x6e
1a00807a:	00c3      	lsls	r3, r0, #3
1a00807c:	e6b3      	b.n	1a007de6 <_malloc_r+0x8a>
1a00807e:	4423      	add	r3, r4
1a008080:	4630      	mov	r0, r6
1a008082:	685a      	ldr	r2, [r3, #4]
1a008084:	f042 0201 	orr.w	r2, r2, #1
1a008088:	605a      	str	r2, [r3, #4]
1a00808a:	3408      	adds	r4, #8
1a00808c:	f000 fa0a 	bl	1a0084a4 <__malloc_unlock>
1a008090:	e68c      	b.n	1a007dac <_malloc_r+0x50>
1a008092:	bf00      	nop
1a008094:	100005e4 	.word	0x100005e4
1a008098:	10000a50 	.word	0x10000a50
1a00809c:	10000a20 	.word	0x10000a20
1a0080a0:	10000a48 	.word	0x10000a48
1a0080a4:	10000a4c 	.word	0x10000a4c
1a0080a8:	100005ec 	.word	0x100005ec
1a0080ac:	100009ec 	.word	0x100009ec
1a0080b0:	1961      	adds	r1, r4, r5
1a0080b2:	f045 0e01 	orr.w	lr, r5, #1
1a0080b6:	f042 0501 	orr.w	r5, r2, #1
1a0080ba:	f8c4 e004 	str.w	lr, [r4, #4]
1a0080be:	4630      	mov	r0, r6
1a0080c0:	e9c7 1104 	strd	r1, r1, [r7, #16]
1a0080c4:	e9c1 cc02 	strd	ip, ip, [r1, #8]
1a0080c8:	604d      	str	r5, [r1, #4]
1a0080ca:	50e2      	str	r2, [r4, r3]
1a0080cc:	f000 f9ea 	bl	1a0084a4 <__malloc_unlock>
1a0080d0:	3408      	adds	r4, #8
1a0080d2:	e66b      	b.n	1a007dac <_malloc_r+0x50>
1a0080d4:	08e8      	lsrs	r0, r5, #3
1a0080d6:	f105 0308 	add.w	r3, r5, #8
1a0080da:	e64f      	b.n	1a007d7c <_malloc_r+0x20>
1a0080dc:	f108 0801 	add.w	r8, r8, #1
1a0080e0:	f018 0f03 	tst.w	r8, #3
1a0080e4:	f10e 0e08 	add.w	lr, lr, #8
1a0080e8:	f47f aed0 	bne.w	1a007e8c <_malloc_r+0x130>
1a0080ec:	e052      	b.n	1a008194 <_malloc_r+0x438>
1a0080ee:	4419      	add	r1, r3
1a0080f0:	461c      	mov	r4, r3
1a0080f2:	684a      	ldr	r2, [r1, #4]
1a0080f4:	68db      	ldr	r3, [r3, #12]
1a0080f6:	f854 5f08 	ldr.w	r5, [r4, #8]!
1a0080fa:	f042 0201 	orr.w	r2, r2, #1
1a0080fe:	604a      	str	r2, [r1, #4]
1a008100:	4630      	mov	r0, r6
1a008102:	60eb      	str	r3, [r5, #12]
1a008104:	609d      	str	r5, [r3, #8]
1a008106:	f000 f9cd 	bl	1a0084a4 <__malloc_unlock>
1a00810a:	e64f      	b.n	1a007dac <_malloc_r+0x50>
1a00810c:	0a5a      	lsrs	r2, r3, #9
1a00810e:	2a04      	cmp	r2, #4
1a008110:	d935      	bls.n	1a00817e <_malloc_r+0x422>
1a008112:	2a14      	cmp	r2, #20
1a008114:	d86f      	bhi.n	1a0081f6 <_malloc_r+0x49a>
1a008116:	f102 015c 	add.w	r1, r2, #92	; 0x5c
1a00811a:	00c9      	lsls	r1, r1, #3
1a00811c:	325b      	adds	r2, #91	; 0x5b
1a00811e:	eb07 0e01 	add.w	lr, r7, r1
1a008122:	5879      	ldr	r1, [r7, r1]
1a008124:	f1ae 0e08 	sub.w	lr, lr, #8
1a008128:	458e      	cmp	lr, r1
1a00812a:	d058      	beq.n	1a0081de <_malloc_r+0x482>
1a00812c:	684a      	ldr	r2, [r1, #4]
1a00812e:	f022 0203 	bic.w	r2, r2, #3
1a008132:	429a      	cmp	r2, r3
1a008134:	d902      	bls.n	1a00813c <_malloc_r+0x3e0>
1a008136:	6889      	ldr	r1, [r1, #8]
1a008138:	458e      	cmp	lr, r1
1a00813a:	d1f7      	bne.n	1a00812c <_malloc_r+0x3d0>
1a00813c:	f8d1 e00c 	ldr.w	lr, [r1, #12]
1a008140:	687b      	ldr	r3, [r7, #4]
1a008142:	e9c4 1e02 	strd	r1, lr, [r4, #8]
1a008146:	f8ce 4008 	str.w	r4, [lr, #8]
1a00814a:	60cc      	str	r4, [r1, #12]
1a00814c:	e68c      	b.n	1a007e68 <_malloc_r+0x10c>
1a00814e:	f103 005c 	add.w	r0, r3, #92	; 0x5c
1a008152:	f103 0c5b 	add.w	ip, r3, #91	; 0x5b
1a008156:	00c3      	lsls	r3, r0, #3
1a008158:	e645      	b.n	1a007de6 <_malloc_r+0x8a>
1a00815a:	42bc      	cmp	r4, r7
1a00815c:	d072      	beq.n	1a008244 <_malloc_r+0x4e8>
1a00815e:	68bc      	ldr	r4, [r7, #8]
1a008160:	6862      	ldr	r2, [r4, #4]
1a008162:	f022 0203 	bic.w	r2, r2, #3
1a008166:	4295      	cmp	r5, r2
1a008168:	eba2 0305 	sub.w	r3, r2, r5
1a00816c:	d802      	bhi.n	1a008174 <_malloc_r+0x418>
1a00816e:	2b0f      	cmp	r3, #15
1a008170:	f73f af51 	bgt.w	1a008016 <_malloc_r+0x2ba>
1a008174:	4630      	mov	r0, r6
1a008176:	f000 f995 	bl	1a0084a4 <__malloc_unlock>
1a00817a:	2400      	movs	r4, #0
1a00817c:	e616      	b.n	1a007dac <_malloc_r+0x50>
1a00817e:	099a      	lsrs	r2, r3, #6
1a008180:	f102 0139 	add.w	r1, r2, #57	; 0x39
1a008184:	00c9      	lsls	r1, r1, #3
1a008186:	3238      	adds	r2, #56	; 0x38
1a008188:	e7c9      	b.n	1a00811e <_malloc_r+0x3c2>
1a00818a:	f8d9 9000 	ldr.w	r9, [r9]
1a00818e:	4599      	cmp	r9, r3
1a008190:	f040 8083 	bne.w	1a00829a <_malloc_r+0x53e>
1a008194:	f010 0f03 	tst.w	r0, #3
1a008198:	f1a9 0308 	sub.w	r3, r9, #8
1a00819c:	f100 30ff 	add.w	r0, r0, #4294967295	; 0xffffffff
1a0081a0:	d1f3      	bne.n	1a00818a <_malloc_r+0x42e>
1a0081a2:	687b      	ldr	r3, [r7, #4]
1a0081a4:	ea23 0304 	bic.w	r3, r3, r4
1a0081a8:	607b      	str	r3, [r7, #4]
1a0081aa:	0064      	lsls	r4, r4, #1
1a0081ac:	429c      	cmp	r4, r3
1a0081ae:	f63f aeac 	bhi.w	1a007f0a <_malloc_r+0x1ae>
1a0081b2:	b91c      	cbnz	r4, 1a0081bc <_malloc_r+0x460>
1a0081b4:	e6a9      	b.n	1a007f0a <_malloc_r+0x1ae>
1a0081b6:	0064      	lsls	r4, r4, #1
1a0081b8:	f108 0804 	add.w	r8, r8, #4
1a0081bc:	421c      	tst	r4, r3
1a0081be:	d0fa      	beq.n	1a0081b6 <_malloc_r+0x45a>
1a0081c0:	4640      	mov	r0, r8
1a0081c2:	e65f      	b.n	1a007e84 <_malloc_r+0x128>
1a0081c4:	f108 0810 	add.w	r8, r8, #16
1a0081c8:	e6bc      	b.n	1a007f44 <_malloc_r+0x1e8>
1a0081ca:	f5b3 7faa 	cmp.w	r3, #340	; 0x154
1a0081ce:	d826      	bhi.n	1a00821e <_malloc_r+0x4c2>
1a0081d0:	0beb      	lsrs	r3, r5, #15
1a0081d2:	f103 0078 	add.w	r0, r3, #120	; 0x78
1a0081d6:	f103 0c77 	add.w	ip, r3, #119	; 0x77
1a0081da:	00c3      	lsls	r3, r0, #3
1a0081dc:	e603      	b.n	1a007de6 <_malloc_r+0x8a>
1a0081de:	687b      	ldr	r3, [r7, #4]
1a0081e0:	1092      	asrs	r2, r2, #2
1a0081e2:	f04f 0801 	mov.w	r8, #1
1a0081e6:	fa08 f202 	lsl.w	r2, r8, r2
1a0081ea:	4313      	orrs	r3, r2
1a0081ec:	607b      	str	r3, [r7, #4]
1a0081ee:	e7a8      	b.n	1a008142 <_malloc_r+0x3e6>
1a0081f0:	f44f 5380 	mov.w	r3, #4096	; 0x1000
1a0081f4:	e6ce      	b.n	1a007f94 <_malloc_r+0x238>
1a0081f6:	2a54      	cmp	r2, #84	; 0x54
1a0081f8:	d829      	bhi.n	1a00824e <_malloc_r+0x4f2>
1a0081fa:	0b1a      	lsrs	r2, r3, #12
1a0081fc:	f102 016f 	add.w	r1, r2, #111	; 0x6f
1a008200:	00c9      	lsls	r1, r1, #3
1a008202:	326e      	adds	r2, #110	; 0x6e
1a008204:	e78b      	b.n	1a00811e <_malloc_r+0x3c2>
1a008206:	f3c0 010b 	ubfx	r1, r0, #0, #12
1a00820a:	2900      	cmp	r1, #0
1a00820c:	f47f aeae 	bne.w	1a007f6c <_malloc_r+0x210>
1a008210:	eb09 0208 	add.w	r2, r9, r8
1a008214:	68b9      	ldr	r1, [r7, #8]
1a008216:	f042 0201 	orr.w	r2, r2, #1
1a00821a:	604a      	str	r2, [r1, #4]
1a00821c:	e6ec      	b.n	1a007ff8 <_malloc_r+0x29c>
1a00821e:	f240 5254 	movw	r2, #1364	; 0x554
1a008222:	4293      	cmp	r3, r2
1a008224:	d81c      	bhi.n	1a008260 <_malloc_r+0x504>
1a008226:	0cab      	lsrs	r3, r5, #18
1a008228:	f103 007d 	add.w	r0, r3, #125	; 0x7d
1a00822c:	f103 0c7c 	add.w	ip, r3, #124	; 0x7c
1a008230:	00c3      	lsls	r3, r0, #3
1a008232:	e5d8      	b.n	1a007de6 <_malloc_r+0x8a>
1a008234:	2301      	movs	r3, #1
1a008236:	f8cb 3004 	str.w	r3, [fp, #4]
1a00823a:	e79b      	b.n	1a008174 <_malloc_r+0x418>
1a00823c:	2101      	movs	r1, #1
1a00823e:	f04f 0800 	mov.w	r8, #0
1a008242:	e6ba      	b.n	1a007fba <_malloc_r+0x25e>
1a008244:	4a16      	ldr	r2, [pc, #88]	; (1a0082a0 <_malloc_r+0x544>)
1a008246:	6813      	ldr	r3, [r2, #0]
1a008248:	4443      	add	r3, r8
1a00824a:	6013      	str	r3, [r2, #0]
1a00824c:	e68e      	b.n	1a007f6c <_malloc_r+0x210>
1a00824e:	f5b2 7faa 	cmp.w	r2, #340	; 0x154
1a008252:	d814      	bhi.n	1a00827e <_malloc_r+0x522>
1a008254:	0bda      	lsrs	r2, r3, #15
1a008256:	f102 0178 	add.w	r1, r2, #120	; 0x78
1a00825a:	00c9      	lsls	r1, r1, #3
1a00825c:	3277      	adds	r2, #119	; 0x77
1a00825e:	e75e      	b.n	1a00811e <_malloc_r+0x3c2>
1a008260:	f44f 737e 	mov.w	r3, #1016	; 0x3f8
1a008264:	207f      	movs	r0, #127	; 0x7f
1a008266:	f04f 0c7e 	mov.w	ip, #126	; 0x7e
1a00826a:	e5bc      	b.n	1a007de6 <_malloc_r+0x8a>
1a00826c:	f104 0108 	add.w	r1, r4, #8
1a008270:	4630      	mov	r0, r6
1a008272:	9201      	str	r2, [sp, #4]
1a008274:	f7ff f9e2 	bl	1a00763c <_free_r>
1a008278:	9a01      	ldr	r2, [sp, #4]
1a00827a:	6813      	ldr	r3, [r2, #0]
1a00827c:	e6bc      	b.n	1a007ff8 <_malloc_r+0x29c>
1a00827e:	f240 5154 	movw	r1, #1364	; 0x554
1a008282:	428a      	cmp	r2, r1
1a008284:	d805      	bhi.n	1a008292 <_malloc_r+0x536>
1a008286:	0c9a      	lsrs	r2, r3, #18
1a008288:	f102 017d 	add.w	r1, r2, #125	; 0x7d
1a00828c:	00c9      	lsls	r1, r1, #3
1a00828e:	327c      	adds	r2, #124	; 0x7c
1a008290:	e745      	b.n	1a00811e <_malloc_r+0x3c2>
1a008292:	f44f 717e 	mov.w	r1, #1016	; 0x3f8
1a008296:	227e      	movs	r2, #126	; 0x7e
1a008298:	e741      	b.n	1a00811e <_malloc_r+0x3c2>
1a00829a:	687b      	ldr	r3, [r7, #4]
1a00829c:	e785      	b.n	1a0081aa <_malloc_r+0x44e>
1a00829e:	bf00      	nop
1a0082a0:	10000a20 	.word	0x10000a20

1a0082a4 <_mbrtowc_r>:
1a0082a4:	b5f0      	push	{r4, r5, r6, r7, lr}
1a0082a6:	4c13      	ldr	r4, [pc, #76]	; (1a0082f4 <_mbrtowc_r+0x50>)
1a0082a8:	b083      	sub	sp, #12
1a0082aa:	6824      	ldr	r4, [r4, #0]
1a0082ac:	9d08      	ldr	r5, [sp, #32]
1a0082ae:	6b64      	ldr	r4, [r4, #52]	; 0x34
1a0082b0:	4607      	mov	r7, r0
1a0082b2:	b15a      	cbz	r2, 1a0082cc <_mbrtowc_r+0x28>
1a0082b4:	4e10      	ldr	r6, [pc, #64]	; (1a0082f8 <_mbrtowc_r+0x54>)
1a0082b6:	9500      	str	r5, [sp, #0]
1a0082b8:	2c00      	cmp	r4, #0
1a0082ba:	bf08      	it	eq
1a0082bc:	4634      	moveq	r4, r6
1a0082be:	f8d4 40e4 	ldr.w	r4, [r4, #228]	; 0xe4
1a0082c2:	47a0      	blx	r4
1a0082c4:	1c43      	adds	r3, r0, #1
1a0082c6:	d00e      	beq.n	1a0082e6 <_mbrtowc_r+0x42>
1a0082c8:	b003      	add	sp, #12
1a0082ca:	bdf0      	pop	{r4, r5, r6, r7, pc}
1a0082cc:	4b0a      	ldr	r3, [pc, #40]	; (1a0082f8 <_mbrtowc_r+0x54>)
1a0082ce:	9500      	str	r5, [sp, #0]
1a0082d0:	2c00      	cmp	r4, #0
1a0082d2:	bf08      	it	eq
1a0082d4:	461c      	moveq	r4, r3
1a0082d6:	4611      	mov	r1, r2
1a0082d8:	2301      	movs	r3, #1
1a0082da:	f8d4 40e4 	ldr.w	r4, [r4, #228]	; 0xe4
1a0082de:	4a07      	ldr	r2, [pc, #28]	; (1a0082fc <_mbrtowc_r+0x58>)
1a0082e0:	47a0      	blx	r4
1a0082e2:	1c43      	adds	r3, r0, #1
1a0082e4:	d1f0      	bne.n	1a0082c8 <_mbrtowc_r+0x24>
1a0082e6:	2200      	movs	r2, #0
1a0082e8:	238a      	movs	r3, #138	; 0x8a
1a0082ea:	602a      	str	r2, [r5, #0]
1a0082ec:	603b      	str	r3, [r7, #0]
1a0082ee:	b003      	add	sp, #12
1a0082f0:	bdf0      	pop	{r4, r5, r6, r7, pc}
1a0082f2:	bf00      	nop
1a0082f4:	10000048 	.word	0x10000048
1a0082f8:	10000478 	.word	0x10000478
1a0082fc:	1a00d248 	.word	0x1a00d248

1a008300 <__ascii_mbtowc>:
1a008300:	b082      	sub	sp, #8
1a008302:	b149      	cbz	r1, 1a008318 <__ascii_mbtowc+0x18>
1a008304:	b15a      	cbz	r2, 1a00831e <__ascii_mbtowc+0x1e>
1a008306:	b16b      	cbz	r3, 1a008324 <__ascii_mbtowc+0x24>
1a008308:	7813      	ldrb	r3, [r2, #0]
1a00830a:	600b      	str	r3, [r1, #0]
1a00830c:	7812      	ldrb	r2, [r2, #0]
1a00830e:	1c10      	adds	r0, r2, #0
1a008310:	bf18      	it	ne
1a008312:	2001      	movne	r0, #1
1a008314:	b002      	add	sp, #8
1a008316:	4770      	bx	lr
1a008318:	a901      	add	r1, sp, #4
1a00831a:	2a00      	cmp	r2, #0
1a00831c:	d1f3      	bne.n	1a008306 <__ascii_mbtowc+0x6>
1a00831e:	4610      	mov	r0, r2
1a008320:	b002      	add	sp, #8
1a008322:	4770      	bx	lr
1a008324:	f06f 0001 	mvn.w	r0, #1
1a008328:	e7f4      	b.n	1a008314 <__ascii_mbtowc+0x14>
1a00832a:	bf00      	nop
1a00832c:	ffff ffff 			; <UNDEFINED> instruction: 0xffffffff

1a008330 <memchr>:
1a008330:	f001 01ff 	and.w	r1, r1, #255	; 0xff
1a008334:	2a10      	cmp	r2, #16
1a008336:	db2b      	blt.n	1a008390 <memchr+0x60>
1a008338:	f010 0f07 	tst.w	r0, #7
1a00833c:	d008      	beq.n	1a008350 <memchr+0x20>
1a00833e:	f810 3b01 	ldrb.w	r3, [r0], #1
1a008342:	3a01      	subs	r2, #1
1a008344:	428b      	cmp	r3, r1
1a008346:	d02d      	beq.n	1a0083a4 <memchr+0x74>
1a008348:	f010 0f07 	tst.w	r0, #7
1a00834c:	b342      	cbz	r2, 1a0083a0 <memchr+0x70>
1a00834e:	d1f6      	bne.n	1a00833e <memchr+0xe>
1a008350:	b4f0      	push	{r4, r5, r6, r7}
1a008352:	ea41 2101 	orr.w	r1, r1, r1, lsl #8
1a008356:	ea41 4101 	orr.w	r1, r1, r1, lsl #16
1a00835a:	f022 0407 	bic.w	r4, r2, #7
1a00835e:	f07f 0700 	mvns.w	r7, #0
1a008362:	2300      	movs	r3, #0
1a008364:	e8f0 5602 	ldrd	r5, r6, [r0], #8
1a008368:	3c08      	subs	r4, #8
1a00836a:	ea85 0501 	eor.w	r5, r5, r1
1a00836e:	ea86 0601 	eor.w	r6, r6, r1
1a008372:	fa85 f547 	uadd8	r5, r5, r7
1a008376:	faa3 f587 	sel	r5, r3, r7
1a00837a:	fa86 f647 	uadd8	r6, r6, r7
1a00837e:	faa5 f687 	sel	r6, r5, r7
1a008382:	b98e      	cbnz	r6, 1a0083a8 <memchr+0x78>
1a008384:	d1ee      	bne.n	1a008364 <memchr+0x34>
1a008386:	bcf0      	pop	{r4, r5, r6, r7}
1a008388:	f001 01ff 	and.w	r1, r1, #255	; 0xff
1a00838c:	f002 0207 	and.w	r2, r2, #7
1a008390:	b132      	cbz	r2, 1a0083a0 <memchr+0x70>
1a008392:	f810 3b01 	ldrb.w	r3, [r0], #1
1a008396:	3a01      	subs	r2, #1
1a008398:	ea83 0301 	eor.w	r3, r3, r1
1a00839c:	b113      	cbz	r3, 1a0083a4 <memchr+0x74>
1a00839e:	d1f8      	bne.n	1a008392 <memchr+0x62>
1a0083a0:	2000      	movs	r0, #0
1a0083a2:	4770      	bx	lr
1a0083a4:	3801      	subs	r0, #1
1a0083a6:	4770      	bx	lr
1a0083a8:	2d00      	cmp	r5, #0
1a0083aa:	bf06      	itte	eq
1a0083ac:	4635      	moveq	r5, r6
1a0083ae:	3803      	subeq	r0, #3
1a0083b0:	3807      	subne	r0, #7
1a0083b2:	f015 0f01 	tst.w	r5, #1
1a0083b6:	d107      	bne.n	1a0083c8 <memchr+0x98>
1a0083b8:	3001      	adds	r0, #1
1a0083ba:	f415 7f80 	tst.w	r5, #256	; 0x100
1a0083be:	bf02      	ittt	eq
1a0083c0:	3001      	addeq	r0, #1
1a0083c2:	f415 3fc0 	tsteq.w	r5, #98304	; 0x18000
1a0083c6:	3001      	addeq	r0, #1
1a0083c8:	bcf0      	pop	{r4, r5, r6, r7}
1a0083ca:	3801      	subs	r0, #1
1a0083cc:	4770      	bx	lr
1a0083ce:	bf00      	nop

1a0083d0 <memmove>:
1a0083d0:	4288      	cmp	r0, r1
1a0083d2:	b4f0      	push	{r4, r5, r6, r7}
1a0083d4:	d90d      	bls.n	1a0083f2 <memmove+0x22>
1a0083d6:	188b      	adds	r3, r1, r2
1a0083d8:	4283      	cmp	r3, r0
1a0083da:	d90a      	bls.n	1a0083f2 <memmove+0x22>
1a0083dc:	1884      	adds	r4, r0, r2
1a0083de:	b132      	cbz	r2, 1a0083ee <memmove+0x1e>
1a0083e0:	4622      	mov	r2, r4
1a0083e2:	f813 4d01 	ldrb.w	r4, [r3, #-1]!
1a0083e6:	f802 4d01 	strb.w	r4, [r2, #-1]!
1a0083ea:	4299      	cmp	r1, r3
1a0083ec:	d1f9      	bne.n	1a0083e2 <memmove+0x12>
1a0083ee:	bcf0      	pop	{r4, r5, r6, r7}
1a0083f0:	4770      	bx	lr
1a0083f2:	2a0f      	cmp	r2, #15
1a0083f4:	d949      	bls.n	1a00848a <memmove+0xba>
1a0083f6:	ea40 0301 	orr.w	r3, r0, r1
1a0083fa:	079b      	lsls	r3, r3, #30
1a0083fc:	d147      	bne.n	1a00848e <memmove+0xbe>
1a0083fe:	f1a2 0310 	sub.w	r3, r2, #16
1a008402:	091b      	lsrs	r3, r3, #4
1a008404:	f101 0720 	add.w	r7, r1, #32
1a008408:	eb07 1703 	add.w	r7, r7, r3, lsl #4
1a00840c:	f101 0410 	add.w	r4, r1, #16
1a008410:	f100 0510 	add.w	r5, r0, #16
1a008414:	f854 6c10 	ldr.w	r6, [r4, #-16]
1a008418:	f845 6c10 	str.w	r6, [r5, #-16]
1a00841c:	f854 6c0c 	ldr.w	r6, [r4, #-12]
1a008420:	f845 6c0c 	str.w	r6, [r5, #-12]
1a008424:	f854 6c08 	ldr.w	r6, [r4, #-8]
1a008428:	f845 6c08 	str.w	r6, [r5, #-8]
1a00842c:	f854 6c04 	ldr.w	r6, [r4, #-4]
1a008430:	f845 6c04 	str.w	r6, [r5, #-4]
1a008434:	3410      	adds	r4, #16
1a008436:	42bc      	cmp	r4, r7
1a008438:	f105 0510 	add.w	r5, r5, #16
1a00843c:	d1ea      	bne.n	1a008414 <memmove+0x44>
1a00843e:	3301      	adds	r3, #1
1a008440:	f002 050f 	and.w	r5, r2, #15
1a008444:	011b      	lsls	r3, r3, #4
1a008446:	2d03      	cmp	r5, #3
1a008448:	4419      	add	r1, r3
1a00844a:	4403      	add	r3, r0
1a00844c:	d921      	bls.n	1a008492 <memmove+0xc2>
1a00844e:	1f1f      	subs	r7, r3, #4
1a008450:	460e      	mov	r6, r1
1a008452:	462c      	mov	r4, r5
1a008454:	3c04      	subs	r4, #4
1a008456:	f856 cb04 	ldr.w	ip, [r6], #4
1a00845a:	f847 cf04 	str.w	ip, [r7, #4]!
1a00845e:	2c03      	cmp	r4, #3
1a008460:	d8f8      	bhi.n	1a008454 <memmove+0x84>
1a008462:	1f2c      	subs	r4, r5, #4
1a008464:	f024 0403 	bic.w	r4, r4, #3
1a008468:	3404      	adds	r4, #4
1a00846a:	4423      	add	r3, r4
1a00846c:	4421      	add	r1, r4
1a00846e:	f002 0203 	and.w	r2, r2, #3
1a008472:	2a00      	cmp	r2, #0
1a008474:	d0bb      	beq.n	1a0083ee <memmove+0x1e>
1a008476:	3b01      	subs	r3, #1
1a008478:	440a      	add	r2, r1
1a00847a:	f811 4b01 	ldrb.w	r4, [r1], #1
1a00847e:	f803 4f01 	strb.w	r4, [r3, #1]!
1a008482:	4291      	cmp	r1, r2
1a008484:	d1f9      	bne.n	1a00847a <memmove+0xaa>
1a008486:	bcf0      	pop	{r4, r5, r6, r7}
1a008488:	4770      	bx	lr
1a00848a:	4603      	mov	r3, r0
1a00848c:	e7f1      	b.n	1a008472 <memmove+0xa2>
1a00848e:	4603      	mov	r3, r0
1a008490:	e7f1      	b.n	1a008476 <memmove+0xa6>
1a008492:	462a      	mov	r2, r5
1a008494:	e7ed      	b.n	1a008472 <memmove+0xa2>
1a008496:	bf00      	nop

1a008498 <__malloc_lock>:
1a008498:	4801      	ldr	r0, [pc, #4]	; (1a0084a0 <__malloc_lock+0x8>)
1a00849a:	f7ff bbd3 	b.w	1a007c44 <__retarget_lock_acquire_recursive>
1a00849e:	bf00      	nop
1a0084a0:	10000a6c 	.word	0x10000a6c

1a0084a4 <__malloc_unlock>:
1a0084a4:	4801      	ldr	r0, [pc, #4]	; (1a0084ac <__malloc_unlock+0x8>)
1a0084a6:	f7ff bbcf 	b.w	1a007c48 <__retarget_lock_release_recursive>
1a0084aa:	bf00      	nop
1a0084ac:	10000a6c 	.word	0x10000a6c

1a0084b0 <_Balloc>:
1a0084b0:	6cc3      	ldr	r3, [r0, #76]	; 0x4c
1a0084b2:	b570      	push	{r4, r5, r6, lr}
1a0084b4:	4605      	mov	r5, r0
1a0084b6:	460c      	mov	r4, r1
1a0084b8:	b14b      	cbz	r3, 1a0084ce <_Balloc+0x1e>
1a0084ba:	f853 0024 	ldr.w	r0, [r3, r4, lsl #2]
1a0084be:	b180      	cbz	r0, 1a0084e2 <_Balloc+0x32>
1a0084c0:	6802      	ldr	r2, [r0, #0]
1a0084c2:	f843 2024 	str.w	r2, [r3, r4, lsl #2]
1a0084c6:	2300      	movs	r3, #0
1a0084c8:	e9c0 3303 	strd	r3, r3, [r0, #12]
1a0084cc:	bd70      	pop	{r4, r5, r6, pc}
1a0084ce:	2221      	movs	r2, #33	; 0x21
1a0084d0:	2104      	movs	r1, #4
1a0084d2:	f003 fffb 	bl	1a00c4cc <_calloc_r>
1a0084d6:	4603      	mov	r3, r0
1a0084d8:	64e8      	str	r0, [r5, #76]	; 0x4c
1a0084da:	2800      	cmp	r0, #0
1a0084dc:	d1ed      	bne.n	1a0084ba <_Balloc+0xa>
1a0084de:	2000      	movs	r0, #0
1a0084e0:	bd70      	pop	{r4, r5, r6, pc}
1a0084e2:	2101      	movs	r1, #1
1a0084e4:	fa01 f604 	lsl.w	r6, r1, r4
1a0084e8:	1d72      	adds	r2, r6, #5
1a0084ea:	4628      	mov	r0, r5
1a0084ec:	0092      	lsls	r2, r2, #2
1a0084ee:	f003 ffed 	bl	1a00c4cc <_calloc_r>
1a0084f2:	2800      	cmp	r0, #0
1a0084f4:	d0f3      	beq.n	1a0084de <_Balloc+0x2e>
1a0084f6:	e9c0 4601 	strd	r4, r6, [r0, #4]
1a0084fa:	e7e4      	b.n	1a0084c6 <_Balloc+0x16>

1a0084fc <_Bfree>:
1a0084fc:	b131      	cbz	r1, 1a00850c <_Bfree+0x10>
1a0084fe:	6cc3      	ldr	r3, [r0, #76]	; 0x4c
1a008500:	684a      	ldr	r2, [r1, #4]
1a008502:	f853 0022 	ldr.w	r0, [r3, r2, lsl #2]
1a008506:	6008      	str	r0, [r1, #0]
1a008508:	f843 1022 	str.w	r1, [r3, r2, lsl #2]
1a00850c:	4770      	bx	lr
1a00850e:	bf00      	nop

1a008510 <__multadd>:
1a008510:	b5f0      	push	{r4, r5, r6, r7, lr}
1a008512:	690c      	ldr	r4, [r1, #16]
1a008514:	b083      	sub	sp, #12
1a008516:	460d      	mov	r5, r1
1a008518:	4606      	mov	r6, r0
1a00851a:	f101 0c14 	add.w	ip, r1, #20
1a00851e:	2700      	movs	r7, #0
1a008520:	f8dc 0000 	ldr.w	r0, [ip]
1a008524:	b281      	uxth	r1, r0
1a008526:	fb02 3301 	mla	r3, r2, r1, r3
1a00852a:	0c01      	lsrs	r1, r0, #16
1a00852c:	0c18      	lsrs	r0, r3, #16
1a00852e:	fb02 0101 	mla	r1, r2, r1, r0
1a008532:	b29b      	uxth	r3, r3
1a008534:	3701      	adds	r7, #1
1a008536:	eb03 4301 	add.w	r3, r3, r1, lsl #16
1a00853a:	42bc      	cmp	r4, r7
1a00853c:	f84c 3b04 	str.w	r3, [ip], #4
1a008540:	ea4f 4311 	mov.w	r3, r1, lsr #16
1a008544:	dcec      	bgt.n	1a008520 <__multadd+0x10>
1a008546:	b13b      	cbz	r3, 1a008558 <__multadd+0x48>
1a008548:	68aa      	ldr	r2, [r5, #8]
1a00854a:	42a2      	cmp	r2, r4
1a00854c:	dd07      	ble.n	1a00855e <__multadd+0x4e>
1a00854e:	eb05 0284 	add.w	r2, r5, r4, lsl #2
1a008552:	3401      	adds	r4, #1
1a008554:	6153      	str	r3, [r2, #20]
1a008556:	612c      	str	r4, [r5, #16]
1a008558:	4628      	mov	r0, r5
1a00855a:	b003      	add	sp, #12
1a00855c:	bdf0      	pop	{r4, r5, r6, r7, pc}
1a00855e:	6869      	ldr	r1, [r5, #4]
1a008560:	9301      	str	r3, [sp, #4]
1a008562:	3101      	adds	r1, #1
1a008564:	4630      	mov	r0, r6
1a008566:	f7ff ffa3 	bl	1a0084b0 <_Balloc>
1a00856a:	692a      	ldr	r2, [r5, #16]
1a00856c:	3202      	adds	r2, #2
1a00856e:	f105 010c 	add.w	r1, r5, #12
1a008572:	4607      	mov	r7, r0
1a008574:	0092      	lsls	r2, r2, #2
1a008576:	300c      	adds	r0, #12
1a008578:	f7fa fac6 	bl	1a002b08 <memcpy>
1a00857c:	6cf2      	ldr	r2, [r6, #76]	; 0x4c
1a00857e:	6869      	ldr	r1, [r5, #4]
1a008580:	9b01      	ldr	r3, [sp, #4]
1a008582:	f852 0021 	ldr.w	r0, [r2, r1, lsl #2]
1a008586:	6028      	str	r0, [r5, #0]
1a008588:	f842 5021 	str.w	r5, [r2, r1, lsl #2]
1a00858c:	463d      	mov	r5, r7
1a00858e:	e7de      	b.n	1a00854e <__multadd+0x3e>

1a008590 <__s2b>:
1a008590:	e92d 43f8 	stmdb	sp!, {r3, r4, r5, r6, r7, r8, r9, lr}
1a008594:	4c23      	ldr	r4, [pc, #140]	; (1a008624 <__s2b+0x94>)
1a008596:	9d08      	ldr	r5, [sp, #32]
1a008598:	461e      	mov	r6, r3
1a00859a:	3308      	adds	r3, #8
1a00859c:	fb84 4c03 	smull	r4, ip, r4, r3
1a0085a0:	17db      	asrs	r3, r3, #31
1a0085a2:	ebc3 0c6c 	rsb	ip, r3, ip, asr #1
1a0085a6:	f1bc 0f01 	cmp.w	ip, #1
1a0085aa:	4607      	mov	r7, r0
1a0085ac:	460c      	mov	r4, r1
1a0085ae:	4690      	mov	r8, r2
1a0085b0:	dd35      	ble.n	1a00861e <__s2b+0x8e>
1a0085b2:	2301      	movs	r3, #1
1a0085b4:	2100      	movs	r1, #0
1a0085b6:	005b      	lsls	r3, r3, #1
1a0085b8:	459c      	cmp	ip, r3
1a0085ba:	f101 0101 	add.w	r1, r1, #1
1a0085be:	dcfa      	bgt.n	1a0085b6 <__s2b+0x26>
1a0085c0:	4638      	mov	r0, r7
1a0085c2:	f7ff ff75 	bl	1a0084b0 <_Balloc>
1a0085c6:	2301      	movs	r3, #1
1a0085c8:	f1b8 0f09 	cmp.w	r8, #9
1a0085cc:	e9c0 3504 	strd	r3, r5, [r0, #16]
1a0085d0:	dd21      	ble.n	1a008616 <__s2b+0x86>
1a0085d2:	f104 0909 	add.w	r9, r4, #9
1a0085d6:	464d      	mov	r5, r9
1a0085d8:	4444      	add	r4, r8
1a0085da:	f815 3b01 	ldrb.w	r3, [r5], #1
1a0085de:	4601      	mov	r1, r0
1a0085e0:	3b30      	subs	r3, #48	; 0x30
1a0085e2:	220a      	movs	r2, #10
1a0085e4:	4638      	mov	r0, r7
1a0085e6:	f7ff ff93 	bl	1a008510 <__multadd>
1a0085ea:	42ac      	cmp	r4, r5
1a0085ec:	d1f5      	bne.n	1a0085da <__s2b+0x4a>
1a0085ee:	eb09 0408 	add.w	r4, r9, r8
1a0085f2:	3c08      	subs	r4, #8
1a0085f4:	4546      	cmp	r6, r8
1a0085f6:	dd0c      	ble.n	1a008612 <__s2b+0x82>
1a0085f8:	eba6 0608 	sub.w	r6, r6, r8
1a0085fc:	4426      	add	r6, r4
1a0085fe:	f814 3b01 	ldrb.w	r3, [r4], #1
1a008602:	4601      	mov	r1, r0
1a008604:	3b30      	subs	r3, #48	; 0x30
1a008606:	220a      	movs	r2, #10
1a008608:	4638      	mov	r0, r7
1a00860a:	f7ff ff81 	bl	1a008510 <__multadd>
1a00860e:	42a6      	cmp	r6, r4
1a008610:	d1f5      	bne.n	1a0085fe <__s2b+0x6e>
1a008612:	e8bd 83f8 	ldmia.w	sp!, {r3, r4, r5, r6, r7, r8, r9, pc}
1a008616:	340a      	adds	r4, #10
1a008618:	f04f 0809 	mov.w	r8, #9
1a00861c:	e7ea      	b.n	1a0085f4 <__s2b+0x64>
1a00861e:	2100      	movs	r1, #0
1a008620:	e7ce      	b.n	1a0085c0 <__s2b+0x30>
1a008622:	bf00      	nop
1a008624:	38e38e39 	.word	0x38e38e39

1a008628 <__hi0bits>:
1a008628:	0c02      	lsrs	r2, r0, #16
1a00862a:	0412      	lsls	r2, r2, #16
1a00862c:	4603      	mov	r3, r0
1a00862e:	b9c2      	cbnz	r2, 1a008662 <__hi0bits+0x3a>
1a008630:	0403      	lsls	r3, r0, #16
1a008632:	2010      	movs	r0, #16
1a008634:	f013 4f7f 	tst.w	r3, #4278190080	; 0xff000000
1a008638:	bf04      	itt	eq
1a00863a:	021b      	lsleq	r3, r3, #8
1a00863c:	3008      	addeq	r0, #8
1a00863e:	f013 4f70 	tst.w	r3, #4026531840	; 0xf0000000
1a008642:	bf04      	itt	eq
1a008644:	011b      	lsleq	r3, r3, #4
1a008646:	3004      	addeq	r0, #4
1a008648:	f013 4f40 	tst.w	r3, #3221225472	; 0xc0000000
1a00864c:	bf04      	itt	eq
1a00864e:	009b      	lsleq	r3, r3, #2
1a008650:	3002      	addeq	r0, #2
1a008652:	2b00      	cmp	r3, #0
1a008654:	db04      	blt.n	1a008660 <__hi0bits+0x38>
1a008656:	005b      	lsls	r3, r3, #1
1a008658:	d501      	bpl.n	1a00865e <__hi0bits+0x36>
1a00865a:	3001      	adds	r0, #1
1a00865c:	4770      	bx	lr
1a00865e:	2020      	movs	r0, #32
1a008660:	4770      	bx	lr
1a008662:	2000      	movs	r0, #0
1a008664:	e7e6      	b.n	1a008634 <__hi0bits+0xc>
1a008666:	bf00      	nop

1a008668 <__lo0bits>:
1a008668:	6803      	ldr	r3, [r0, #0]
1a00866a:	f013 0207 	ands.w	r2, r3, #7
1a00866e:	4601      	mov	r1, r0
1a008670:	d007      	beq.n	1a008682 <__lo0bits+0x1a>
1a008672:	07da      	lsls	r2, r3, #31
1a008674:	d41f      	bmi.n	1a0086b6 <__lo0bits+0x4e>
1a008676:	0798      	lsls	r0, r3, #30
1a008678:	d51f      	bpl.n	1a0086ba <__lo0bits+0x52>
1a00867a:	085b      	lsrs	r3, r3, #1
1a00867c:	600b      	str	r3, [r1, #0]
1a00867e:	2001      	movs	r0, #1
1a008680:	4770      	bx	lr
1a008682:	b298      	uxth	r0, r3
1a008684:	b1a0      	cbz	r0, 1a0086b0 <__lo0bits+0x48>
1a008686:	4610      	mov	r0, r2
1a008688:	f013 0fff 	tst.w	r3, #255	; 0xff
1a00868c:	bf04      	itt	eq
1a00868e:	0a1b      	lsreq	r3, r3, #8
1a008690:	3008      	addeq	r0, #8
1a008692:	071a      	lsls	r2, r3, #28
1a008694:	bf04      	itt	eq
1a008696:	091b      	lsreq	r3, r3, #4
1a008698:	3004      	addeq	r0, #4
1a00869a:	079a      	lsls	r2, r3, #30
1a00869c:	bf04      	itt	eq
1a00869e:	089b      	lsreq	r3, r3, #2
1a0086a0:	3002      	addeq	r0, #2
1a0086a2:	07da      	lsls	r2, r3, #31
1a0086a4:	d402      	bmi.n	1a0086ac <__lo0bits+0x44>
1a0086a6:	085b      	lsrs	r3, r3, #1
1a0086a8:	d00b      	beq.n	1a0086c2 <__lo0bits+0x5a>
1a0086aa:	3001      	adds	r0, #1
1a0086ac:	600b      	str	r3, [r1, #0]
1a0086ae:	4770      	bx	lr
1a0086b0:	0c1b      	lsrs	r3, r3, #16
1a0086b2:	2010      	movs	r0, #16
1a0086b4:	e7e8      	b.n	1a008688 <__lo0bits+0x20>
1a0086b6:	2000      	movs	r0, #0
1a0086b8:	4770      	bx	lr
1a0086ba:	089b      	lsrs	r3, r3, #2
1a0086bc:	600b      	str	r3, [r1, #0]
1a0086be:	2002      	movs	r0, #2
1a0086c0:	4770      	bx	lr
1a0086c2:	2020      	movs	r0, #32
1a0086c4:	4770      	bx	lr
1a0086c6:	bf00      	nop

1a0086c8 <__i2b>:
1a0086c8:	b510      	push	{r4, lr}
1a0086ca:	460c      	mov	r4, r1
1a0086cc:	2101      	movs	r1, #1
1a0086ce:	f7ff feef 	bl	1a0084b0 <_Balloc>
1a0086d2:	2201      	movs	r2, #1
1a0086d4:	e9c0 2404 	strd	r2, r4, [r0, #16]
1a0086d8:	bd10      	pop	{r4, pc}
1a0086da:	bf00      	nop

1a0086dc <__multiply>:
1a0086dc:	e92d 4ff0 	stmdb	sp!, {r4, r5, r6, r7, r8, r9, sl, fp, lr}
1a0086e0:	690e      	ldr	r6, [r1, #16]
1a0086e2:	6914      	ldr	r4, [r2, #16]
1a0086e4:	42a6      	cmp	r6, r4
1a0086e6:	b083      	sub	sp, #12
1a0086e8:	460f      	mov	r7, r1
1a0086ea:	4615      	mov	r5, r2
1a0086ec:	da04      	bge.n	1a0086f8 <__multiply+0x1c>
1a0086ee:	4632      	mov	r2, r6
1a0086f0:	462f      	mov	r7, r5
1a0086f2:	4626      	mov	r6, r4
1a0086f4:	460d      	mov	r5, r1
1a0086f6:	4614      	mov	r4, r2
1a0086f8:	e9d7 1301 	ldrd	r1, r3, [r7, #4]
1a0086fc:	eb06 0804 	add.w	r8, r6, r4
1a008700:	4543      	cmp	r3, r8
1a008702:	bfb8      	it	lt
1a008704:	3101      	addlt	r1, #1
1a008706:	f7ff fed3 	bl	1a0084b0 <_Balloc>
1a00870a:	f100 0914 	add.w	r9, r0, #20
1a00870e:	eb09 0e88 	add.w	lr, r9, r8, lsl #2
1a008712:	45f1      	cmp	r9, lr
1a008714:	9000      	str	r0, [sp, #0]
1a008716:	d205      	bcs.n	1a008724 <__multiply+0x48>
1a008718:	464b      	mov	r3, r9
1a00871a:	2200      	movs	r2, #0
1a00871c:	f843 2b04 	str.w	r2, [r3], #4
1a008720:	459e      	cmp	lr, r3
1a008722:	d8fb      	bhi.n	1a00871c <__multiply+0x40>
1a008724:	f105 0a14 	add.w	sl, r5, #20
1a008728:	eb0a 0484 	add.w	r4, sl, r4, lsl #2
1a00872c:	f107 0314 	add.w	r3, r7, #20
1a008730:	45a2      	cmp	sl, r4
1a008732:	eb03 0c86 	add.w	ip, r3, r6, lsl #2
1a008736:	d261      	bcs.n	1a0087fc <__multiply+0x120>
1a008738:	1b64      	subs	r4, r4, r5
1a00873a:	3c15      	subs	r4, #21
1a00873c:	f024 0403 	bic.w	r4, r4, #3
1a008740:	f8cd e004 	str.w	lr, [sp, #4]
1a008744:	44a2      	add	sl, r4
1a008746:	f105 0210 	add.w	r2, r5, #16
1a00874a:	469e      	mov	lr, r3
1a00874c:	e005      	b.n	1a00875a <__multiply+0x7e>
1a00874e:	0c2d      	lsrs	r5, r5, #16
1a008750:	d12b      	bne.n	1a0087aa <__multiply+0xce>
1a008752:	4592      	cmp	sl, r2
1a008754:	f109 0904 	add.w	r9, r9, #4
1a008758:	d04e      	beq.n	1a0087f8 <__multiply+0x11c>
1a00875a:	f852 5f04 	ldr.w	r5, [r2, #4]!
1a00875e:	fa1f fb85 	uxth.w	fp, r5
1a008762:	f1bb 0f00 	cmp.w	fp, #0
1a008766:	d0f2      	beq.n	1a00874e <__multiply+0x72>
1a008768:	4677      	mov	r7, lr
1a00876a:	464e      	mov	r6, r9
1a00876c:	2000      	movs	r0, #0
1a00876e:	e000      	b.n	1a008772 <__multiply+0x96>
1a008770:	4626      	mov	r6, r4
1a008772:	f857 1b04 	ldr.w	r1, [r7], #4
1a008776:	6834      	ldr	r4, [r6, #0]
1a008778:	b28b      	uxth	r3, r1
1a00877a:	b2a5      	uxth	r5, r4
1a00877c:	0c09      	lsrs	r1, r1, #16
1a00877e:	0c24      	lsrs	r4, r4, #16
1a008780:	fb0b 5303 	mla	r3, fp, r3, r5
1a008784:	4403      	add	r3, r0
1a008786:	fb0b 4001 	mla	r0, fp, r1, r4
1a00878a:	eb00 4013 	add.w	r0, r0, r3, lsr #16
1a00878e:	4634      	mov	r4, r6
1a008790:	b29b      	uxth	r3, r3
1a008792:	ea43 4300 	orr.w	r3, r3, r0, lsl #16
1a008796:	45bc      	cmp	ip, r7
1a008798:	ea4f 4010 	mov.w	r0, r0, lsr #16
1a00879c:	f844 3b04 	str.w	r3, [r4], #4
1a0087a0:	d8e6      	bhi.n	1a008770 <__multiply+0x94>
1a0087a2:	6070      	str	r0, [r6, #4]
1a0087a4:	6815      	ldr	r5, [r2, #0]
1a0087a6:	0c2d      	lsrs	r5, r5, #16
1a0087a8:	d0d3      	beq.n	1a008752 <__multiply+0x76>
1a0087aa:	f8d9 3000 	ldr.w	r3, [r9]
1a0087ae:	4676      	mov	r6, lr
1a0087b0:	4618      	mov	r0, r3
1a0087b2:	46cb      	mov	fp, r9
1a0087b4:	2100      	movs	r1, #0
1a0087b6:	e000      	b.n	1a0087ba <__multiply+0xde>
1a0087b8:	46a3      	mov	fp, r4
1a0087ba:	8834      	ldrh	r4, [r6, #0]
1a0087bc:	0c00      	lsrs	r0, r0, #16
1a0087be:	fb05 0004 	mla	r0, r5, r4, r0
1a0087c2:	4401      	add	r1, r0
1a0087c4:	b29b      	uxth	r3, r3
1a0087c6:	465c      	mov	r4, fp
1a0087c8:	ea43 4301 	orr.w	r3, r3, r1, lsl #16
1a0087cc:	f844 3b04 	str.w	r3, [r4], #4
1a0087d0:	f856 3b04 	ldr.w	r3, [r6], #4
1a0087d4:	f8db 0004 	ldr.w	r0, [fp, #4]
1a0087d8:	0c1b      	lsrs	r3, r3, #16
1a0087da:	b287      	uxth	r7, r0
1a0087dc:	fb05 7303 	mla	r3, r5, r3, r7
1a0087e0:	eb03 4311 	add.w	r3, r3, r1, lsr #16
1a0087e4:	45b4      	cmp	ip, r6
1a0087e6:	ea4f 4113 	mov.w	r1, r3, lsr #16
1a0087ea:	d8e5      	bhi.n	1a0087b8 <__multiply+0xdc>
1a0087ec:	4592      	cmp	sl, r2
1a0087ee:	f8cb 3004 	str.w	r3, [fp, #4]
1a0087f2:	f109 0904 	add.w	r9, r9, #4
1a0087f6:	d1b0      	bne.n	1a00875a <__multiply+0x7e>
1a0087f8:	f8dd e004 	ldr.w	lr, [sp, #4]
1a0087fc:	f1b8 0f00 	cmp.w	r8, #0
1a008800:	dd0b      	ble.n	1a00881a <__multiply+0x13e>
1a008802:	f85e 3c04 	ldr.w	r3, [lr, #-4]
1a008806:	f1ae 0e04 	sub.w	lr, lr, #4
1a00880a:	b11b      	cbz	r3, 1a008814 <__multiply+0x138>
1a00880c:	e005      	b.n	1a00881a <__multiply+0x13e>
1a00880e:	f85e 3d04 	ldr.w	r3, [lr, #-4]!
1a008812:	b913      	cbnz	r3, 1a00881a <__multiply+0x13e>
1a008814:	f1b8 0801 	subs.w	r8, r8, #1
1a008818:	d1f9      	bne.n	1a00880e <__multiply+0x132>
1a00881a:	9800      	ldr	r0, [sp, #0]
1a00881c:	f8c0 8010 	str.w	r8, [r0, #16]
1a008820:	b003      	add	sp, #12
1a008822:	e8bd 8ff0 	ldmia.w	sp!, {r4, r5, r6, r7, r8, r9, sl, fp, pc}
1a008826:	bf00      	nop

1a008828 <__pow5mult>:
1a008828:	f012 0303 	ands.w	r3, r2, #3
1a00882c:	e92d 41f0 	stmdb	sp!, {r4, r5, r6, r7, r8, lr}
1a008830:	4614      	mov	r4, r2
1a008832:	4607      	mov	r7, r0
1a008834:	d12e      	bne.n	1a008894 <__pow5mult+0x6c>
1a008836:	460d      	mov	r5, r1
1a008838:	10a4      	asrs	r4, r4, #2
1a00883a:	d01c      	beq.n	1a008876 <__pow5mult+0x4e>
1a00883c:	6cbe      	ldr	r6, [r7, #72]	; 0x48
1a00883e:	b396      	cbz	r6, 1a0088a6 <__pow5mult+0x7e>
1a008840:	07e3      	lsls	r3, r4, #31
1a008842:	f04f 0800 	mov.w	r8, #0
1a008846:	d406      	bmi.n	1a008856 <__pow5mult+0x2e>
1a008848:	1064      	asrs	r4, r4, #1
1a00884a:	d014      	beq.n	1a008876 <__pow5mult+0x4e>
1a00884c:	6830      	ldr	r0, [r6, #0]
1a00884e:	b1a8      	cbz	r0, 1a00887c <__pow5mult+0x54>
1a008850:	4606      	mov	r6, r0
1a008852:	07e3      	lsls	r3, r4, #31
1a008854:	d5f8      	bpl.n	1a008848 <__pow5mult+0x20>
1a008856:	4632      	mov	r2, r6
1a008858:	4629      	mov	r1, r5
1a00885a:	4638      	mov	r0, r7
1a00885c:	f7ff ff3e 	bl	1a0086dc <__multiply>
1a008860:	b1b5      	cbz	r5, 1a008890 <__pow5mult+0x68>
1a008862:	686a      	ldr	r2, [r5, #4]
1a008864:	6cfb      	ldr	r3, [r7, #76]	; 0x4c
1a008866:	1064      	asrs	r4, r4, #1
1a008868:	f853 1022 	ldr.w	r1, [r3, r2, lsl #2]
1a00886c:	6029      	str	r1, [r5, #0]
1a00886e:	f843 5022 	str.w	r5, [r3, r2, lsl #2]
1a008872:	4605      	mov	r5, r0
1a008874:	d1ea      	bne.n	1a00884c <__pow5mult+0x24>
1a008876:	4628      	mov	r0, r5
1a008878:	e8bd 81f0 	ldmia.w	sp!, {r4, r5, r6, r7, r8, pc}
1a00887c:	4632      	mov	r2, r6
1a00887e:	4631      	mov	r1, r6
1a008880:	4638      	mov	r0, r7
1a008882:	f7ff ff2b 	bl	1a0086dc <__multiply>
1a008886:	6030      	str	r0, [r6, #0]
1a008888:	f8c0 8000 	str.w	r8, [r0]
1a00888c:	4606      	mov	r6, r0
1a00888e:	e7e0      	b.n	1a008852 <__pow5mult+0x2a>
1a008890:	4605      	mov	r5, r0
1a008892:	e7d9      	b.n	1a008848 <__pow5mult+0x20>
1a008894:	3b01      	subs	r3, #1
1a008896:	4a0b      	ldr	r2, [pc, #44]	; (1a0088c4 <__pow5mult+0x9c>)
1a008898:	f852 2023 	ldr.w	r2, [r2, r3, lsl #2]
1a00889c:	2300      	movs	r3, #0
1a00889e:	f7ff fe37 	bl	1a008510 <__multadd>
1a0088a2:	4605      	mov	r5, r0
1a0088a4:	e7c8      	b.n	1a008838 <__pow5mult+0x10>
1a0088a6:	2101      	movs	r1, #1
1a0088a8:	4638      	mov	r0, r7
1a0088aa:	f7ff fe01 	bl	1a0084b0 <_Balloc>
1a0088ae:	f240 2371 	movw	r3, #625	; 0x271
1a0088b2:	6143      	str	r3, [r0, #20]
1a0088b4:	2201      	movs	r2, #1
1a0088b6:	2300      	movs	r3, #0
1a0088b8:	6102      	str	r2, [r0, #16]
1a0088ba:	4606      	mov	r6, r0
1a0088bc:	64b8      	str	r0, [r7, #72]	; 0x48
1a0088be:	6003      	str	r3, [r0, #0]
1a0088c0:	e7be      	b.n	1a008840 <__pow5mult+0x18>
1a0088c2:	bf00      	nop
1a0088c4:	1a00d8e8 	.word	0x1a00d8e8

1a0088c8 <__lshift>:
1a0088c8:	e92d 47f0 	stmdb	sp!, {r4, r5, r6, r7, r8, r9, sl, lr}
1a0088cc:	4691      	mov	r9, r2
1a0088ce:	690a      	ldr	r2, [r1, #16]
1a0088d0:	460e      	mov	r6, r1
1a0088d2:	ea4f 1469 	mov.w	r4, r9, asr #5
1a0088d6:	e9d1 1301 	ldrd	r1, r3, [r1, #4]
1a0088da:	eb04 0802 	add.w	r8, r4, r2
1a0088de:	f108 0501 	add.w	r5, r8, #1
1a0088e2:	429d      	cmp	r5, r3
1a0088e4:	4607      	mov	r7, r0
1a0088e6:	dd04      	ble.n	1a0088f2 <__lshift+0x2a>
1a0088e8:	005b      	lsls	r3, r3, #1
1a0088ea:	429d      	cmp	r5, r3
1a0088ec:	f101 0101 	add.w	r1, r1, #1
1a0088f0:	dcfa      	bgt.n	1a0088e8 <__lshift+0x20>
1a0088f2:	4638      	mov	r0, r7
1a0088f4:	f7ff fddc 	bl	1a0084b0 <_Balloc>
1a0088f8:	2c00      	cmp	r4, #0
1a0088fa:	f100 0314 	add.w	r3, r0, #20
1a0088fe:	dd37      	ble.n	1a008970 <__lshift+0xa8>
1a008900:	eb03 0184 	add.w	r1, r3, r4, lsl #2
1a008904:	2200      	movs	r2, #0
1a008906:	f843 2b04 	str.w	r2, [r3], #4
1a00890a:	428b      	cmp	r3, r1
1a00890c:	d1fb      	bne.n	1a008906 <__lshift+0x3e>
1a00890e:	6934      	ldr	r4, [r6, #16]
1a008910:	f106 0314 	add.w	r3, r6, #20
1a008914:	f019 091f 	ands.w	r9, r9, #31
1a008918:	eb03 0c84 	add.w	ip, r3, r4, lsl #2
1a00891c:	d020      	beq.n	1a008960 <__lshift+0x98>
1a00891e:	f1c9 0e20 	rsb	lr, r9, #32
1a008922:	2200      	movs	r2, #0
1a008924:	e000      	b.n	1a008928 <__lshift+0x60>
1a008926:	4651      	mov	r1, sl
1a008928:	681c      	ldr	r4, [r3, #0]
1a00892a:	468a      	mov	sl, r1
1a00892c:	fa04 f409 	lsl.w	r4, r4, r9
1a008930:	4314      	orrs	r4, r2
1a008932:	f84a 4b04 	str.w	r4, [sl], #4
1a008936:	f853 2b04 	ldr.w	r2, [r3], #4
1a00893a:	4563      	cmp	r3, ip
1a00893c:	fa22 f20e 	lsr.w	r2, r2, lr
1a008940:	d3f1      	bcc.n	1a008926 <__lshift+0x5e>
1a008942:	604a      	str	r2, [r1, #4]
1a008944:	b10a      	cbz	r2, 1a00894a <__lshift+0x82>
1a008946:	f108 0502 	add.w	r5, r8, #2
1a00894a:	6cfb      	ldr	r3, [r7, #76]	; 0x4c
1a00894c:	6872      	ldr	r2, [r6, #4]
1a00894e:	3d01      	subs	r5, #1
1a008950:	f853 1022 	ldr.w	r1, [r3, r2, lsl #2]
1a008954:	6105      	str	r5, [r0, #16]
1a008956:	6031      	str	r1, [r6, #0]
1a008958:	f843 6022 	str.w	r6, [r3, r2, lsl #2]
1a00895c:	e8bd 87f0 	ldmia.w	sp!, {r4, r5, r6, r7, r8, r9, sl, pc}
1a008960:	3904      	subs	r1, #4
1a008962:	f853 2b04 	ldr.w	r2, [r3], #4
1a008966:	f841 2f04 	str.w	r2, [r1, #4]!
1a00896a:	459c      	cmp	ip, r3
1a00896c:	d8f9      	bhi.n	1a008962 <__lshift+0x9a>
1a00896e:	e7ec      	b.n	1a00894a <__lshift+0x82>
1a008970:	4619      	mov	r1, r3
1a008972:	e7cc      	b.n	1a00890e <__lshift+0x46>

1a008974 <__mcmp>:
1a008974:	b430      	push	{r4, r5}
1a008976:	690b      	ldr	r3, [r1, #16]
1a008978:	4605      	mov	r5, r0
1a00897a:	6900      	ldr	r0, [r0, #16]
1a00897c:	1ac0      	subs	r0, r0, r3
1a00897e:	d10f      	bne.n	1a0089a0 <__mcmp+0x2c>
1a008980:	009b      	lsls	r3, r3, #2
1a008982:	3514      	adds	r5, #20
1a008984:	3114      	adds	r1, #20
1a008986:	4419      	add	r1, r3
1a008988:	442b      	add	r3, r5
1a00898a:	e001      	b.n	1a008990 <__mcmp+0x1c>
1a00898c:	429d      	cmp	r5, r3
1a00898e:	d207      	bcs.n	1a0089a0 <__mcmp+0x2c>
1a008990:	f853 4d04 	ldr.w	r4, [r3, #-4]!
1a008994:	f851 2d04 	ldr.w	r2, [r1, #-4]!
1a008998:	4294      	cmp	r4, r2
1a00899a:	d0f7      	beq.n	1a00898c <__mcmp+0x18>
1a00899c:	d302      	bcc.n	1a0089a4 <__mcmp+0x30>
1a00899e:	2001      	movs	r0, #1
1a0089a0:	bc30      	pop	{r4, r5}
1a0089a2:	4770      	bx	lr
1a0089a4:	f04f 30ff 	mov.w	r0, #4294967295	; 0xffffffff
1a0089a8:	e7fa      	b.n	1a0089a0 <__mcmp+0x2c>
1a0089aa:	bf00      	nop

1a0089ac <__mdiff>:
1a0089ac:	e92d 41f0 	stmdb	sp!, {r4, r5, r6, r7, r8, lr}
1a0089b0:	6913      	ldr	r3, [r2, #16]
1a0089b2:	690d      	ldr	r5, [r1, #16]
1a0089b4:	1aed      	subs	r5, r5, r3
1a0089b6:	2d00      	cmp	r5, #0
1a0089b8:	460e      	mov	r6, r1
1a0089ba:	4690      	mov	r8, r2
1a0089bc:	f101 0414 	add.w	r4, r1, #20
1a0089c0:	f102 0714 	add.w	r7, r2, #20
1a0089c4:	d114      	bne.n	1a0089f0 <__mdiff+0x44>
1a0089c6:	009b      	lsls	r3, r3, #2
1a0089c8:	18e2      	adds	r2, r4, r3
1a0089ca:	443b      	add	r3, r7
1a0089cc:	e001      	b.n	1a0089d2 <__mdiff+0x26>
1a0089ce:	42a2      	cmp	r2, r4
1a0089d0:	d959      	bls.n	1a008a86 <__mdiff+0xda>
1a0089d2:	f852 cd04 	ldr.w	ip, [r2, #-4]!
1a0089d6:	f853 1d04 	ldr.w	r1, [r3, #-4]!
1a0089da:	458c      	cmp	ip, r1
1a0089dc:	d0f7      	beq.n	1a0089ce <__mdiff+0x22>
1a0089de:	d209      	bcs.n	1a0089f4 <__mdiff+0x48>
1a0089e0:	4622      	mov	r2, r4
1a0089e2:	4633      	mov	r3, r6
1a0089e4:	463c      	mov	r4, r7
1a0089e6:	4646      	mov	r6, r8
1a0089e8:	4617      	mov	r7, r2
1a0089ea:	4698      	mov	r8, r3
1a0089ec:	2501      	movs	r5, #1
1a0089ee:	e001      	b.n	1a0089f4 <__mdiff+0x48>
1a0089f0:	dbf6      	blt.n	1a0089e0 <__mdiff+0x34>
1a0089f2:	2500      	movs	r5, #0
1a0089f4:	6871      	ldr	r1, [r6, #4]
1a0089f6:	f7ff fd5b 	bl	1a0084b0 <_Balloc>
1a0089fa:	f8d8 3010 	ldr.w	r3, [r8, #16]
1a0089fe:	6936      	ldr	r6, [r6, #16]
1a008a00:	60c5      	str	r5, [r0, #12]
1a008a02:	eb07 0e83 	add.w	lr, r7, r3, lsl #2
1a008a06:	46bc      	mov	ip, r7
1a008a08:	f100 0514 	add.w	r5, r0, #20
1a008a0c:	eb04 0786 	add.w	r7, r4, r6, lsl #2
1a008a10:	2300      	movs	r3, #0
1a008a12:	f85c 1b04 	ldr.w	r1, [ip], #4
1a008a16:	f854 8b04 	ldr.w	r8, [r4], #4
1a008a1a:	b28a      	uxth	r2, r1
1a008a1c:	fa13 f388 	uxtah	r3, r3, r8
1a008a20:	0c09      	lsrs	r1, r1, #16
1a008a22:	1a9a      	subs	r2, r3, r2
1a008a24:	ebc1 4318 	rsb	r3, r1, r8, lsr #16
1a008a28:	eb03 4322 	add.w	r3, r3, r2, asr #16
1a008a2c:	b292      	uxth	r2, r2
1a008a2e:	ea42 4203 	orr.w	r2, r2, r3, lsl #16
1a008a32:	45e6      	cmp	lr, ip
1a008a34:	f845 2b04 	str.w	r2, [r5], #4
1a008a38:	ea4f 4323 	mov.w	r3, r3, asr #16
1a008a3c:	d8e9      	bhi.n	1a008a12 <__mdiff+0x66>
1a008a3e:	42a7      	cmp	r7, r4
1a008a40:	d917      	bls.n	1a008a72 <__mdiff+0xc6>
1a008a42:	46ae      	mov	lr, r5
1a008a44:	46a4      	mov	ip, r4
1a008a46:	f85c 2b04 	ldr.w	r2, [ip], #4
1a008a4a:	fa13 f382 	uxtah	r3, r3, r2
1a008a4e:	1419      	asrs	r1, r3, #16
1a008a50:	eb01 4112 	add.w	r1, r1, r2, lsr #16
1a008a54:	b29b      	uxth	r3, r3
1a008a56:	ea43 4201 	orr.w	r2, r3, r1, lsl #16
1a008a5a:	4567      	cmp	r7, ip
1a008a5c:	f84e 2b04 	str.w	r2, [lr], #4
1a008a60:	ea4f 4321 	mov.w	r3, r1, asr #16
1a008a64:	d8ef      	bhi.n	1a008a46 <__mdiff+0x9a>
1a008a66:	43e4      	mvns	r4, r4
1a008a68:	4427      	add	r7, r4
1a008a6a:	f027 0703 	bic.w	r7, r7, #3
1a008a6e:	3704      	adds	r7, #4
1a008a70:	443d      	add	r5, r7
1a008a72:	3d04      	subs	r5, #4
1a008a74:	b922      	cbnz	r2, 1a008a80 <__mdiff+0xd4>
1a008a76:	f855 3d04 	ldr.w	r3, [r5, #-4]!
1a008a7a:	3e01      	subs	r6, #1
1a008a7c:	2b00      	cmp	r3, #0
1a008a7e:	d0fa      	beq.n	1a008a76 <__mdiff+0xca>
1a008a80:	6106      	str	r6, [r0, #16]
1a008a82:	e8bd 81f0 	ldmia.w	sp!, {r4, r5, r6, r7, r8, pc}
1a008a86:	2100      	movs	r1, #0
1a008a88:	f7ff fd12 	bl	1a0084b0 <_Balloc>
1a008a8c:	2201      	movs	r2, #1
1a008a8e:	2300      	movs	r3, #0
1a008a90:	e9c0 2304 	strd	r2, r3, [r0, #16]
1a008a94:	e8bd 81f0 	ldmia.w	sp!, {r4, r5, r6, r7, r8, pc}

1a008a98 <__ulp>:
1a008a98:	4b13      	ldr	r3, [pc, #76]	; (1a008ae8 <__ulp+0x50>)
1a008a9a:	ee10 2a90 	vmov	r2, s1
1a008a9e:	401a      	ands	r2, r3
1a008aa0:	f1a2 7350 	sub.w	r3, r2, #54525952	; 0x3400000
1a008aa4:	2b00      	cmp	r3, #0
1a008aa6:	dd04      	ble.n	1a008ab2 <__ulp+0x1a>
1a008aa8:	2000      	movs	r0, #0
1a008aaa:	4619      	mov	r1, r3
1a008aac:	ec41 0b10 	vmov	d0, r0, r1
1a008ab0:	4770      	bx	lr
1a008ab2:	425b      	negs	r3, r3
1a008ab4:	151b      	asrs	r3, r3, #20
1a008ab6:	2b13      	cmp	r3, #19
1a008ab8:	dd0d      	ble.n	1a008ad6 <__ulp+0x3e>
1a008aba:	3b14      	subs	r3, #20
1a008abc:	2b1e      	cmp	r3, #30
1a008abe:	bfdd      	ittte	le
1a008ac0:	f1c3 031f 	rsble	r3, r3, #31
1a008ac4:	2201      	movle	r2, #1
1a008ac6:	fa02 f303 	lslle.w	r3, r2, r3
1a008aca:	2301      	movgt	r3, #1
1a008acc:	2100      	movs	r1, #0
1a008ace:	4618      	mov	r0, r3
1a008ad0:	ec41 0b10 	vmov	d0, r0, r1
1a008ad4:	4770      	bx	lr
1a008ad6:	f44f 2200 	mov.w	r2, #524288	; 0x80000
1a008ada:	2000      	movs	r0, #0
1a008adc:	fa42 f103 	asr.w	r1, r2, r3
1a008ae0:	ec41 0b10 	vmov	d0, r0, r1
1a008ae4:	4770      	bx	lr
1a008ae6:	bf00      	nop
1a008ae8:	7ff00000 	.word	0x7ff00000

1a008aec <__b2d>:
1a008aec:	b5f8      	push	{r3, r4, r5, r6, r7, lr}
1a008aee:	6904      	ldr	r4, [r0, #16]
1a008af0:	f100 0614 	add.w	r6, r0, #20
1a008af4:	eb06 0484 	add.w	r4, r6, r4, lsl #2
1a008af8:	f854 5c04 	ldr.w	r5, [r4, #-4]
1a008afc:	4628      	mov	r0, r5
1a008afe:	f7ff fd93 	bl	1a008628 <__hi0bits>
1a008b02:	f1c0 0320 	rsb	r3, r0, #32
1a008b06:	280a      	cmp	r0, #10
1a008b08:	600b      	str	r3, [r1, #0]
1a008b0a:	f1a4 0104 	sub.w	r1, r4, #4
1a008b0e:	dc17      	bgt.n	1a008b40 <__b2d+0x54>
1a008b10:	428e      	cmp	r6, r1
1a008b12:	f1c0 070b 	rsb	r7, r0, #11
1a008b16:	bf38      	it	cc
1a008b18:	f854 1c08 	ldrcc.w	r1, [r4, #-8]
1a008b1c:	fa25 fc07 	lsr.w	ip, r5, r7
1a008b20:	f100 0015 	add.w	r0, r0, #21
1a008b24:	f04c 537f 	orr.w	r3, ip, #1069547520	; 0x3fc00000
1a008b28:	bf34      	ite	cc
1a008b2a:	40f9      	lsrcc	r1, r7
1a008b2c:	2100      	movcs	r1, #0
1a008b2e:	fa05 f000 	lsl.w	r0, r5, r0
1a008b32:	f443 1340 	orr.w	r3, r3, #3145728	; 0x300000
1a008b36:	ea40 0201 	orr.w	r2, r0, r1
1a008b3a:	ec43 2b10 	vmov	d0, r2, r3
1a008b3e:	bdf8      	pop	{r3, r4, r5, r6, r7, pc}
1a008b40:	428e      	cmp	r6, r1
1a008b42:	f1a0 000b 	sub.w	r0, r0, #11
1a008b46:	d21c      	bcs.n	1a008b82 <__b2d+0x96>
1a008b48:	f854 1c08 	ldr.w	r1, [r4, #-8]
1a008b4c:	b1d8      	cbz	r0, 1a008b86 <__b2d+0x9a>
1a008b4e:	4085      	lsls	r5, r0
1a008b50:	f1c0 0c20 	rsb	ip, r0, #32
1a008b54:	f045 557f 	orr.w	r5, r5, #1069547520	; 0x3fc00000
1a008b58:	f1a4 0708 	sub.w	r7, r4, #8
1a008b5c:	f445 1540 	orr.w	r5, r5, #3145728	; 0x300000
1a008b60:	fa21 fe0c 	lsr.w	lr, r1, ip
1a008b64:	42be      	cmp	r6, r7
1a008b66:	fa01 f000 	lsl.w	r0, r1, r0
1a008b6a:	ea45 030e 	orr.w	r3, r5, lr
1a008b6e:	d204      	bcs.n	1a008b7a <__b2d+0x8e>
1a008b70:	f854 1c0c 	ldr.w	r1, [r4, #-12]
1a008b74:	fa21 f10c 	lsr.w	r1, r1, ip
1a008b78:	4308      	orrs	r0, r1
1a008b7a:	4602      	mov	r2, r0
1a008b7c:	ec43 2b10 	vmov	d0, r2, r3
1a008b80:	bdf8      	pop	{r3, r4, r5, r6, r7, pc}
1a008b82:	b940      	cbnz	r0, 1a008b96 <__b2d+0xaa>
1a008b84:	4601      	mov	r1, r0
1a008b86:	f045 537f 	orr.w	r3, r5, #1069547520	; 0x3fc00000
1a008b8a:	f443 1340 	orr.w	r3, r3, #3145728	; 0x300000
1a008b8e:	460a      	mov	r2, r1
1a008b90:	ec43 2b10 	vmov	d0, r2, r3
1a008b94:	bdf8      	pop	{r3, r4, r5, r6, r7, pc}
1a008b96:	fa05 f000 	lsl.w	r0, r5, r0
1a008b9a:	f040 537f 	orr.w	r3, r0, #1069547520	; 0x3fc00000
1a008b9e:	2000      	movs	r0, #0
1a008ba0:	f443 1340 	orr.w	r3, r3, #3145728	; 0x300000
1a008ba4:	4602      	mov	r2, r0
1a008ba6:	e7e9      	b.n	1a008b7c <__b2d+0x90>

1a008ba8 <__d2b>:
1a008ba8:	e92d 43f0 	stmdb	sp!, {r4, r5, r6, r7, r8, r9, lr}
1a008bac:	460f      	mov	r7, r1
1a008bae:	b083      	sub	sp, #12
1a008bb0:	2101      	movs	r1, #1
1a008bb2:	ec55 4b10 	vmov	r4, r5, d0
1a008bb6:	4616      	mov	r6, r2
1a008bb8:	f7ff fc7a 	bl	1a0084b0 <_Balloc>
1a008bbc:	f3c5 580a 	ubfx	r8, r5, #20, #11
1a008bc0:	4681      	mov	r9, r0
1a008bc2:	f3c5 0313 	ubfx	r3, r5, #0, #20
1a008bc6:	f1b8 0f00 	cmp.w	r8, #0
1a008bca:	d001      	beq.n	1a008bd0 <__d2b+0x28>
1a008bcc:	f443 1380 	orr.w	r3, r3, #1048576	; 0x100000
1a008bd0:	2c00      	cmp	r4, #0
1a008bd2:	9301      	str	r3, [sp, #4]
1a008bd4:	d024      	beq.n	1a008c20 <__d2b+0x78>
1a008bd6:	a802      	add	r0, sp, #8
1a008bd8:	f840 4d08 	str.w	r4, [r0, #-8]!
1a008bdc:	f7ff fd44 	bl	1a008668 <__lo0bits>
1a008be0:	2800      	cmp	r0, #0
1a008be2:	d136      	bne.n	1a008c52 <__d2b+0xaa>
1a008be4:	e9dd 2300 	ldrd	r2, r3, [sp]
1a008be8:	f8c9 2014 	str.w	r2, [r9, #20]
1a008bec:	2b00      	cmp	r3, #0
1a008bee:	bf0c      	ite	eq
1a008bf0:	2101      	moveq	r1, #1
1a008bf2:	2102      	movne	r1, #2
1a008bf4:	f8c9 3018 	str.w	r3, [r9, #24]
1a008bf8:	f8c9 1010 	str.w	r1, [r9, #16]
1a008bfc:	f1b8 0f00 	cmp.w	r8, #0
1a008c00:	d11b      	bne.n	1a008c3a <__d2b+0x92>
1a008c02:	eb09 0381 	add.w	r3, r9, r1, lsl #2
1a008c06:	f2a0 4032 	subw	r0, r0, #1074	; 0x432
1a008c0a:	6038      	str	r0, [r7, #0]
1a008c0c:	6918      	ldr	r0, [r3, #16]
1a008c0e:	f7ff fd0b 	bl	1a008628 <__hi0bits>
1a008c12:	ebc0 1041 	rsb	r0, r0, r1, lsl #5
1a008c16:	6030      	str	r0, [r6, #0]
1a008c18:	4648      	mov	r0, r9
1a008c1a:	b003      	add	sp, #12
1a008c1c:	e8bd 83f0 	ldmia.w	sp!, {r4, r5, r6, r7, r8, r9, pc}
1a008c20:	a801      	add	r0, sp, #4
1a008c22:	f7ff fd21 	bl	1a008668 <__lo0bits>
1a008c26:	9b01      	ldr	r3, [sp, #4]
1a008c28:	f8c9 3014 	str.w	r3, [r9, #20]
1a008c2c:	2101      	movs	r1, #1
1a008c2e:	3020      	adds	r0, #32
1a008c30:	f8c9 1010 	str.w	r1, [r9, #16]
1a008c34:	f1b8 0f00 	cmp.w	r8, #0
1a008c38:	d0e3      	beq.n	1a008c02 <__d2b+0x5a>
1a008c3a:	f2a8 4833 	subw	r8, r8, #1075	; 0x433
1a008c3e:	eb08 0300 	add.w	r3, r8, r0
1a008c42:	f1c0 0035 	rsb	r0, r0, #53	; 0x35
1a008c46:	603b      	str	r3, [r7, #0]
1a008c48:	6030      	str	r0, [r6, #0]
1a008c4a:	4648      	mov	r0, r9
1a008c4c:	b003      	add	sp, #12
1a008c4e:	e8bd 83f0 	ldmia.w	sp!, {r4, r5, r6, r7, r8, r9, pc}
1a008c52:	e9dd 1300 	ldrd	r1, r3, [sp]
1a008c56:	f1c0 0220 	rsb	r2, r0, #32
1a008c5a:	fa03 f202 	lsl.w	r2, r3, r2
1a008c5e:	430a      	orrs	r2, r1
1a008c60:	40c3      	lsrs	r3, r0
1a008c62:	9301      	str	r3, [sp, #4]
1a008c64:	f8c9 2014 	str.w	r2, [r9, #20]
1a008c68:	e7c0      	b.n	1a008bec <__d2b+0x44>
1a008c6a:	bf00      	nop

1a008c6c <__ratio>:
1a008c6c:	e92d 43f0 	stmdb	sp!, {r4, r5, r6, r7, r8, r9, lr}
1a008c70:	b083      	sub	sp, #12
1a008c72:	4688      	mov	r8, r1
1a008c74:	4669      	mov	r1, sp
1a008c76:	4681      	mov	r9, r0
1a008c78:	f7ff ff38 	bl	1a008aec <__b2d>
1a008c7c:	4640      	mov	r0, r8
1a008c7e:	a901      	add	r1, sp, #4
1a008c80:	ec55 4b10 	vmov	r4, r5, d0
1a008c84:	f7ff ff32 	bl	1a008aec <__b2d>
1a008c88:	e9dd 1300 	ldrd	r1, r3, [sp]
1a008c8c:	f8d9 2010 	ldr.w	r2, [r9, #16]
1a008c90:	f8d8 0010 	ldr.w	r0, [r8, #16]
1a008c94:	1acb      	subs	r3, r1, r3
1a008c96:	1a12      	subs	r2, r2, r0
1a008c98:	eb03 1342 	add.w	r3, r3, r2, lsl #5
1a008c9c:	2b00      	cmp	r3, #0
1a008c9e:	ec57 6b10 	vmov	r6, r7, d0
1a008ca2:	dd0d      	ble.n	1a008cc0 <__ratio+0x54>
1a008ca4:	eb05 5903 	add.w	r9, r5, r3, lsl #20
1a008ca8:	464d      	mov	r5, r9
1a008caa:	4632      	mov	r2, r6
1a008cac:	463b      	mov	r3, r7
1a008cae:	4620      	mov	r0, r4
1a008cb0:	4629      	mov	r1, r5
1a008cb2:	f7f9 fbc5 	bl	1a002440 <__aeabi_ddiv>
1a008cb6:	ec41 0b10 	vmov	d0, r0, r1
1a008cba:	b003      	add	sp, #12
1a008cbc:	e8bd 83f0 	ldmia.w	sp!, {r4, r5, r6, r7, r8, r9, pc}
1a008cc0:	ebc3 3303 	rsb	r3, r3, r3, lsl #12
1a008cc4:	eb07 5103 	add.w	r1, r7, r3, lsl #20
1a008cc8:	460f      	mov	r7, r1
1a008cca:	e7ee      	b.n	1a008caa <__ratio+0x3e>

1a008ccc <__copybits>:
1a008ccc:	b470      	push	{r4, r5, r6}
1a008cce:	6914      	ldr	r4, [r2, #16]
1a008cd0:	1e4d      	subs	r5, r1, #1
1a008cd2:	f102 0314 	add.w	r3, r2, #20
1a008cd6:	eb03 0184 	add.w	r1, r3, r4, lsl #2
1a008cda:	116d      	asrs	r5, r5, #5
1a008cdc:	3501      	adds	r5, #1
1a008cde:	428b      	cmp	r3, r1
1a008ce0:	eb00 0485 	add.w	r4, r0, r5, lsl #2
1a008ce4:	d20c      	bcs.n	1a008d00 <__copybits+0x34>
1a008ce6:	1f05      	subs	r5, r0, #4
1a008ce8:	f853 6b04 	ldr.w	r6, [r3], #4
1a008cec:	f845 6f04 	str.w	r6, [r5, #4]!
1a008cf0:	4299      	cmp	r1, r3
1a008cf2:	d8f9      	bhi.n	1a008ce8 <__copybits+0x1c>
1a008cf4:	1a8b      	subs	r3, r1, r2
1a008cf6:	3b15      	subs	r3, #21
1a008cf8:	f023 0303 	bic.w	r3, r3, #3
1a008cfc:	3304      	adds	r3, #4
1a008cfe:	4418      	add	r0, r3
1a008d00:	4284      	cmp	r4, r0
1a008d02:	d904      	bls.n	1a008d0e <__copybits+0x42>
1a008d04:	2300      	movs	r3, #0
1a008d06:	f840 3b04 	str.w	r3, [r0], #4
1a008d0a:	4284      	cmp	r4, r0
1a008d0c:	d8fb      	bhi.n	1a008d06 <__copybits+0x3a>
1a008d0e:	bc70      	pop	{r4, r5, r6}
1a008d10:	4770      	bx	lr
1a008d12:	bf00      	nop

1a008d14 <__any_on>:
1a008d14:	6903      	ldr	r3, [r0, #16]
1a008d16:	b410      	push	{r4}
1a008d18:	114c      	asrs	r4, r1, #5
1a008d1a:	42a3      	cmp	r3, r4
1a008d1c:	f100 0214 	add.w	r2, r0, #20
1a008d20:	da10      	bge.n	1a008d44 <__any_on+0x30>
1a008d22:	eb02 0383 	add.w	r3, r2, r3, lsl #2
1a008d26:	429a      	cmp	r2, r3
1a008d28:	d21e      	bcs.n	1a008d68 <__any_on+0x54>
1a008d2a:	f853 0c04 	ldr.w	r0, [r3, #-4]
1a008d2e:	3b04      	subs	r3, #4
1a008d30:	b118      	cbz	r0, 1a008d3a <__any_on+0x26>
1a008d32:	e015      	b.n	1a008d60 <__any_on+0x4c>
1a008d34:	f853 1d04 	ldr.w	r1, [r3, #-4]!
1a008d38:	b991      	cbnz	r1, 1a008d60 <__any_on+0x4c>
1a008d3a:	429a      	cmp	r2, r3
1a008d3c:	d3fa      	bcc.n	1a008d34 <__any_on+0x20>
1a008d3e:	f85d 4b04 	ldr.w	r4, [sp], #4
1a008d42:	4770      	bx	lr
1a008d44:	eb02 0384 	add.w	r3, r2, r4, lsl #2
1a008d48:	dded      	ble.n	1a008d26 <__any_on+0x12>
1a008d4a:	f011 011f 	ands.w	r1, r1, #31
1a008d4e:	d0ea      	beq.n	1a008d26 <__any_on+0x12>
1a008d50:	f852 4024 	ldr.w	r4, [r2, r4, lsl #2]
1a008d54:	fa24 f001 	lsr.w	r0, r4, r1
1a008d58:	fa00 f101 	lsl.w	r1, r0, r1
1a008d5c:	428c      	cmp	r4, r1
1a008d5e:	d0e2      	beq.n	1a008d26 <__any_on+0x12>
1a008d60:	2001      	movs	r0, #1
1a008d62:	f85d 4b04 	ldr.w	r4, [sp], #4
1a008d66:	4770      	bx	lr
1a008d68:	2000      	movs	r0, #0
1a008d6a:	e7e8      	b.n	1a008d3e <__any_on+0x2a>

1a008d6c <realloc>:
1a008d6c:	4b02      	ldr	r3, [pc, #8]	; (1a008d78 <realloc+0xc>)
1a008d6e:	460a      	mov	r2, r1
1a008d70:	4601      	mov	r1, r0
1a008d72:	6818      	ldr	r0, [r3, #0]
1a008d74:	f000 b802 	b.w	1a008d7c <_realloc_r>
1a008d78:	10000048 	.word	0x10000048

1a008d7c <_realloc_r>:
1a008d7c:	e92d 4ff0 	stmdb	sp!, {r4, r5, r6, r7, r8, r9, sl, fp, lr}
1a008d80:	4692      	mov	sl, r2
1a008d82:	b083      	sub	sp, #12
1a008d84:	2900      	cmp	r1, #0
1a008d86:	f000 80a1 	beq.w	1a008ecc <_realloc_r+0x150>
1a008d8a:	460d      	mov	r5, r1
1a008d8c:	4680      	mov	r8, r0
1a008d8e:	f10a 040b 	add.w	r4, sl, #11
1a008d92:	f7ff fb81 	bl	1a008498 <__malloc_lock>
1a008d96:	f855 2c04 	ldr.w	r2, [r5, #-4]
1a008d9a:	2c16      	cmp	r4, #22
1a008d9c:	f022 0603 	bic.w	r6, r2, #3
1a008da0:	f1a5 0708 	sub.w	r7, r5, #8
1a008da4:	d83e      	bhi.n	1a008e24 <_realloc_r+0xa8>
1a008da6:	2410      	movs	r4, #16
1a008da8:	4621      	mov	r1, r4
1a008daa:	45a2      	cmp	sl, r4
1a008dac:	d83f      	bhi.n	1a008e2e <_realloc_r+0xb2>
1a008dae:	428e      	cmp	r6, r1
1a008db0:	eb07 0906 	add.w	r9, r7, r6
1a008db4:	da74      	bge.n	1a008ea0 <_realloc_r+0x124>
1a008db6:	4bc7      	ldr	r3, [pc, #796]	; (1a0090d4 <_realloc_r+0x358>)
1a008db8:	6898      	ldr	r0, [r3, #8]
1a008dba:	4548      	cmp	r0, r9
1a008dbc:	f000 80aa 	beq.w	1a008f14 <_realloc_r+0x198>
1a008dc0:	f8d9 0004 	ldr.w	r0, [r9, #4]
1a008dc4:	f020 0301 	bic.w	r3, r0, #1
1a008dc8:	444b      	add	r3, r9
1a008dca:	685b      	ldr	r3, [r3, #4]
1a008dcc:	07db      	lsls	r3, r3, #31
1a008dce:	f140 8083 	bpl.w	1a008ed8 <_realloc_r+0x15c>
1a008dd2:	07d2      	lsls	r2, r2, #31
1a008dd4:	d534      	bpl.n	1a008e40 <_realloc_r+0xc4>
1a008dd6:	4651      	mov	r1, sl
1a008dd8:	4640      	mov	r0, r8
1a008dda:	f7fe ffbf 	bl	1a007d5c <_malloc_r>
1a008dde:	4682      	mov	sl, r0
1a008de0:	b1e0      	cbz	r0, 1a008e1c <_realloc_r+0xa0>
1a008de2:	f855 3c04 	ldr.w	r3, [r5, #-4]
1a008de6:	f023 0301 	bic.w	r3, r3, #1
1a008dea:	443b      	add	r3, r7
1a008dec:	f1a0 0208 	sub.w	r2, r0, #8
1a008df0:	4293      	cmp	r3, r2
1a008df2:	f000 80f9 	beq.w	1a008fe8 <_realloc_r+0x26c>
1a008df6:	1f32      	subs	r2, r6, #4
1a008df8:	2a24      	cmp	r2, #36	; 0x24
1a008dfa:	f200 8107 	bhi.w	1a00900c <_realloc_r+0x290>
1a008dfe:	2a13      	cmp	r2, #19
1a008e00:	6829      	ldr	r1, [r5, #0]
1a008e02:	f200 80e6 	bhi.w	1a008fd2 <_realloc_r+0x256>
1a008e06:	4603      	mov	r3, r0
1a008e08:	462a      	mov	r2, r5
1a008e0a:	6019      	str	r1, [r3, #0]
1a008e0c:	6851      	ldr	r1, [r2, #4]
1a008e0e:	6059      	str	r1, [r3, #4]
1a008e10:	6892      	ldr	r2, [r2, #8]
1a008e12:	609a      	str	r2, [r3, #8]
1a008e14:	4629      	mov	r1, r5
1a008e16:	4640      	mov	r0, r8
1a008e18:	f7fe fc10 	bl	1a00763c <_free_r>
1a008e1c:	4640      	mov	r0, r8
1a008e1e:	f7ff fb41 	bl	1a0084a4 <__malloc_unlock>
1a008e22:	e04f      	b.n	1a008ec4 <_realloc_r+0x148>
1a008e24:	f024 0407 	bic.w	r4, r4, #7
1a008e28:	2c00      	cmp	r4, #0
1a008e2a:	4621      	mov	r1, r4
1a008e2c:	dabd      	bge.n	1a008daa <_realloc_r+0x2e>
1a008e2e:	f04f 0a00 	mov.w	sl, #0
1a008e32:	230c      	movs	r3, #12
1a008e34:	4650      	mov	r0, sl
1a008e36:	f8c8 3000 	str.w	r3, [r8]
1a008e3a:	b003      	add	sp, #12
1a008e3c:	e8bd 8ff0 	ldmia.w	sp!, {r4, r5, r6, r7, r8, r9, sl, fp, pc}
1a008e40:	f855 3c08 	ldr.w	r3, [r5, #-8]
1a008e44:	eba7 0b03 	sub.w	fp, r7, r3
1a008e48:	f8db 2004 	ldr.w	r2, [fp, #4]
1a008e4c:	f022 0203 	bic.w	r2, r2, #3
1a008e50:	18b3      	adds	r3, r6, r2
1a008e52:	428b      	cmp	r3, r1
1a008e54:	dbbf      	blt.n	1a008dd6 <_realloc_r+0x5a>
1a008e56:	46da      	mov	sl, fp
1a008e58:	f8db 100c 	ldr.w	r1, [fp, #12]
1a008e5c:	f85a 0f08 	ldr.w	r0, [sl, #8]!
1a008e60:	1f32      	subs	r2, r6, #4
1a008e62:	2a24      	cmp	r2, #36	; 0x24
1a008e64:	60c1      	str	r1, [r0, #12]
1a008e66:	eb0b 0903 	add.w	r9, fp, r3
1a008e6a:	6088      	str	r0, [r1, #8]
1a008e6c:	f200 80c6 	bhi.w	1a008ffc <_realloc_r+0x280>
1a008e70:	2a13      	cmp	r2, #19
1a008e72:	6829      	ldr	r1, [r5, #0]
1a008e74:	f240 80c0 	bls.w	1a008ff8 <_realloc_r+0x27c>
1a008e78:	f8cb 1008 	str.w	r1, [fp, #8]
1a008e7c:	6869      	ldr	r1, [r5, #4]
1a008e7e:	f8cb 100c 	str.w	r1, [fp, #12]
1a008e82:	2a1b      	cmp	r2, #27
1a008e84:	68a9      	ldr	r1, [r5, #8]
1a008e86:	f200 80d8 	bhi.w	1a00903a <_realloc_r+0x2be>
1a008e8a:	f10b 0210 	add.w	r2, fp, #16
1a008e8e:	3508      	adds	r5, #8
1a008e90:	6011      	str	r1, [r2, #0]
1a008e92:	6869      	ldr	r1, [r5, #4]
1a008e94:	6051      	str	r1, [r2, #4]
1a008e96:	68a9      	ldr	r1, [r5, #8]
1a008e98:	6091      	str	r1, [r2, #8]
1a008e9a:	461e      	mov	r6, r3
1a008e9c:	465f      	mov	r7, fp
1a008e9e:	4655      	mov	r5, sl
1a008ea0:	687b      	ldr	r3, [r7, #4]
1a008ea2:	1b32      	subs	r2, r6, r4
1a008ea4:	2a0f      	cmp	r2, #15
1a008ea6:	f003 0301 	and.w	r3, r3, #1
1a008eaa:	d822      	bhi.n	1a008ef2 <_realloc_r+0x176>
1a008eac:	4333      	orrs	r3, r6
1a008eae:	607b      	str	r3, [r7, #4]
1a008eb0:	f8d9 3004 	ldr.w	r3, [r9, #4]
1a008eb4:	f043 0301 	orr.w	r3, r3, #1
1a008eb8:	f8c9 3004 	str.w	r3, [r9, #4]
1a008ebc:	4640      	mov	r0, r8
1a008ebe:	f7ff faf1 	bl	1a0084a4 <__malloc_unlock>
1a008ec2:	46aa      	mov	sl, r5
1a008ec4:	4650      	mov	r0, sl
1a008ec6:	b003      	add	sp, #12
1a008ec8:	e8bd 8ff0 	ldmia.w	sp!, {r4, r5, r6, r7, r8, r9, sl, fp, pc}
1a008ecc:	4611      	mov	r1, r2
1a008ece:	b003      	add	sp, #12
1a008ed0:	e8bd 4ff0 	ldmia.w	sp!, {r4, r5, r6, r7, r8, r9, sl, fp, lr}
1a008ed4:	f7fe bf42 	b.w	1a007d5c <_malloc_r>
1a008ed8:	f020 0003 	bic.w	r0, r0, #3
1a008edc:	1833      	adds	r3, r6, r0
1a008ede:	428b      	cmp	r3, r1
1a008ee0:	db61      	blt.n	1a008fa6 <_realloc_r+0x22a>
1a008ee2:	e9d9 1202 	ldrd	r1, r2, [r9, #8]
1a008ee6:	461e      	mov	r6, r3
1a008ee8:	60ca      	str	r2, [r1, #12]
1a008eea:	eb07 0903 	add.w	r9, r7, r3
1a008eee:	6091      	str	r1, [r2, #8]
1a008ef0:	e7d6      	b.n	1a008ea0 <_realloc_r+0x124>
1a008ef2:	1939      	adds	r1, r7, r4
1a008ef4:	4323      	orrs	r3, r4
1a008ef6:	f042 0201 	orr.w	r2, r2, #1
1a008efa:	607b      	str	r3, [r7, #4]
1a008efc:	604a      	str	r2, [r1, #4]
1a008efe:	f8d9 3004 	ldr.w	r3, [r9, #4]
1a008f02:	f043 0301 	orr.w	r3, r3, #1
1a008f06:	3108      	adds	r1, #8
1a008f08:	f8c9 3004 	str.w	r3, [r9, #4]
1a008f0c:	4640      	mov	r0, r8
1a008f0e:	f7fe fb95 	bl	1a00763c <_free_r>
1a008f12:	e7d3      	b.n	1a008ebc <_realloc_r+0x140>
1a008f14:	6840      	ldr	r0, [r0, #4]
1a008f16:	f020 0903 	bic.w	r9, r0, #3
1a008f1a:	44b1      	add	r9, r6
1a008f1c:	f104 0010 	add.w	r0, r4, #16
1a008f20:	4581      	cmp	r9, r0
1a008f22:	da77      	bge.n	1a009014 <_realloc_r+0x298>
1a008f24:	07d2      	lsls	r2, r2, #31
1a008f26:	f53f af56 	bmi.w	1a008dd6 <_realloc_r+0x5a>
1a008f2a:	f855 2c08 	ldr.w	r2, [r5, #-8]
1a008f2e:	eba7 0b02 	sub.w	fp, r7, r2
1a008f32:	f8db 2004 	ldr.w	r2, [fp, #4]
1a008f36:	f022 0203 	bic.w	r2, r2, #3
1a008f3a:	4491      	add	r9, r2
1a008f3c:	4548      	cmp	r0, r9
1a008f3e:	dc87      	bgt.n	1a008e50 <_realloc_r+0xd4>
1a008f40:	46da      	mov	sl, fp
1a008f42:	f8db 100c 	ldr.w	r1, [fp, #12]
1a008f46:	f85a 0f08 	ldr.w	r0, [sl, #8]!
1a008f4a:	1f32      	subs	r2, r6, #4
1a008f4c:	2a24      	cmp	r2, #36	; 0x24
1a008f4e:	60c1      	str	r1, [r0, #12]
1a008f50:	6088      	str	r0, [r1, #8]
1a008f52:	f200 80a1 	bhi.w	1a009098 <_realloc_r+0x31c>
1a008f56:	2a13      	cmp	r2, #19
1a008f58:	6829      	ldr	r1, [r5, #0]
1a008f5a:	f240 809b 	bls.w	1a009094 <_realloc_r+0x318>
1a008f5e:	f8cb 1008 	str.w	r1, [fp, #8]
1a008f62:	6869      	ldr	r1, [r5, #4]
1a008f64:	f8cb 100c 	str.w	r1, [fp, #12]
1a008f68:	2a1b      	cmp	r2, #27
1a008f6a:	68a9      	ldr	r1, [r5, #8]
1a008f6c:	f200 809b 	bhi.w	1a0090a6 <_realloc_r+0x32a>
1a008f70:	f10b 0210 	add.w	r2, fp, #16
1a008f74:	3508      	adds	r5, #8
1a008f76:	6011      	str	r1, [r2, #0]
1a008f78:	6869      	ldr	r1, [r5, #4]
1a008f7a:	6051      	str	r1, [r2, #4]
1a008f7c:	68a9      	ldr	r1, [r5, #8]
1a008f7e:	6091      	str	r1, [r2, #8]
1a008f80:	eb0b 0104 	add.w	r1, fp, r4
1a008f84:	eba9 0204 	sub.w	r2, r9, r4
1a008f88:	f042 0201 	orr.w	r2, r2, #1
1a008f8c:	6099      	str	r1, [r3, #8]
1a008f8e:	604a      	str	r2, [r1, #4]
1a008f90:	f8db 3004 	ldr.w	r3, [fp, #4]
1a008f94:	f003 0301 	and.w	r3, r3, #1
1a008f98:	431c      	orrs	r4, r3
1a008f9a:	4640      	mov	r0, r8
1a008f9c:	f8cb 4004 	str.w	r4, [fp, #4]
1a008fa0:	f7ff fa80 	bl	1a0084a4 <__malloc_unlock>
1a008fa4:	e78e      	b.n	1a008ec4 <_realloc_r+0x148>
1a008fa6:	07d3      	lsls	r3, r2, #31
1a008fa8:	f53f af15 	bmi.w	1a008dd6 <_realloc_r+0x5a>
1a008fac:	f855 3c08 	ldr.w	r3, [r5, #-8]
1a008fb0:	eba7 0b03 	sub.w	fp, r7, r3
1a008fb4:	f8db 2004 	ldr.w	r2, [fp, #4]
1a008fb8:	f022 0203 	bic.w	r2, r2, #3
1a008fbc:	4410      	add	r0, r2
1a008fbe:	1983      	adds	r3, r0, r6
1a008fc0:	428b      	cmp	r3, r1
1a008fc2:	f6ff af45 	blt.w	1a008e50 <_realloc_r+0xd4>
1a008fc6:	e9d9 1202 	ldrd	r1, r2, [r9, #8]
1a008fca:	46da      	mov	sl, fp
1a008fcc:	60ca      	str	r2, [r1, #12]
1a008fce:	6091      	str	r1, [r2, #8]
1a008fd0:	e742      	b.n	1a008e58 <_realloc_r+0xdc>
1a008fd2:	6001      	str	r1, [r0, #0]
1a008fd4:	686b      	ldr	r3, [r5, #4]
1a008fd6:	6043      	str	r3, [r0, #4]
1a008fd8:	2a1b      	cmp	r2, #27
1a008fda:	d83a      	bhi.n	1a009052 <_realloc_r+0x2d6>
1a008fdc:	f105 0208 	add.w	r2, r5, #8
1a008fe0:	f100 0308 	add.w	r3, r0, #8
1a008fe4:	68a9      	ldr	r1, [r5, #8]
1a008fe6:	e710      	b.n	1a008e0a <_realloc_r+0x8e>
1a008fe8:	f850 3c04 	ldr.w	r3, [r0, #-4]
1a008fec:	f023 0303 	bic.w	r3, r3, #3
1a008ff0:	441e      	add	r6, r3
1a008ff2:	eb07 0906 	add.w	r9, r7, r6
1a008ff6:	e753      	b.n	1a008ea0 <_realloc_r+0x124>
1a008ff8:	4652      	mov	r2, sl
1a008ffa:	e749      	b.n	1a008e90 <_realloc_r+0x114>
1a008ffc:	4629      	mov	r1, r5
1a008ffe:	4650      	mov	r0, sl
1a009000:	461e      	mov	r6, r3
1a009002:	465f      	mov	r7, fp
1a009004:	f7ff f9e4 	bl	1a0083d0 <memmove>
1a009008:	4655      	mov	r5, sl
1a00900a:	e749      	b.n	1a008ea0 <_realloc_r+0x124>
1a00900c:	4629      	mov	r1, r5
1a00900e:	f7ff f9df 	bl	1a0083d0 <memmove>
1a009012:	e6ff      	b.n	1a008e14 <_realloc_r+0x98>
1a009014:	4427      	add	r7, r4
1a009016:	eba9 0904 	sub.w	r9, r9, r4
1a00901a:	f049 0201 	orr.w	r2, r9, #1
1a00901e:	609f      	str	r7, [r3, #8]
1a009020:	607a      	str	r2, [r7, #4]
1a009022:	f855 3c04 	ldr.w	r3, [r5, #-4]
1a009026:	f003 0301 	and.w	r3, r3, #1
1a00902a:	431c      	orrs	r4, r3
1a00902c:	4640      	mov	r0, r8
1a00902e:	f845 4c04 	str.w	r4, [r5, #-4]
1a009032:	f7ff fa37 	bl	1a0084a4 <__malloc_unlock>
1a009036:	46aa      	mov	sl, r5
1a009038:	e744      	b.n	1a008ec4 <_realloc_r+0x148>
1a00903a:	f8cb 1010 	str.w	r1, [fp, #16]
1a00903e:	68e9      	ldr	r1, [r5, #12]
1a009040:	f8cb 1014 	str.w	r1, [fp, #20]
1a009044:	2a24      	cmp	r2, #36	; 0x24
1a009046:	d010      	beq.n	1a00906a <_realloc_r+0x2ee>
1a009048:	6929      	ldr	r1, [r5, #16]
1a00904a:	f10b 0218 	add.w	r2, fp, #24
1a00904e:	3510      	adds	r5, #16
1a009050:	e71e      	b.n	1a008e90 <_realloc_r+0x114>
1a009052:	68ab      	ldr	r3, [r5, #8]
1a009054:	6083      	str	r3, [r0, #8]
1a009056:	68eb      	ldr	r3, [r5, #12]
1a009058:	60c3      	str	r3, [r0, #12]
1a00905a:	2a24      	cmp	r2, #36	; 0x24
1a00905c:	d010      	beq.n	1a009080 <_realloc_r+0x304>
1a00905e:	f105 0210 	add.w	r2, r5, #16
1a009062:	f100 0310 	add.w	r3, r0, #16
1a009066:	6929      	ldr	r1, [r5, #16]
1a009068:	e6cf      	b.n	1a008e0a <_realloc_r+0x8e>
1a00906a:	692a      	ldr	r2, [r5, #16]
1a00906c:	f8cb 2018 	str.w	r2, [fp, #24]
1a009070:	696a      	ldr	r2, [r5, #20]
1a009072:	f8cb 201c 	str.w	r2, [fp, #28]
1a009076:	69a9      	ldr	r1, [r5, #24]
1a009078:	f10b 0220 	add.w	r2, fp, #32
1a00907c:	3518      	adds	r5, #24
1a00907e:	e707      	b.n	1a008e90 <_realloc_r+0x114>
1a009080:	692b      	ldr	r3, [r5, #16]
1a009082:	6103      	str	r3, [r0, #16]
1a009084:	696b      	ldr	r3, [r5, #20]
1a009086:	6143      	str	r3, [r0, #20]
1a009088:	69a9      	ldr	r1, [r5, #24]
1a00908a:	f105 0218 	add.w	r2, r5, #24
1a00908e:	f100 0318 	add.w	r3, r0, #24
1a009092:	e6ba      	b.n	1a008e0a <_realloc_r+0x8e>
1a009094:	4652      	mov	r2, sl
1a009096:	e76e      	b.n	1a008f76 <_realloc_r+0x1fa>
1a009098:	4629      	mov	r1, r5
1a00909a:	4650      	mov	r0, sl
1a00909c:	9301      	str	r3, [sp, #4]
1a00909e:	f7ff f997 	bl	1a0083d0 <memmove>
1a0090a2:	9b01      	ldr	r3, [sp, #4]
1a0090a4:	e76c      	b.n	1a008f80 <_realloc_r+0x204>
1a0090a6:	f8cb 1010 	str.w	r1, [fp, #16]
1a0090aa:	68e9      	ldr	r1, [r5, #12]
1a0090ac:	f8cb 1014 	str.w	r1, [fp, #20]
1a0090b0:	2a24      	cmp	r2, #36	; 0x24
1a0090b2:	d004      	beq.n	1a0090be <_realloc_r+0x342>
1a0090b4:	6929      	ldr	r1, [r5, #16]
1a0090b6:	f10b 0218 	add.w	r2, fp, #24
1a0090ba:	3510      	adds	r5, #16
1a0090bc:	e75b      	b.n	1a008f76 <_realloc_r+0x1fa>
1a0090be:	692a      	ldr	r2, [r5, #16]
1a0090c0:	f8cb 2018 	str.w	r2, [fp, #24]
1a0090c4:	696a      	ldr	r2, [r5, #20]
1a0090c6:	f8cb 201c 	str.w	r2, [fp, #28]
1a0090ca:	69a9      	ldr	r1, [r5, #24]
1a0090cc:	f10b 0220 	add.w	r2, fp, #32
1a0090d0:	3518      	adds	r5, #24
1a0090d2:	e750      	b.n	1a008f76 <_realloc_r+0x1fa>
1a0090d4:	100005e4 	.word	0x100005e4

1a0090d8 <lflush>:
1a0090d8:	8983      	ldrh	r3, [r0, #12]
1a0090da:	f003 0309 	and.w	r3, r3, #9
1a0090de:	2b09      	cmp	r3, #9
1a0090e0:	d001      	beq.n	1a0090e6 <lflush+0xe>
1a0090e2:	2000      	movs	r0, #0
1a0090e4:	4770      	bx	lr
1a0090e6:	f7fe b907 	b.w	1a0072f8 <fflush>
1a0090ea:	bf00      	nop

1a0090ec <__srefill_r>:
1a0090ec:	b5f8      	push	{r3, r4, r5, r6, r7, lr}
1a0090ee:	460c      	mov	r4, r1
1a0090f0:	4605      	mov	r5, r0
1a0090f2:	b110      	cbz	r0, 1a0090fa <__srefill_r+0xe>
1a0090f4:	6b83      	ldr	r3, [r0, #56]	; 0x38
1a0090f6:	2b00      	cmp	r3, #0
1a0090f8:	d040      	beq.n	1a00917c <__srefill_r+0x90>
1a0090fa:	f9b4 300c 	ldrsh.w	r3, [r4, #12]
1a0090fe:	b29a      	uxth	r2, r3
1a009100:	0497      	lsls	r7, r2, #18
1a009102:	d407      	bmi.n	1a009114 <__srefill_r+0x28>
1a009104:	6e62      	ldr	r2, [r4, #100]	; 0x64
1a009106:	f443 5300 	orr.w	r3, r3, #8192	; 0x2000
1a00910a:	f422 5200 	bic.w	r2, r2, #8192	; 0x2000
1a00910e:	6662      	str	r2, [r4, #100]	; 0x64
1a009110:	81a3      	strh	r3, [r4, #12]
1a009112:	b29a      	uxth	r2, r3
1a009114:	2100      	movs	r1, #0
1a009116:	0696      	lsls	r6, r2, #26
1a009118:	6061      	str	r1, [r4, #4]
1a00911a:	d438      	bmi.n	1a00918e <__srefill_r+0xa2>
1a00911c:	0750      	lsls	r0, r2, #29
1a00911e:	d41a      	bmi.n	1a009156 <__srefill_r+0x6a>
1a009120:	06d1      	lsls	r1, r2, #27
1a009122:	d562      	bpl.n	1a0091ea <__srefill_r+0xfe>
1a009124:	0712      	lsls	r2, r2, #28
1a009126:	d44e      	bmi.n	1a0091c6 <__srefill_r+0xda>
1a009128:	f043 0304 	orr.w	r3, r3, #4
1a00912c:	81a3      	strh	r3, [r4, #12]
1a00912e:	6923      	ldr	r3, [r4, #16]
1a009130:	2b00      	cmp	r3, #0
1a009132:	d055      	beq.n	1a0091e0 <__srefill_r+0xf4>
1a009134:	f9b4 700c 	ldrsh.w	r7, [r4, #12]
1a009138:	b2be      	uxth	r6, r7
1a00913a:	07b3      	lsls	r3, r6, #30
1a00913c:	d12a      	bne.n	1a009194 <__srefill_r+0xa8>
1a00913e:	6922      	ldr	r2, [r4, #16]
1a009140:	6022      	str	r2, [r4, #0]
1a009142:	4628      	mov	r0, r5
1a009144:	6963      	ldr	r3, [r4, #20]
1a009146:	6a25      	ldr	r5, [r4, #32]
1a009148:	69e1      	ldr	r1, [r4, #28]
1a00914a:	47a8      	blx	r5
1a00914c:	2800      	cmp	r0, #0
1a00914e:	6060      	str	r0, [r4, #4]
1a009150:	dd17      	ble.n	1a009182 <__srefill_r+0x96>
1a009152:	2000      	movs	r0, #0
1a009154:	bdf8      	pop	{r3, r4, r5, r6, r7, pc}
1a009156:	6b21      	ldr	r1, [r4, #48]	; 0x30
1a009158:	2900      	cmp	r1, #0
1a00915a:	d0e8      	beq.n	1a00912e <__srefill_r+0x42>
1a00915c:	f104 0340 	add.w	r3, r4, #64	; 0x40
1a009160:	4299      	cmp	r1, r3
1a009162:	d002      	beq.n	1a00916a <__srefill_r+0x7e>
1a009164:	4628      	mov	r0, r5
1a009166:	f7fe fa69 	bl	1a00763c <_free_r>
1a00916a:	6be3      	ldr	r3, [r4, #60]	; 0x3c
1a00916c:	6063      	str	r3, [r4, #4]
1a00916e:	2000      	movs	r0, #0
1a009170:	6320      	str	r0, [r4, #48]	; 0x30
1a009172:	2b00      	cmp	r3, #0
1a009174:	d0db      	beq.n	1a00912e <__srefill_r+0x42>
1a009176:	6ba3      	ldr	r3, [r4, #56]	; 0x38
1a009178:	6023      	str	r3, [r4, #0]
1a00917a:	bdf8      	pop	{r3, r4, r5, r6, r7, pc}
1a00917c:	f7fe f8fc 	bl	1a007378 <__sinit>
1a009180:	e7bb      	b.n	1a0090fa <__srefill_r+0xe>
1a009182:	f9b4 300c 	ldrsh.w	r3, [r4, #12]
1a009186:	d116      	bne.n	1a0091b6 <__srefill_r+0xca>
1a009188:	f043 0320 	orr.w	r3, r3, #32
1a00918c:	81a3      	strh	r3, [r4, #12]
1a00918e:	f04f 30ff 	mov.w	r0, #4294967295	; 0xffffffff
1a009192:	bdf8      	pop	{r3, r4, r5, r6, r7, pc}
1a009194:	4b19      	ldr	r3, [pc, #100]	; (1a0091fc <__srefill_r+0x110>)
1a009196:	491a      	ldr	r1, [pc, #104]	; (1a009200 <__srefill_r+0x114>)
1a009198:	6818      	ldr	r0, [r3, #0]
1a00919a:	2301      	movs	r3, #1
1a00919c:	81a3      	strh	r3, [r4, #12]
1a00919e:	f006 0609 	and.w	r6, r6, #9
1a0091a2:	f7fe fcbd 	bl	1a007b20 <_fwalk>
1a0091a6:	2e09      	cmp	r6, #9
1a0091a8:	81a7      	strh	r7, [r4, #12]
1a0091aa:	d1c8      	bne.n	1a00913e <__srefill_r+0x52>
1a0091ac:	4621      	mov	r1, r4
1a0091ae:	4628      	mov	r0, r5
1a0091b0:	f7fd ffca 	bl	1a007148 <__sflush_r>
1a0091b4:	e7c3      	b.n	1a00913e <__srefill_r+0x52>
1a0091b6:	f043 0340 	orr.w	r3, r3, #64	; 0x40
1a0091ba:	2200      	movs	r2, #0
1a0091bc:	81a3      	strh	r3, [r4, #12]
1a0091be:	6062      	str	r2, [r4, #4]
1a0091c0:	f04f 30ff 	mov.w	r0, #4294967295	; 0xffffffff
1a0091c4:	bdf8      	pop	{r3, r4, r5, r6, r7, pc}
1a0091c6:	4621      	mov	r1, r4
1a0091c8:	4628      	mov	r0, r5
1a0091ca:	f7fe f867 	bl	1a00729c <_fflush_r>
1a0091ce:	2800      	cmp	r0, #0
1a0091d0:	d1dd      	bne.n	1a00918e <__srefill_r+0xa2>
1a0091d2:	f9b4 300c 	ldrsh.w	r3, [r4, #12]
1a0091d6:	60a0      	str	r0, [r4, #8]
1a0091d8:	61a0      	str	r0, [r4, #24]
1a0091da:	f023 0308 	bic.w	r3, r3, #8
1a0091de:	e7a3      	b.n	1a009128 <__srefill_r+0x3c>
1a0091e0:	4621      	mov	r1, r4
1a0091e2:	4628      	mov	r0, r5
1a0091e4:	f7fe fd60 	bl	1a007ca8 <__smakebuf_r>
1a0091e8:	e7a4      	b.n	1a009134 <__srefill_r+0x48>
1a0091ea:	f043 0340 	orr.w	r3, r3, #64	; 0x40
1a0091ee:	2209      	movs	r2, #9
1a0091f0:	602a      	str	r2, [r5, #0]
1a0091f2:	f04f 30ff 	mov.w	r0, #4294967295	; 0xffffffff
1a0091f6:	81a3      	strh	r3, [r4, #12]
1a0091f8:	bdf8      	pop	{r3, r4, r5, r6, r7, pc}
1a0091fa:	bf00      	nop
1a0091fc:	1a00d7e0 	.word	0x1a00d7e0
1a009200:	1a0090d9 	.word	0x1a0090d9

1a009204 <frexp>:
1a009204:	ec53 2b10 	vmov	r2, r3, d0
1a009208:	b570      	push	{r4, r5, r6, lr}
1a00920a:	4e16      	ldr	r6, [pc, #88]	; (1a009264 <frexp+0x60>)
1a00920c:	f023 4100 	bic.w	r1, r3, #2147483648	; 0x80000000
1a009210:	2500      	movs	r5, #0
1a009212:	42b1      	cmp	r1, r6
1a009214:	4604      	mov	r4, r0
1a009216:	6005      	str	r5, [r0, #0]
1a009218:	dc21      	bgt.n	1a00925e <frexp+0x5a>
1a00921a:	ee10 6a10 	vmov	r6, s0
1a00921e:	430e      	orrs	r6, r1
1a009220:	d01d      	beq.n	1a00925e <frexp+0x5a>
1a009222:	f5b1 1f80 	cmp.w	r1, #1048576	; 0x100000
1a009226:	4618      	mov	r0, r3
1a009228:	da0c      	bge.n	1a009244 <frexp+0x40>
1a00922a:	4619      	mov	r1, r3
1a00922c:	2200      	movs	r2, #0
1a00922e:	ee10 0a10 	vmov	r0, s0
1a009232:	4b0d      	ldr	r3, [pc, #52]	; (1a009268 <frexp+0x64>)
1a009234:	f7f8 ffda 	bl	1a0021ec <__aeabi_dmul>
1a009238:	f06f 0535 	mvn.w	r5, #53	; 0x35
1a00923c:	4602      	mov	r2, r0
1a00923e:	4608      	mov	r0, r1
1a009240:	f021 4100 	bic.w	r1, r1, #2147483648	; 0x80000000
1a009244:	f020 40ff 	bic.w	r0, r0, #2139095040	; 0x7f800000
1a009248:	1509      	asrs	r1, r1, #20
1a00924a:	f420 00e0 	bic.w	r0, r0, #7340032	; 0x700000
1a00924e:	f2a1 31fe 	subw	r1, r1, #1022	; 0x3fe
1a009252:	f040 537f 	orr.w	r3, r0, #1069547520	; 0x3fc00000
1a009256:	4429      	add	r1, r5
1a009258:	f443 1300 	orr.w	r3, r3, #2097152	; 0x200000
1a00925c:	6021      	str	r1, [r4, #0]
1a00925e:	ec43 2b10 	vmov	d0, r2, r3
1a009262:	bd70      	pop	{r4, r5, r6, pc}
1a009264:	7fefffff 	.word	0x7fefffff
1a009268:	43500000 	.word	0x43500000

1a00926c <__sccl>:
1a00926c:	b470      	push	{r4, r5, r6}
1a00926e:	780c      	ldrb	r4, [r1, #0]
1a009270:	2c5e      	cmp	r4, #94	; 0x5e
1a009272:	4606      	mov	r6, r0
1a009274:	d01e      	beq.n	1a0092b4 <__sccl+0x48>
1a009276:	2200      	movs	r2, #0
1a009278:	1c48      	adds	r0, r1, #1
1a00927a:	4615      	mov	r5, r2
1a00927c:	1e73      	subs	r3, r6, #1
1a00927e:	f106 01ff 	add.w	r1, r6, #255	; 0xff
1a009282:	f803 2f01 	strb.w	r2, [r3, #1]!
1a009286:	428b      	cmp	r3, r1
1a009288:	d1fb      	bne.n	1a009282 <__sccl+0x16>
1a00928a:	b184      	cbz	r4, 1a0092ae <__sccl+0x42>
1a00928c:	f085 0301 	eor.w	r3, r5, #1
1a009290:	5533      	strb	r3, [r6, r4]
1a009292:	1c41      	adds	r1, r0, #1
1a009294:	f811 2c01 	ldrb.w	r2, [r1, #-1]
1a009298:	2a2d      	cmp	r2, #45	; 0x2d
1a00929a:	d010      	beq.n	1a0092be <__sccl+0x52>
1a00929c:	2a5d      	cmp	r2, #93	; 0x5d
1a00929e:	d003      	beq.n	1a0092a8 <__sccl+0x3c>
1a0092a0:	b11a      	cbz	r2, 1a0092aa <__sccl+0x3e>
1a0092a2:	4614      	mov	r4, r2
1a0092a4:	4608      	mov	r0, r1
1a0092a6:	e7f3      	b.n	1a009290 <__sccl+0x24>
1a0092a8:	4608      	mov	r0, r1
1a0092aa:	bc70      	pop	{r4, r5, r6}
1a0092ac:	4770      	bx	lr
1a0092ae:	3801      	subs	r0, #1
1a0092b0:	bc70      	pop	{r4, r5, r6}
1a0092b2:	4770      	bx	lr
1a0092b4:	2201      	movs	r2, #1
1a0092b6:	784c      	ldrb	r4, [r1, #1]
1a0092b8:	4615      	mov	r5, r2
1a0092ba:	1c88      	adds	r0, r1, #2
1a0092bc:	e7de      	b.n	1a00927c <__sccl+0x10>
1a0092be:	7845      	ldrb	r5, [r0, #1]
1a0092c0:	2d5d      	cmp	r5, #93	; 0x5d
1a0092c2:	d0ee      	beq.n	1a0092a2 <__sccl+0x36>
1a0092c4:	42ac      	cmp	r4, r5
1a0092c6:	dcec      	bgt.n	1a0092a2 <__sccl+0x36>
1a0092c8:	3002      	adds	r0, #2
1a0092ca:	1932      	adds	r2, r6, r4
1a0092cc:	3401      	adds	r4, #1
1a0092ce:	42a5      	cmp	r5, r4
1a0092d0:	f802 3f01 	strb.w	r3, [r2, #1]!
1a0092d4:	dcfa      	bgt.n	1a0092cc <__sccl+0x60>
1a0092d6:	3102      	adds	r1, #2
1a0092d8:	e7dc      	b.n	1a009294 <__sccl+0x28>
1a0092da:	bf00      	nop

1a0092dc <nanf>:
1a0092dc:	ed9f 0a01 	vldr	s0, [pc, #4]	; 1a0092e4 <nanf+0x8>
1a0092e0:	4770      	bx	lr
1a0092e2:	bf00      	nop
1a0092e4:	7fc00000 	.word	0x7fc00000

1a0092e8 <sprintf>:
1a0092e8:	b40e      	push	{r1, r2, r3}
1a0092ea:	b530      	push	{r4, r5, lr}
1a0092ec:	b09c      	sub	sp, #112	; 0x70
1a0092ee:	ab1f      	add	r3, sp, #124	; 0x7c
1a0092f0:	4c0c      	ldr	r4, [pc, #48]	; (1a009324 <sprintf+0x3c>)
1a0092f2:	4d0d      	ldr	r5, [pc, #52]	; (1a009328 <sprintf+0x40>)
1a0092f4:	f853 2b04 	ldr.w	r2, [r3], #4
1a0092f8:	9301      	str	r3, [sp, #4]
1a0092fa:	4601      	mov	r1, r0
1a0092fc:	9102      	str	r1, [sp, #8]
1a0092fe:	9106      	str	r1, [sp, #24]
1a009300:	6820      	ldr	r0, [r4, #0]
1a009302:	a902      	add	r1, sp, #8
1a009304:	f06f 4400 	mvn.w	r4, #2147483648	; 0x80000000
1a009308:	9407      	str	r4, [sp, #28]
1a00930a:	e9cd 4504 	strd	r4, r5, [sp, #16]
1a00930e:	f001 facf 	bl	1a00a8b0 <_svfprintf_r>
1a009312:	9b02      	ldr	r3, [sp, #8]
1a009314:	2200      	movs	r2, #0
1a009316:	701a      	strb	r2, [r3, #0]
1a009318:	b01c      	add	sp, #112	; 0x70
1a00931a:	e8bd 4030 	ldmia.w	sp!, {r4, r5, lr}
1a00931e:	b003      	add	sp, #12
1a009320:	4770      	bx	lr
1a009322:	bf00      	nop
1a009324:	10000048 	.word	0x10000048
1a009328:	ffff0208 	.word	0xffff0208

1a00932c <__sread>:
1a00932c:	b510      	push	{r4, lr}
1a00932e:	460c      	mov	r4, r1
1a009330:	f9b1 100e 	ldrsh.w	r1, [r1, #14]
1a009334:	f7f7 fb2e 	bl	1a000994 <_read_r>
1a009338:	2800      	cmp	r0, #0
1a00933a:	db03      	blt.n	1a009344 <__sread+0x18>
1a00933c:	6d23      	ldr	r3, [r4, #80]	; 0x50
1a00933e:	4403      	add	r3, r0
1a009340:	6523      	str	r3, [r4, #80]	; 0x50
1a009342:	bd10      	pop	{r4, pc}
1a009344:	89a3      	ldrh	r3, [r4, #12]
1a009346:	f423 5380 	bic.w	r3, r3, #4096	; 0x1000
1a00934a:	81a3      	strh	r3, [r4, #12]
1a00934c:	bd10      	pop	{r4, pc}
1a00934e:	bf00      	nop

1a009350 <__swrite>:
1a009350:	e92d 41f0 	stmdb	sp!, {r4, r5, r6, r7, r8, lr}
1a009354:	4616      	mov	r6, r2
1a009356:	f9b1 200c 	ldrsh.w	r2, [r1, #12]
1a00935a:	461f      	mov	r7, r3
1a00935c:	05d3      	lsls	r3, r2, #23
1a00935e:	460c      	mov	r4, r1
1a009360:	4605      	mov	r5, r0
1a009362:	f9b1 100e 	ldrsh.w	r1, [r1, #14]
1a009366:	d507      	bpl.n	1a009378 <__swrite+0x28>
1a009368:	2200      	movs	r2, #0
1a00936a:	2302      	movs	r3, #2
1a00936c:	f7f7 fb0d 	bl	1a00098a <_lseek_r>
1a009370:	f9b4 200c 	ldrsh.w	r2, [r4, #12]
1a009374:	f9b4 100e 	ldrsh.w	r1, [r4, #14]
1a009378:	f422 5280 	bic.w	r2, r2, #4096	; 0x1000
1a00937c:	81a2      	strh	r2, [r4, #12]
1a00937e:	463b      	mov	r3, r7
1a009380:	4632      	mov	r2, r6
1a009382:	4628      	mov	r0, r5
1a009384:	e8bd 41f0 	ldmia.w	sp!, {r4, r5, r6, r7, r8, lr}
1a009388:	f7f7 bb2b 	b.w	1a0009e2 <_write_r>

1a00938c <__sseek>:
1a00938c:	b510      	push	{r4, lr}
1a00938e:	460c      	mov	r4, r1
1a009390:	f9b1 100e 	ldrsh.w	r1, [r1, #14]
1a009394:	f7f7 faf9 	bl	1a00098a <_lseek_r>
1a009398:	89a3      	ldrh	r3, [r4, #12]
1a00939a:	1c42      	adds	r2, r0, #1
1a00939c:	bf0e      	itee	eq
1a00939e:	f423 5380 	biceq.w	r3, r3, #4096	; 0x1000
1a0093a2:	f443 5380 	orrne.w	r3, r3, #4096	; 0x1000
1a0093a6:	6520      	strne	r0, [r4, #80]	; 0x50
1a0093a8:	81a3      	strh	r3, [r4, #12]
1a0093aa:	bd10      	pop	{r4, pc}

1a0093ac <__sclose>:
1a0093ac:	f9b1 100e 	ldrsh.w	r1, [r1, #14]
1a0093b0:	f7f7 bad8 	b.w	1a000964 <_close_r>

1a0093b4 <strncpy>:
1a0093b4:	ea40 0301 	orr.w	r3, r0, r1
1a0093b8:	079b      	lsls	r3, r3, #30
1a0093ba:	b470      	push	{r4, r5, r6}
1a0093bc:	d12a      	bne.n	1a009414 <strncpy+0x60>
1a0093be:	2a03      	cmp	r2, #3
1a0093c0:	d928      	bls.n	1a009414 <strncpy+0x60>
1a0093c2:	460c      	mov	r4, r1
1a0093c4:	4603      	mov	r3, r0
1a0093c6:	4621      	mov	r1, r4
1a0093c8:	f854 6b04 	ldr.w	r6, [r4], #4
1a0093cc:	f1a6 3501 	sub.w	r5, r6, #16843009	; 0x1010101
1a0093d0:	ea25 0506 	bic.w	r5, r5, r6
1a0093d4:	f015 3f80 	tst.w	r5, #2155905152	; 0x80808080
1a0093d8:	d106      	bne.n	1a0093e8 <strncpy+0x34>
1a0093da:	3a04      	subs	r2, #4
1a0093dc:	2a03      	cmp	r2, #3
1a0093de:	f843 6b04 	str.w	r6, [r3], #4
1a0093e2:	4621      	mov	r1, r4
1a0093e4:	d8ef      	bhi.n	1a0093c6 <strncpy+0x12>
1a0093e6:	b19a      	cbz	r2, 1a009410 <strncpy+0x5c>
1a0093e8:	780c      	ldrb	r4, [r1, #0]
1a0093ea:	701c      	strb	r4, [r3, #0]
1a0093ec:	3a01      	subs	r2, #1
1a0093ee:	3301      	adds	r3, #1
1a0093f0:	b13c      	cbz	r4, 1a009402 <strncpy+0x4e>
1a0093f2:	b16a      	cbz	r2, 1a009410 <strncpy+0x5c>
1a0093f4:	f811 4f01 	ldrb.w	r4, [r1, #1]!
1a0093f8:	f803 4b01 	strb.w	r4, [r3], #1
1a0093fc:	3a01      	subs	r2, #1
1a0093fe:	2c00      	cmp	r4, #0
1a009400:	d1f7      	bne.n	1a0093f2 <strncpy+0x3e>
1a009402:	b12a      	cbz	r2, 1a009410 <strncpy+0x5c>
1a009404:	441a      	add	r2, r3
1a009406:	2100      	movs	r1, #0
1a009408:	f803 1b01 	strb.w	r1, [r3], #1
1a00940c:	4293      	cmp	r3, r2
1a00940e:	d1fb      	bne.n	1a009408 <strncpy+0x54>
1a009410:	bc70      	pop	{r4, r5, r6}
1a009412:	4770      	bx	lr
1a009414:	4603      	mov	r3, r0
1a009416:	e7e6      	b.n	1a0093e6 <strncpy+0x32>

1a009418 <sulp>:
1a009418:	b570      	push	{r4, r5, r6, lr}
1a00941a:	4604      	mov	r4, r0
1a00941c:	460d      	mov	r5, r1
1a00941e:	ec45 4b10 	vmov	d0, r4, r5
1a009422:	4616      	mov	r6, r2
1a009424:	f7ff fb38 	bl	1a008a98 <__ulp>
1a009428:	ec51 0b10 	vmov	r0, r1, d0
1a00942c:	b17e      	cbz	r6, 1a00944e <sulp+0x36>
1a00942e:	f3c5 530a 	ubfx	r3, r5, #20, #11
1a009432:	f1c3 036b 	rsb	r3, r3, #107	; 0x6b
1a009436:	2b00      	cmp	r3, #0
1a009438:	dd09      	ble.n	1a00944e <sulp+0x36>
1a00943a:	051b      	lsls	r3, r3, #20
1a00943c:	f103 557f 	add.w	r5, r3, #1069547520	; 0x3fc00000
1a009440:	2400      	movs	r4, #0
1a009442:	f505 1540 	add.w	r5, r5, #3145728	; 0x300000
1a009446:	4622      	mov	r2, r4
1a009448:	462b      	mov	r3, r5
1a00944a:	f7f8 fecf 	bl	1a0021ec <__aeabi_dmul>
1a00944e:	bd70      	pop	{r4, r5, r6, pc}

1a009450 <_strtod_l>:
1a009450:	e92d 4ff0 	stmdb	sp!, {r4, r5, r6, r7, r8, r9, sl, fp, lr}
1a009454:	b0a5      	sub	sp, #148	; 0x94
1a009456:	461c      	mov	r4, r3
1a009458:	9008      	str	r0, [sp, #32]
1a00945a:	2300      	movs	r3, #0
1a00945c:	4620      	mov	r0, r4
1a00945e:	460f      	mov	r7, r1
1a009460:	9207      	str	r2, [sp, #28]
1a009462:	9320      	str	r3, [sp, #128]	; 0x80
1a009464:	f7fe fbda 	bl	1a007c1c <__localeconv_l>
1a009468:	2300      	movs	r3, #0
1a00946a:	2200      	movs	r2, #0
1a00946c:	4605      	mov	r5, r0
1a00946e:	6800      	ldr	r0, [r0, #0]
1a009470:	e9cd 2304 	strd	r2, r3, [sp, #16]
1a009474:	f7f9 fcc4 	bl	1a002e00 <strlen>
1a009478:	971f      	str	r7, [sp, #124]	; 0x7c
1a00947a:	4682      	mov	sl, r0
1a00947c:	463b      	mov	r3, r7
1a00947e:	461a      	mov	r2, r3
1a009480:	f813 6b01 	ldrb.w	r6, [r3], #1
1a009484:	2e2d      	cmp	r6, #45	; 0x2d
1a009486:	f200 80ef 	bhi.w	1a009668 <_strtod_l+0x218>
1a00948a:	e8df f016 	tbh	[pc, r6, lsl #1]
1a00948e:	005b      	.short	0x005b
1a009490:	00ed00ed 	.word	0x00ed00ed
1a009494:	00ed00ed 	.word	0x00ed00ed
1a009498:	00ed00ed 	.word	0x00ed00ed
1a00949c:	00ed00ed 	.word	0x00ed00ed
1a0094a0:	00bf00bf 	.word	0x00bf00bf
1a0094a4:	00bf00bf 	.word	0x00bf00bf
1a0094a8:	00ed00bf 	.word	0x00ed00bf
1a0094ac:	00ed00ed 	.word	0x00ed00ed
1a0094b0:	00ed00ed 	.word	0x00ed00ed
1a0094b4:	00ed00ed 	.word	0x00ed00ed
1a0094b8:	00ed00ed 	.word	0x00ed00ed
1a0094bc:	00ed00ed 	.word	0x00ed00ed
1a0094c0:	00ed00ed 	.word	0x00ed00ed
1a0094c4:	00ed00ed 	.word	0x00ed00ed
1a0094c8:	00ed00ed 	.word	0x00ed00ed
1a0094cc:	00bf00ed 	.word	0x00bf00ed
1a0094d0:	00ed00ed 	.word	0x00ed00ed
1a0094d4:	00ed00ed 	.word	0x00ed00ed
1a0094d8:	00ed00ed 	.word	0x00ed00ed
1a0094dc:	00ed00ed 	.word	0x00ed00ed
1a0094e0:	00ed00ed 	.word	0x00ed00ed
1a0094e4:	00ed0068 	.word	0x00ed0068
1a0094e8:	00bc      	.short	0x00bc
1a0094ea:	4652      	mov	r2, sl
1a0094ec:	4648      	mov	r0, r9
1a0094ee:	f003 fcdb 	bl	1a00cea8 <strncmp>
1a0094f2:	4601      	mov	r1, r0
1a0094f4:	2800      	cmp	r0, #0
1a0094f6:	f040 834b 	bne.w	1a009b90 <_strtod_l+0x740>
1a0094fa:	9b1f      	ldr	r3, [sp, #124]	; 0x7c
1a0094fc:	eb03 020a 	add.w	r2, r3, sl
1a009500:	921f      	str	r2, [sp, #124]	; 0x7c
1a009502:	f813 600a 	ldrb.w	r6, [r3, sl]
1a009506:	2e30      	cmp	r6, #48	; 0x30
1a009508:	460b      	mov	r3, r1
1a00950a:	d106      	bne.n	1a00951a <_strtod_l+0xca>
1a00950c:	3201      	adds	r2, #1
1a00950e:	921f      	str	r2, [sp, #124]	; 0x7c
1a009510:	7816      	ldrb	r6, [r2, #0]
1a009512:	2e30      	cmp	r6, #48	; 0x30
1a009514:	f103 0301 	add.w	r3, r3, #1
1a009518:	d0f8      	beq.n	1a00950c <_strtod_l+0xbc>
1a00951a:	f1a6 0231 	sub.w	r2, r6, #49	; 0x31
1a00951e:	2a08      	cmp	r2, #8
1a009520:	f240 85b0 	bls.w	1a00a084 <_strtod_l+0xc34>
1a009524:	2e65      	cmp	r6, #101	; 0x65
1a009526:	f04f 0b00 	mov.w	fp, #0
1a00952a:	f040 832b 	bne.w	1a009b84 <_strtod_l+0x734>
1a00952e:	465d      	mov	r5, fp
1a009530:	46d8      	mov	r8, fp
1a009532:	f04f 0a01 	mov.w	sl, #1
1a009536:	2b00      	cmp	r3, #0
1a009538:	f040 813f 	bne.w	1a0097ba <_strtod_l+0x36a>
1a00953c:	9a0c      	ldr	r2, [sp, #48]	; 0x30
1a00953e:	2a00      	cmp	r2, #0
1a009540:	f040 813b 	bne.w	1a0097ba <_strtod_l+0x36a>
1a009544:	9b07      	ldr	r3, [sp, #28]
1a009546:	b10b      	cbz	r3, 1a00954c <_strtod_l+0xfc>
1a009548:	9b07      	ldr	r3, [sp, #28]
1a00954a:	601f      	str	r7, [r3, #0]
1a00954c:	f04f 0a00 	mov.w	sl, #0
1a009550:	f04f 0b00 	mov.w	fp, #0
1a009554:	ec4b ab10 	vmov	d0, sl, fp
1a009558:	b025      	add	sp, #148	; 0x94
1a00955a:	e8bd 8ff0 	ldmia.w	sp!, {r4, r5, r6, r7, r8, r9, sl, fp, pc}
1a00955e:	2300      	movs	r3, #0
1a009560:	9309      	str	r3, [sp, #36]	; 0x24
1a009562:	f102 0901 	add.w	r9, r2, #1
1a009566:	f8cd 907c 	str.w	r9, [sp, #124]	; 0x7c
1a00956a:	7856      	ldrb	r6, [r2, #1]
1a00956c:	2e00      	cmp	r6, #0
1a00956e:	d0e9      	beq.n	1a009544 <_strtod_l+0xf4>
1a009570:	2e30      	cmp	r6, #48	; 0x30
1a009572:	d07e      	beq.n	1a009672 <_strtod_l+0x222>
1a009574:	2300      	movs	r3, #0
1a009576:	930c      	str	r3, [sp, #48]	; 0x30
1a009578:	f1a6 0330 	sub.w	r3, r6, #48	; 0x30
1a00957c:	b2da      	uxtb	r2, r3
1a00957e:	2a09      	cmp	r2, #9
1a009580:	6829      	ldr	r1, [r5, #0]
1a009582:	d8b2      	bhi.n	1a0094ea <_strtod_l+0x9a>
1a009584:	2500      	movs	r5, #0
1a009586:	46a8      	mov	r8, r5
1a009588:	462c      	mov	r4, r5
1a00958a:	4648      	mov	r0, r9
1a00958c:	3001      	adds	r0, #1
1a00958e:	901f      	str	r0, [sp, #124]	; 0x7c
1a009590:	2c08      	cmp	r4, #8
1a009592:	7806      	ldrb	r6, [r0, #0]
1a009594:	eb08 0288 	add.w	r2, r8, r8, lsl #2
1a009598:	bfca      	itet	gt
1a00959a:	eb05 0585 	addgt.w	r5, r5, r5, lsl #2
1a00959e:	eb03 0842 	addle.w	r8, r3, r2, lsl #1
1a0095a2:	eb03 0545 	addgt.w	r5, r3, r5, lsl #1
1a0095a6:	f1a6 0330 	sub.w	r3, r6, #48	; 0x30
1a0095aa:	b2da      	uxtb	r2, r3
1a0095ac:	2a09      	cmp	r2, #9
1a0095ae:	f104 0401 	add.w	r4, r4, #1
1a0095b2:	d9eb      	bls.n	1a00958c <_strtod_l+0x13c>
1a0095b4:	4652      	mov	r2, sl
1a0095b6:	f003 fc77 	bl	1a00cea8 <strncmp>
1a0095ba:	4601      	mov	r1, r0
1a0095bc:	b340      	cbz	r0, 1a009610 <_strtod_l+0x1c0>
1a0095be:	2300      	movs	r3, #0
1a0095c0:	4619      	mov	r1, r3
1a0095c2:	469a      	mov	sl, r3
1a0095c4:	46a3      	mov	fp, r4
1a0095c6:	2e65      	cmp	r6, #101	; 0x65
1a0095c8:	d067      	beq.n	1a00969a <_strtod_l+0x24a>
1a0095ca:	2e45      	cmp	r6, #69	; 0x45
1a0095cc:	d065      	beq.n	1a00969a <_strtod_l+0x24a>
1a0095ce:	2200      	movs	r2, #0
1a0095d0:	2c00      	cmp	r4, #0
1a0095d2:	f040 80b1 	bne.w	1a009738 <_strtod_l+0x2e8>
1a0095d6:	b91b      	cbnz	r3, 1a0095e0 <_strtod_l+0x190>
1a0095d8:	9b0c      	ldr	r3, [sp, #48]	; 0x30
1a0095da:	2b00      	cmp	r3, #0
1a0095dc:	f000 827a 	beq.w	1a009ad4 <_strtod_l+0x684>
1a0095e0:	f04f 0a00 	mov.w	sl, #0
1a0095e4:	f04f 0b00 	mov.w	fp, #0
1a0095e8:	9a07      	ldr	r2, [sp, #28]
1a0095ea:	b10a      	cbz	r2, 1a0095f0 <_strtod_l+0x1a0>
1a0095ec:	9b1f      	ldr	r3, [sp, #124]	; 0x7c
1a0095ee:	6013      	str	r3, [r2, #0]
1a0095f0:	9b09      	ldr	r3, [sp, #36]	; 0x24
1a0095f2:	2b00      	cmp	r3, #0
1a0095f4:	d0ae      	beq.n	1a009554 <_strtod_l+0x104>
1a0095f6:	f10b 4300 	add.w	r3, fp, #2147483648	; 0x80000000
1a0095fa:	469b      	mov	fp, r3
1a0095fc:	ec4b ab10 	vmov	d0, sl, fp
1a009600:	b025      	add	sp, #148	; 0x94
1a009602:	e8bd 8ff0 	ldmia.w	sp!, {r4, r5, r6, r7, r8, r9, sl, fp, pc}
1a009606:	2301      	movs	r3, #1
1a009608:	9309      	str	r3, [sp, #36]	; 0x24
1a00960a:	e7aa      	b.n	1a009562 <_strtod_l+0x112>
1a00960c:	931f      	str	r3, [sp, #124]	; 0x7c
1a00960e:	e736      	b.n	1a00947e <_strtod_l+0x2e>
1a009610:	9b1f      	ldr	r3, [sp, #124]	; 0x7c
1a009612:	eb03 020a 	add.w	r2, r3, sl
1a009616:	921f      	str	r2, [sp, #124]	; 0x7c
1a009618:	f813 600a 	ldrb.w	r6, [r3, sl]
1a00961c:	46a3      	mov	fp, r4
1a00961e:	4603      	mov	r3, r0
1a009620:	f1a6 0030 	sub.w	r0, r6, #48	; 0x30
1a009624:	2809      	cmp	r0, #9
1a009626:	f200 822a 	bhi.w	1a009a7e <_strtod_l+0x62e>
1a00962a:	1c5a      	adds	r2, r3, #1
1a00962c:	4686      	mov	lr, r0
1a00962e:	f8dd c07c 	ldr.w	ip, [sp, #124]	; 0x7c
1a009632:	2800      	cmp	r0, #0
1a009634:	f000 868c 	beq.w	1a00a350 <_strtod_l+0xf00>
1a009638:	2a01      	cmp	r2, #1
1a00963a:	4411      	add	r1, r2
1a00963c:	f000 8685 	beq.w	1a00a34a <_strtod_l+0xefa>
1a009640:	4423      	add	r3, r4
1a009642:	e005      	b.n	1a009650 <_strtod_l+0x200>
1a009644:	ea4f 0846 	mov.w	r8, r6, lsl #1
1a009648:	429a      	cmp	r2, r3
1a00964a:	4614      	mov	r4, r2
1a00964c:	f000 847e 	beq.w	1a009f4c <_strtod_l+0xafc>
1a009650:	2c08      	cmp	r4, #8
1a009652:	f104 0201 	add.w	r2, r4, #1
1a009656:	eb08 0688 	add.w	r6, r8, r8, lsl #2
1a00965a:	ddf3      	ble.n	1a009644 <_strtod_l+0x1f4>
1a00965c:	2a10      	cmp	r2, #16
1a00965e:	bfdc      	itt	le
1a009660:	eb05 0585 	addle.w	r5, r5, r5, lsl #2
1a009664:	006d      	lslle	r5, r5, #1
1a009666:	e7ef      	b.n	1a009648 <_strtod_l+0x1f8>
1a009668:	2300      	movs	r3, #0
1a00966a:	2e30      	cmp	r6, #48	; 0x30
1a00966c:	4691      	mov	r9, r2
1a00966e:	9309      	str	r3, [sp, #36]	; 0x24
1a009670:	d180      	bne.n	1a009574 <_strtod_l+0x124>
1a009672:	f899 3001 	ldrb.w	r3, [r9, #1]
1a009676:	2b58      	cmp	r3, #88	; 0x58
1a009678:	f000 8204 	beq.w	1a009a84 <_strtod_l+0x634>
1a00967c:	2b78      	cmp	r3, #120	; 0x78
1a00967e:	f000 8201 	beq.w	1a009a84 <_strtod_l+0x634>
1a009682:	464b      	mov	r3, r9
1a009684:	3301      	adds	r3, #1
1a009686:	931f      	str	r3, [sp, #124]	; 0x7c
1a009688:	781e      	ldrb	r6, [r3, #0]
1a00968a:	2e30      	cmp	r6, #48	; 0x30
1a00968c:	d0fa      	beq.n	1a009684 <_strtod_l+0x234>
1a00968e:	4699      	mov	r9, r3
1a009690:	2e00      	cmp	r6, #0
1a009692:	d0a5      	beq.n	1a0095e0 <_strtod_l+0x190>
1a009694:	2301      	movs	r3, #1
1a009696:	930c      	str	r3, [sp, #48]	; 0x30
1a009698:	e76e      	b.n	1a009578 <_strtod_l+0x128>
1a00969a:	2c00      	cmp	r4, #0
1a00969c:	f43f af4b 	beq.w	1a009536 <_strtod_l+0xe6>
1a0096a0:	9f1f      	ldr	r7, [sp, #124]	; 0x7c
1a0096a2:	1c7a      	adds	r2, r7, #1
1a0096a4:	921f      	str	r2, [sp, #124]	; 0x7c
1a0096a6:	787e      	ldrb	r6, [r7, #1]
1a0096a8:	2e2b      	cmp	r6, #43	; 0x2b
1a0096aa:	f000 820a 	beq.w	1a009ac2 <_strtod_l+0x672>
1a0096ae:	2e2d      	cmp	r6, #45	; 0x2d
1a0096b0:	f000 820d 	beq.w	1a009ace <_strtod_l+0x67e>
1a0096b4:	f04f 0e00 	mov.w	lr, #0
1a0096b8:	f1a6 0230 	sub.w	r2, r6, #48	; 0x30
1a0096bc:	2a09      	cmp	r2, #9
1a0096be:	d87e      	bhi.n	1a0097be <_strtod_l+0x36e>
1a0096c0:	2e30      	cmp	r6, #48	; 0x30
1a0096c2:	d105      	bne.n	1a0096d0 <_strtod_l+0x280>
1a0096c4:	9a1f      	ldr	r2, [sp, #124]	; 0x7c
1a0096c6:	3201      	adds	r2, #1
1a0096c8:	921f      	str	r2, [sp, #124]	; 0x7c
1a0096ca:	7816      	ldrb	r6, [r2, #0]
1a0096cc:	2e30      	cmp	r6, #48	; 0x30
1a0096ce:	d0fa      	beq.n	1a0096c6 <_strtod_l+0x276>
1a0096d0:	f1a6 0231 	sub.w	r2, r6, #49	; 0x31
1a0096d4:	2a08      	cmp	r2, #8
1a0096d6:	f63f af7a 	bhi.w	1a0095ce <_strtod_l+0x17e>
1a0096da:	9a1f      	ldr	r2, [sp, #124]	; 0x7c
1a0096dc:	920d      	str	r2, [sp, #52]	; 0x34
1a0096de:	1c50      	adds	r0, r2, #1
1a0096e0:	3e30      	subs	r6, #48	; 0x30
1a0096e2:	901f      	str	r0, [sp, #124]	; 0x7c
1a0096e4:	960a      	str	r6, [sp, #40]	; 0x28
1a0096e6:	7856      	ldrb	r6, [r2, #1]
1a0096e8:	f1a6 0c30 	sub.w	ip, r6, #48	; 0x30
1a0096ec:	f1bc 0f09 	cmp.w	ip, #9
1a0096f0:	d80f      	bhi.n	1a009712 <_strtod_l+0x2c2>
1a0096f2:	9a0a      	ldr	r2, [sp, #40]	; 0x28
1a0096f4:	3001      	adds	r0, #1
1a0096f6:	901f      	str	r0, [sp, #124]	; 0x7c
1a0096f8:	eb02 0282 	add.w	r2, r2, r2, lsl #2
1a0096fc:	eb06 0242 	add.w	r2, r6, r2, lsl #1
1a009700:	7806      	ldrb	r6, [r0, #0]
1a009702:	f1a6 0c30 	sub.w	ip, r6, #48	; 0x30
1a009706:	f1bc 0f09 	cmp.w	ip, #9
1a00970a:	f1a2 0230 	sub.w	r2, r2, #48	; 0x30
1a00970e:	d9f1      	bls.n	1a0096f4 <_strtod_l+0x2a4>
1a009710:	920a      	str	r2, [sp, #40]	; 0x28
1a009712:	9a0d      	ldr	r2, [sp, #52]	; 0x34
1a009714:	1a80      	subs	r0, r0, r2
1a009716:	2808      	cmp	r0, #8
1a009718:	f300 842b 	bgt.w	1a009f72 <_strtod_l+0xb22>
1a00971c:	9a0a      	ldr	r2, [sp, #40]	; 0x28
1a00971e:	f644 601f 	movw	r0, #19999	; 0x4e1f
1a009722:	4282      	cmp	r2, r0
1a009724:	bfa8      	it	ge
1a009726:	4602      	movge	r2, r0
1a009728:	f1be 0f00 	cmp.w	lr, #0
1a00972c:	f43f af50 	beq.w	1a0095d0 <_strtod_l+0x180>
1a009730:	4252      	negs	r2, r2
1a009732:	2c00      	cmp	r4, #0
1a009734:	f43f af4f 	beq.w	1a0095d6 <_strtod_l+0x186>
1a009738:	1a53      	subs	r3, r2, r1
1a00973a:	4640      	mov	r0, r8
1a00973c:	930d      	str	r3, [sp, #52]	; 0x34
1a00973e:	f7f8 fcdb 	bl	1a0020f8 <__aeabi_ui2d>
1a009742:	f1bb 0f00 	cmp.w	fp, #0
1a009746:	bf08      	it	eq
1a009748:	46a3      	moveq	fp, r4
1a00974a:	2c10      	cmp	r4, #16
1a00974c:	46a2      	mov	sl, r4
1a00974e:	bfa8      	it	ge
1a009750:	f04f 0a10 	movge.w	sl, #16
1a009754:	2c09      	cmp	r4, #9
1a009756:	e9cd 0104 	strd	r0, r1, [sp, #16]
1a00975a:	dc33      	bgt.n	1a0097c4 <_strtod_l+0x374>
1a00975c:	9b0d      	ldr	r3, [sp, #52]	; 0x34
1a00975e:	2b00      	cmp	r3, #0
1a009760:	d028      	beq.n	1a0097b4 <_strtod_l+0x364>
1a009762:	9b0d      	ldr	r3, [sp, #52]	; 0x34
1a009764:	f340 847d 	ble.w	1a00a062 <_strtod_l+0xc12>
1a009768:	2b16      	cmp	r3, #22
1a00976a:	f300 849c 	bgt.w	1a00a0a6 <_strtod_l+0xc56>
1a00976e:	4942      	ldr	r1, [pc, #264]	; (1a009878 <_strtod_l+0x428>)
1a009770:	eb01 01c3 	add.w	r1, r1, r3, lsl #3
1a009774:	e9d1 0100 	ldrd	r0, r1, [r1]
1a009778:	e9dd 2304 	ldrd	r2, r3, [sp, #16]
1a00977c:	f7f8 fd36 	bl	1a0021ec <__aeabi_dmul>
1a009780:	4682      	mov	sl, r0
1a009782:	468b      	mov	fp, r1
1a009784:	e730      	b.n	1a0095e8 <_strtod_l+0x198>
1a009786:	a81f      	add	r0, sp, #124	; 0x7c
1a009788:	493c      	ldr	r1, [pc, #240]	; (1a00987c <_strtod_l+0x42c>)
1a00978a:	f003 faa5 	bl	1a00ccd8 <__match>
1a00978e:	2800      	cmp	r0, #0
1a009790:	f43f aed8 	beq.w	1a009544 <_strtod_l+0xf4>
1a009794:	9b1f      	ldr	r3, [sp, #124]	; 0x7c
1a009796:	493a      	ldr	r1, [pc, #232]	; (1a009880 <_strtod_l+0x430>)
1a009798:	3b01      	subs	r3, #1
1a00979a:	a81f      	add	r0, sp, #124	; 0x7c
1a00979c:	931f      	str	r3, [sp, #124]	; 0x7c
1a00979e:	f003 fa9b 	bl	1a00ccd8 <__match>
1a0097a2:	b910      	cbnz	r0, 1a0097aa <_strtod_l+0x35a>
1a0097a4:	9b1f      	ldr	r3, [sp, #124]	; 0x7c
1a0097a6:	3301      	adds	r3, #1
1a0097a8:	931f      	str	r3, [sp, #124]	; 0x7c
1a0097aa:	f8df 90d8 	ldr.w	r9, [pc, #216]	; 1a009884 <_strtod_l+0x434>
1a0097ae:	2300      	movs	r3, #0
1a0097b0:	e9cd 3904 	strd	r3, r9, [sp, #16]
1a0097b4:	e9dd ab04 	ldrd	sl, fp, [sp, #16]
1a0097b8:	e716      	b.n	1a0095e8 <_strtod_l+0x198>
1a0097ba:	2400      	movs	r4, #0
1a0097bc:	e770      	b.n	1a0096a0 <_strtod_l+0x250>
1a0097be:	971f      	str	r7, [sp, #124]	; 0x7c
1a0097c0:	2200      	movs	r2, #0
1a0097c2:	e705      	b.n	1a0095d0 <_strtod_l+0x180>
1a0097c4:	4b2c      	ldr	r3, [pc, #176]	; (1a009878 <_strtod_l+0x428>)
1a0097c6:	eb03 03ca 	add.w	r3, r3, sl, lsl #3
1a0097ca:	e953 2312 	ldrd	r2, r3, [r3, #-72]	; 0x48
1a0097ce:	f7f8 fd0d 	bl	1a0021ec <__aeabi_dmul>
1a0097d2:	4606      	mov	r6, r0
1a0097d4:	4628      	mov	r0, r5
1a0097d6:	460f      	mov	r7, r1
1a0097d8:	f7f8 fc8e 	bl	1a0020f8 <__aeabi_ui2d>
1a0097dc:	4602      	mov	r2, r0
1a0097de:	460b      	mov	r3, r1
1a0097e0:	4630      	mov	r0, r6
1a0097e2:	4639      	mov	r1, r7
1a0097e4:	f7f8 fb4c 	bl	1a001e80 <__adddf3>
1a0097e8:	2c0f      	cmp	r4, #15
1a0097ea:	e9cd 0104 	strd	r0, r1, [sp, #16]
1a0097ee:	ddb5      	ble.n	1a00975c <_strtod_l+0x30c>
1a0097f0:	9b0d      	ldr	r3, [sp, #52]	; 0x34
1a0097f2:	eba4 0a0a 	sub.w	sl, r4, sl
1a0097f6:	449a      	add	sl, r3
1a0097f8:	f1ba 0f00 	cmp.w	sl, #0
1a0097fc:	f340 82fe 	ble.w	1a009dfc <_strtod_l+0x9ac>
1a009800:	f01a 030f 	ands.w	r3, sl, #15
1a009804:	d00a      	beq.n	1a00981c <_strtod_l+0x3cc>
1a009806:	491c      	ldr	r1, [pc, #112]	; (1a009878 <_strtod_l+0x428>)
1a009808:	eb01 01c3 	add.w	r1, r1, r3, lsl #3
1a00980c:	e9d1 0100 	ldrd	r0, r1, [r1]
1a009810:	e9dd 2304 	ldrd	r2, r3, [sp, #16]
1a009814:	f7f8 fcea 	bl	1a0021ec <__aeabi_dmul>
1a009818:	e9cd 0104 	strd	r0, r1, [sp, #16]
1a00981c:	f03a 0a0f 	bics.w	sl, sl, #15
1a009820:	d00d      	beq.n	1a00983e <_strtod_l+0x3ee>
1a009822:	f5ba 7f9a 	cmp.w	sl, #308	; 0x134
1a009826:	f340 83db 	ble.w	1a009fe0 <_strtod_l+0xb90>
1a00982a:	2200      	movs	r2, #0
1a00982c:	4b15      	ldr	r3, [pc, #84]	; (1a009884 <_strtod_l+0x434>)
1a00982e:	9204      	str	r2, [sp, #16]
1a009830:	9a08      	ldr	r2, [sp, #32]
1a009832:	9305      	str	r3, [sp, #20]
1a009834:	2322      	movs	r3, #34	; 0x22
1a009836:	e9dd ab04 	ldrd	sl, fp, [sp, #16]
1a00983a:	6013      	str	r3, [r2, #0]
1a00983c:	e6d4      	b.n	1a0095e8 <_strtod_l+0x198>
1a00983e:	2300      	movs	r3, #0
1a009840:	930c      	str	r3, [sp, #48]	; 0x30
1a009842:	4623      	mov	r3, r4
1a009844:	9c08      	ldr	r4, [sp, #32]
1a009846:	f8cd 8000 	str.w	r8, [sp]
1a00984a:	465a      	mov	r2, fp
1a00984c:	4649      	mov	r1, r9
1a00984e:	4620      	mov	r0, r4
1a009850:	f7fe fe9e 	bl	1a008590 <__s2b>
1a009854:	9013      	str	r0, [sp, #76]	; 0x4c
1a009856:	2800      	cmp	r0, #0
1a009858:	f000 81a3 	beq.w	1a009ba2 <_strtod_l+0x752>
1a00985c:	9a0d      	ldr	r2, [sp, #52]	; 0x34
1a00985e:	2700      	movs	r7, #0
1a009860:	2a00      	cmp	r2, #0
1a009862:	f1c2 0300 	rsb	r3, r2, #0
1a009866:	bfa8      	it	ge
1a009868:	463b      	movge	r3, r7
1a00986a:	930e      	str	r3, [sp, #56]	; 0x38
1a00986c:	ea22 73e2 	bic.w	r3, r2, r2, asr #31
1a009870:	46b8      	mov	r8, r7
1a009872:	9316      	str	r3, [sp, #88]	; 0x58
1a009874:	46bb      	mov	fp, r7
1a009876:	e0c3      	b.n	1a009a00 <_strtod_l+0x5b0>
1a009878:	1a00d820 	.word	0x1a00d820
1a00987c:	1a00d8f4 	.word	0x1a00d8f4
1a009880:	1a00d8f8 	.word	0x1a00d8f8
1a009884:	7ff00000 	.word	0x7ff00000
1a009888:	1ad2      	subs	r2, r2, r3
1a00988a:	2a1f      	cmp	r2, #31
1a00988c:	eba5 0502 	sub.w	r5, r5, r2
1a009890:	f300 8229 	bgt.w	1a009ce6 <_strtod_l+0x896>
1a009894:	2301      	movs	r3, #1
1a009896:	4093      	lsls	r3, r2
1a009898:	9310      	str	r3, [sp, #64]	; 0x40
1a00989a:	2300      	movs	r3, #0
1a00989c:	9317      	str	r3, [sp, #92]	; 0x5c
1a00989e:	442e      	add	r6, r5
1a0098a0:	9b0c      	ldr	r3, [sp, #48]	; 0x30
1a0098a2:	443d      	add	r5, r7
1a0098a4:	42af      	cmp	r7, r5
1a0098a6:	441e      	add	r6, r3
1a0098a8:	463b      	mov	r3, r7
1a0098aa:	bfa8      	it	ge
1a0098ac:	462b      	movge	r3, r5
1a0098ae:	42b3      	cmp	r3, r6
1a0098b0:	bfa8      	it	ge
1a0098b2:	4633      	movge	r3, r6
1a0098b4:	2b00      	cmp	r3, #0
1a0098b6:	dd02      	ble.n	1a0098be <_strtod_l+0x46e>
1a0098b8:	1aed      	subs	r5, r5, r3
1a0098ba:	1af6      	subs	r6, r6, r3
1a0098bc:	1aff      	subs	r7, r7, r3
1a0098be:	9b0e      	ldr	r3, [sp, #56]	; 0x38
1a0098c0:	2b00      	cmp	r3, #0
1a0098c2:	f040 81a3 	bne.w	1a009c0c <_strtod_l+0x7bc>
1a0098c6:	2d00      	cmp	r5, #0
1a0098c8:	f300 81b9 	bgt.w	1a009c3e <_strtod_l+0x7ee>
1a0098cc:	9b0d      	ldr	r3, [sp, #52]	; 0x34
1a0098ce:	2b00      	cmp	r3, #0
1a0098d0:	f300 81de 	bgt.w	1a009c90 <_strtod_l+0x840>
1a0098d4:	2e00      	cmp	r6, #0
1a0098d6:	f300 81e7 	bgt.w	1a009ca8 <_strtod_l+0x858>
1a0098da:	2f00      	cmp	r7, #0
1a0098dc:	dd08      	ble.n	1a0098f0 <_strtod_l+0x4a0>
1a0098de:	4641      	mov	r1, r8
1a0098e0:	463a      	mov	r2, r7
1a0098e2:	4620      	mov	r0, r4
1a0098e4:	f7fe fff0 	bl	1a0088c8 <__lshift>
1a0098e8:	4680      	mov	r8, r0
1a0098ea:	2800      	cmp	r0, #0
1a0098ec:	f000 81d9 	beq.w	1a009ca2 <_strtod_l+0x852>
1a0098f0:	464a      	mov	r2, r9
1a0098f2:	9920      	ldr	r1, [sp, #128]	; 0x80
1a0098f4:	4620      	mov	r0, r4
1a0098f6:	f7ff f859 	bl	1a0089ac <__mdiff>
1a0098fa:	4683      	mov	fp, r0
1a0098fc:	2800      	cmp	r0, #0
1a0098fe:	f000 81d0 	beq.w	1a009ca2 <_strtod_l+0x852>
1a009902:	2300      	movs	r3, #0
1a009904:	68c2      	ldr	r2, [r0, #12]
1a009906:	60c3      	str	r3, [r0, #12]
1a009908:	4641      	mov	r1, r8
1a00990a:	9212      	str	r2, [sp, #72]	; 0x48
1a00990c:	f7ff f832 	bl	1a008974 <__mcmp>
1a009910:	2800      	cmp	r0, #0
1a009912:	f2c0 843d 	blt.w	1a00a190 <_strtod_l+0xd40>
1a009916:	9b05      	ldr	r3, [sp, #20]
1a009918:	930f      	str	r3, [sp, #60]	; 0x3c
1a00991a:	f000 83ff 	beq.w	1a00a11c <_strtod_l+0xccc>
1a00991e:	4641      	mov	r1, r8
1a009920:	4658      	mov	r0, fp
1a009922:	f7ff f9a3 	bl	1a008c6c <__ratio>
1a009926:	ec57 6b10 	vmov	r6, r7, d0
1a00992a:	2200      	movs	r2, #0
1a00992c:	f04f 4380 	mov.w	r3, #1073741824	; 0x40000000
1a009930:	ee10 0a10 	vmov	r0, s0
1a009934:	4639      	mov	r1, r7
1a009936:	f7f8 fed5 	bl	1a0026e4 <__aeabi_dcmple>
1a00993a:	2800      	cmp	r0, #0
1a00993c:	f000 81be 	beq.w	1a009cbc <_strtod_l+0x86c>
1a009940:	9b12      	ldr	r3, [sp, #72]	; 0x48
1a009942:	2b00      	cmp	r3, #0
1a009944:	f000 81dc 	beq.w	1a009d00 <_strtod_l+0x8b0>
1a009948:	ed9f 7ba5 	vldr	d7, [pc, #660]	; 1a009be0 <_strtod_l+0x790>
1a00994c:	ed8d 7b10 	vstr	d7, [sp, #64]	; 0x40
1a009950:	4fa7      	ldr	r7, [pc, #668]	; (1a009bf0 <_strtod_l+0x7a0>)
1a009952:	2600      	movs	r6, #0
1a009954:	9a0f      	ldr	r2, [sp, #60]	; 0x3c
1a009956:	4da7      	ldr	r5, [pc, #668]	; (1a009bf4 <_strtod_l+0x7a4>)
1a009958:	4ba7      	ldr	r3, [pc, #668]	; (1a009bf8 <_strtod_l+0x7a8>)
1a00995a:	4015      	ands	r5, r2
1a00995c:	429d      	cmp	r5, r3
1a00995e:	f000 81f2 	beq.w	1a009d46 <_strtod_l+0x8f6>
1a009962:	9b0c      	ldr	r3, [sp, #48]	; 0x30
1a009964:	b323      	cbz	r3, 1a0099b0 <_strtod_l+0x560>
1a009966:	f1b5 6fd4 	cmp.w	r5, #111149056	; 0x6a00000
1a00996a:	d821      	bhi.n	1a0099b0 <_strtod_l+0x560>
1a00996c:	a39e      	add	r3, pc, #632	; (adr r3, 1a009be8 <_strtod_l+0x798>)
1a00996e:	e9d3 2300 	ldrd	r2, r3, [r3]
1a009972:	e9dd 0110 	ldrd	r0, r1, [sp, #64]	; 0x40
1a009976:	f7f8 feb5 	bl	1a0026e4 <__aeabi_dcmple>
1a00997a:	b1b0      	cbz	r0, 1a0099aa <_strtod_l+0x55a>
1a00997c:	e9dd 0110 	ldrd	r0, r1, [sp, #64]	; 0x40
1a009980:	f003 fc16 	bl	1a00d1b0 <__aeabi_d2uiz>
1a009984:	2800      	cmp	r0, #0
1a009986:	f000 83af 	beq.w	1a00a0e8 <_strtod_l+0xc98>
1a00998a:	f7f8 fbb5 	bl	1a0020f8 <__aeabi_ui2d>
1a00998e:	e9cd 0110 	strd	r0, r1, [sp, #64]	; 0x40
1a009992:	9b12      	ldr	r3, [sp, #72]	; 0x48
1a009994:	2b00      	cmp	r3, #0
1a009996:	f040 83a2 	bne.w	1a00a0de <_strtod_l+0xc8e>
1a00999a:	e9dd 1210 	ldrd	r1, r2, [sp, #64]	; 0x40
1a00999e:	f102 4300 	add.w	r3, r2, #2147483648	; 0x80000000
1a0099a2:	911a      	str	r1, [sp, #104]	; 0x68
1a0099a4:	931b      	str	r3, [sp, #108]	; 0x6c
1a0099a6:	e9dd 671a 	ldrd	r6, r7, [sp, #104]	; 0x68
1a0099aa:	f107 63d6 	add.w	r3, r7, #112197632	; 0x6b00000
1a0099ae:	1b5f      	subs	r7, r3, r5
1a0099b0:	ed9d 0b0a 	vldr	d0, [sp, #40]	; 0x28
1a0099b4:	f7ff f870 	bl	1a008a98 <__ulp>
1a0099b8:	4630      	mov	r0, r6
1a0099ba:	ec53 2b10 	vmov	r2, r3, d0
1a0099be:	4639      	mov	r1, r7
1a0099c0:	f7f8 fc14 	bl	1a0021ec <__aeabi_dmul>
1a0099c4:	e9dd 230a 	ldrd	r2, r3, [sp, #40]	; 0x28
1a0099c8:	f7f8 fa5a 	bl	1a001e80 <__adddf3>
1a0099cc:	e9cd 0104 	strd	r0, r1, [sp, #16]
1a0099d0:	460e      	mov	r6, r1
1a0099d2:	9b0c      	ldr	r3, [sp, #48]	; 0x30
1a0099d4:	b923      	cbnz	r3, 1a0099e0 <_strtod_l+0x590>
1a0099d6:	4b87      	ldr	r3, [pc, #540]	; (1a009bf4 <_strtod_l+0x7a4>)
1a0099d8:	4033      	ands	r3, r6
1a0099da:	429d      	cmp	r5, r3
1a0099dc:	f000 81e9 	beq.w	1a009db2 <_strtod_l+0x962>
1a0099e0:	9920      	ldr	r1, [sp, #128]	; 0x80
1a0099e2:	4620      	mov	r0, r4
1a0099e4:	f7fe fd8a 	bl	1a0084fc <_Bfree>
1a0099e8:	4649      	mov	r1, r9
1a0099ea:	4620      	mov	r0, r4
1a0099ec:	f7fe fd86 	bl	1a0084fc <_Bfree>
1a0099f0:	4641      	mov	r1, r8
1a0099f2:	4620      	mov	r0, r4
1a0099f4:	f7fe fd82 	bl	1a0084fc <_Bfree>
1a0099f8:	4659      	mov	r1, fp
1a0099fa:	4620      	mov	r0, r4
1a0099fc:	f7fe fd7e 	bl	1a0084fc <_Bfree>
1a009a00:	9d13      	ldr	r5, [sp, #76]	; 0x4c
1a009a02:	4620      	mov	r0, r4
1a009a04:	6869      	ldr	r1, [r5, #4]
1a009a06:	f7fe fd53 	bl	1a0084b0 <_Balloc>
1a009a0a:	4681      	mov	r9, r0
1a009a0c:	2800      	cmp	r0, #0
1a009a0e:	f000 8148 	beq.w	1a009ca2 <_strtod_l+0x852>
1a009a12:	692a      	ldr	r2, [r5, #16]
1a009a14:	ed9d 7b04 	vldr	d7, [sp, #16]
1a009a18:	3202      	adds	r2, #2
1a009a1a:	0092      	lsls	r2, r2, #2
1a009a1c:	f105 010c 	add.w	r1, r5, #12
1a009a20:	300c      	adds	r0, #12
1a009a22:	ed8d 7b0a 	vstr	d7, [sp, #40]	; 0x28
1a009a26:	f7f9 f86f 	bl	1a002b08 <memcpy>
1a009a2a:	ed9d 0b0a 	vldr	d0, [sp, #40]	; 0x28
1a009a2e:	aa22      	add	r2, sp, #136	; 0x88
1a009a30:	a921      	add	r1, sp, #132	; 0x84
1a009a32:	4620      	mov	r0, r4
1a009a34:	f7ff f8b8 	bl	1a008ba8 <__d2b>
1a009a38:	9020      	str	r0, [sp, #128]	; 0x80
1a009a3a:	2800      	cmp	r0, #0
1a009a3c:	f000 8108 	beq.w	1a009c50 <_strtod_l+0x800>
1a009a40:	2101      	movs	r1, #1
1a009a42:	4620      	mov	r0, r4
1a009a44:	f7fe fe40 	bl	1a0086c8 <__i2b>
1a009a48:	4680      	mov	r8, r0
1a009a4a:	2800      	cmp	r0, #0
1a009a4c:	f000 8129 	beq.w	1a009ca2 <_strtod_l+0x852>
1a009a50:	9b21      	ldr	r3, [sp, #132]	; 0x84
1a009a52:	2b00      	cmp	r3, #0
1a009a54:	f2c0 8143 	blt.w	1a009cde <_strtod_l+0x88e>
1a009a58:	9a0e      	ldr	r2, [sp, #56]	; 0x38
1a009a5a:	9e16      	ldr	r6, [sp, #88]	; 0x58
1a009a5c:	189f      	adds	r7, r3, r2
1a009a5e:	990c      	ldr	r1, [sp, #48]	; 0x30
1a009a60:	9d22      	ldr	r5, [sp, #136]	; 0x88
1a009a62:	4a66      	ldr	r2, [pc, #408]	; (1a009bfc <_strtod_l+0x7ac>)
1a009a64:	1a5b      	subs	r3, r3, r1
1a009a66:	442b      	add	r3, r5
1a009a68:	3b01      	subs	r3, #1
1a009a6a:	4293      	cmp	r3, r2
1a009a6c:	f1c5 0536 	rsb	r5, r5, #54	; 0x36
1a009a70:	f6ff af0a 	blt.w	1a009888 <_strtod_l+0x438>
1a009a74:	2300      	movs	r3, #0
1a009a76:	9317      	str	r3, [sp, #92]	; 0x5c
1a009a78:	2301      	movs	r3, #1
1a009a7a:	9310      	str	r3, [sp, #64]	; 0x40
1a009a7c:	e70f      	b.n	1a00989e <_strtod_l+0x44e>
1a009a7e:	f04f 0a01 	mov.w	sl, #1
1a009a82:	e5a0      	b.n	1a0095c6 <_strtod_l+0x176>
1a009a84:	9a09      	ldr	r2, [sp, #36]	; 0x24
1a009a86:	9402      	str	r4, [sp, #8]
1a009a88:	ab20      	add	r3, sp, #128	; 0x80
1a009a8a:	e9cd 3200 	strd	r3, r2, [sp]
1a009a8e:	a91f      	add	r1, sp, #124	; 0x7c
1a009a90:	ab21      	add	r3, sp, #132	; 0x84
1a009a92:	4a5b      	ldr	r2, [pc, #364]	; (1a009c00 <_strtod_l+0x7b0>)
1a009a94:	9808      	ldr	r0, [sp, #32]
1a009a96:	f002 fe8f 	bl	1a00c7b8 <__gethex>
1a009a9a:	f010 0507 	ands.w	r5, r0, #7
1a009a9e:	4604      	mov	r4, r0
1a009aa0:	f43f ad9e 	beq.w	1a0095e0 <_strtod_l+0x190>
1a009aa4:	2d06      	cmp	r5, #6
1a009aa6:	f040 8268 	bne.w	1a009f7a <_strtod_l+0xb2a>
1a009aaa:	9a07      	ldr	r2, [sp, #28]
1a009aac:	f109 0301 	add.w	r3, r9, #1
1a009ab0:	2a00      	cmp	r2, #0
1a009ab2:	f43f ad4b 	beq.w	1a00954c <_strtod_l+0xfc>
1a009ab6:	6013      	str	r3, [r2, #0]
1a009ab8:	f04f 0a00 	mov.w	sl, #0
1a009abc:	f04f 0b00 	mov.w	fp, #0
1a009ac0:	e548      	b.n	1a009554 <_strtod_l+0x104>
1a009ac2:	f04f 0e00 	mov.w	lr, #0
1a009ac6:	1cba      	adds	r2, r7, #2
1a009ac8:	921f      	str	r2, [sp, #124]	; 0x7c
1a009aca:	78be      	ldrb	r6, [r7, #2]
1a009acc:	e5f4      	b.n	1a0096b8 <_strtod_l+0x268>
1a009ace:	f04f 0e01 	mov.w	lr, #1
1a009ad2:	e7f8      	b.n	1a009ac6 <_strtod_l+0x676>
1a009ad4:	f1ba 0f00 	cmp.w	sl, #0
1a009ad8:	f47f ad34 	bne.w	1a009544 <_strtod_l+0xf4>
1a009adc:	3e49      	subs	r6, #73	; 0x49
1a009ade:	2e25      	cmp	r6, #37	; 0x25
1a009ae0:	f63f ad30 	bhi.w	1a009544 <_strtod_l+0xf4>
1a009ae4:	a301      	add	r3, pc, #4	; (adr r3, 1a009aec <_strtod_l+0x69c>)
1a009ae6:	f853 f026 	ldr.w	pc, [r3, r6, lsl #2]
1a009aea:	bf00      	nop
1a009aec:	1a009787 	.word	0x1a009787
1a009af0:	1a009545 	.word	0x1a009545
1a009af4:	1a009545 	.word	0x1a009545
1a009af8:	1a009545 	.word	0x1a009545
1a009afc:	1a009545 	.word	0x1a009545
1a009b00:	1a009bb7 	.word	0x1a009bb7
1a009b04:	1a009545 	.word	0x1a009545
1a009b08:	1a009545 	.word	0x1a009545
1a009b0c:	1a009545 	.word	0x1a009545
1a009b10:	1a009545 	.word	0x1a009545
1a009b14:	1a009545 	.word	0x1a009545
1a009b18:	1a009545 	.word	0x1a009545
1a009b1c:	1a009545 	.word	0x1a009545
1a009b20:	1a009545 	.word	0x1a009545
1a009b24:	1a009545 	.word	0x1a009545
1a009b28:	1a009545 	.word	0x1a009545
1a009b2c:	1a009545 	.word	0x1a009545
1a009b30:	1a009545 	.word	0x1a009545
1a009b34:	1a009545 	.word	0x1a009545
1a009b38:	1a009545 	.word	0x1a009545
1a009b3c:	1a009545 	.word	0x1a009545
1a009b40:	1a009545 	.word	0x1a009545
1a009b44:	1a009545 	.word	0x1a009545
1a009b48:	1a009545 	.word	0x1a009545
1a009b4c:	1a009545 	.word	0x1a009545
1a009b50:	1a009545 	.word	0x1a009545
1a009b54:	1a009545 	.word	0x1a009545
1a009b58:	1a009545 	.word	0x1a009545
1a009b5c:	1a009545 	.word	0x1a009545
1a009b60:	1a009545 	.word	0x1a009545
1a009b64:	1a009545 	.word	0x1a009545
1a009b68:	1a009545 	.word	0x1a009545
1a009b6c:	1a009787 	.word	0x1a009787
1a009b70:	1a009545 	.word	0x1a009545
1a009b74:	1a009545 	.word	0x1a009545
1a009b78:	1a009545 	.word	0x1a009545
1a009b7c:	1a009545 	.word	0x1a009545
1a009b80:	1a009bb7 	.word	0x1a009bb7
1a009b84:	465c      	mov	r4, fp
1a009b86:	465d      	mov	r5, fp
1a009b88:	46d8      	mov	r8, fp
1a009b8a:	f04f 0a01 	mov.w	sl, #1
1a009b8e:	e51c      	b.n	1a0095ca <_strtod_l+0x17a>
1a009b90:	f04f 0b00 	mov.w	fp, #0
1a009b94:	465d      	mov	r5, fp
1a009b96:	46d8      	mov	r8, fp
1a009b98:	465b      	mov	r3, fp
1a009b9a:	4659      	mov	r1, fp
1a009b9c:	465c      	mov	r4, fp
1a009b9e:	46da      	mov	sl, fp
1a009ba0:	e511      	b.n	1a0095c6 <_strtod_l+0x176>
1a009ba2:	4b14      	ldr	r3, [pc, #80]	; (1a009bf4 <_strtod_l+0x7a4>)
1a009ba4:	9305      	str	r3, [sp, #20]
1a009ba6:	9b13      	ldr	r3, [sp, #76]	; 0x4c
1a009ba8:	9a08      	ldr	r2, [sp, #32]
1a009baa:	9304      	str	r3, [sp, #16]
1a009bac:	2322      	movs	r3, #34	; 0x22
1a009bae:	e9dd ab04 	ldrd	sl, fp, [sp, #16]
1a009bb2:	6013      	str	r3, [r2, #0]
1a009bb4:	e518      	b.n	1a0095e8 <_strtod_l+0x198>
1a009bb6:	a81f      	add	r0, sp, #124	; 0x7c
1a009bb8:	4912      	ldr	r1, [pc, #72]	; (1a009c04 <_strtod_l+0x7b4>)
1a009bba:	f003 f88d 	bl	1a00ccd8 <__match>
1a009bbe:	2800      	cmp	r0, #0
1a009bc0:	f43f acc0 	beq.w	1a009544 <_strtod_l+0xf4>
1a009bc4:	9b1f      	ldr	r3, [sp, #124]	; 0x7c
1a009bc6:	781b      	ldrb	r3, [r3, #0]
1a009bc8:	2b28      	cmp	r3, #40	; 0x28
1a009bca:	f000 8392 	beq.w	1a00a2f2 <_strtod_l+0xea2>
1a009bce:	f8df 8038 	ldr.w	r8, [pc, #56]	; 1a009c08 <_strtod_l+0x7b8>
1a009bd2:	2300      	movs	r3, #0
1a009bd4:	e9cd 3804 	strd	r3, r8, [sp, #16]
1a009bd8:	e5ec      	b.n	1a0097b4 <_strtod_l+0x364>
1a009bda:	bf00      	nop
1a009bdc:	f3af 8000 	nop.w
1a009be0:	00000000 	.word	0x00000000
1a009be4:	3ff00000 	.word	0x3ff00000
1a009be8:	ffc00000 	.word	0xffc00000
1a009bec:	41dfffff 	.word	0x41dfffff
1a009bf0:	3ff00000 	.word	0x3ff00000
1a009bf4:	7ff00000 	.word	0x7ff00000
1a009bf8:	7fe00000 	.word	0x7fe00000
1a009bfc:	fffffc02 	.word	0xfffffc02
1a009c00:	1a00d904 	.word	0x1a00d904
1a009c04:	1a00d900 	.word	0x1a00d900
1a009c08:	fff80000 	.word	0xfff80000
1a009c0c:	4641      	mov	r1, r8
1a009c0e:	461a      	mov	r2, r3
1a009c10:	4620      	mov	r0, r4
1a009c12:	f7fe fe09 	bl	1a008828 <__pow5mult>
1a009c16:	4680      	mov	r8, r0
1a009c18:	2800      	cmp	r0, #0
1a009c1a:	d042      	beq.n	1a009ca2 <_strtod_l+0x852>
1a009c1c:	4601      	mov	r1, r0
1a009c1e:	9a20      	ldr	r2, [sp, #128]	; 0x80
1a009c20:	4620      	mov	r0, r4
1a009c22:	f7fe fd5b 	bl	1a0086dc <__multiply>
1a009c26:	2800      	cmp	r0, #0
1a009c28:	d03b      	beq.n	1a009ca2 <_strtod_l+0x852>
1a009c2a:	900f      	str	r0, [sp, #60]	; 0x3c
1a009c2c:	9920      	ldr	r1, [sp, #128]	; 0x80
1a009c2e:	4620      	mov	r0, r4
1a009c30:	f7fe fc64 	bl	1a0084fc <_Bfree>
1a009c34:	9b0f      	ldr	r3, [sp, #60]	; 0x3c
1a009c36:	9320      	str	r3, [sp, #128]	; 0x80
1a009c38:	2d00      	cmp	r5, #0
1a009c3a:	f77f ae47 	ble.w	1a0098cc <_strtod_l+0x47c>
1a009c3e:	462a      	mov	r2, r5
1a009c40:	9920      	ldr	r1, [sp, #128]	; 0x80
1a009c42:	4620      	mov	r0, r4
1a009c44:	f7fe fe40 	bl	1a0088c8 <__lshift>
1a009c48:	9020      	str	r0, [sp, #128]	; 0x80
1a009c4a:	2800      	cmp	r0, #0
1a009c4c:	f47f ae3e 	bne.w	1a0098cc <_strtod_l+0x47c>
1a009c50:	465f      	mov	r7, fp
1a009c52:	4bb5      	ldr	r3, [pc, #724]	; (1a009f28 <_strtod_l+0xad8>)
1a009c54:	9305      	str	r3, [sp, #20]
1a009c56:	2200      	movs	r2, #0
1a009c58:	9204      	str	r2, [sp, #16]
1a009c5a:	e9dd ab04 	ldrd	sl, fp, [sp, #16]
1a009c5e:	9a08      	ldr	r2, [sp, #32]
1a009c60:	2322      	movs	r3, #34	; 0x22
1a009c62:	6013      	str	r3, [r2, #0]
1a009c64:	9c08      	ldr	r4, [sp, #32]
1a009c66:	4601      	mov	r1, r0
1a009c68:	4620      	mov	r0, r4
1a009c6a:	f7fe fc47 	bl	1a0084fc <_Bfree>
1a009c6e:	4649      	mov	r1, r9
1a009c70:	4620      	mov	r0, r4
1a009c72:	f7fe fc43 	bl	1a0084fc <_Bfree>
1a009c76:	4641      	mov	r1, r8
1a009c78:	4620      	mov	r0, r4
1a009c7a:	f7fe fc3f 	bl	1a0084fc <_Bfree>
1a009c7e:	9913      	ldr	r1, [sp, #76]	; 0x4c
1a009c80:	4620      	mov	r0, r4
1a009c82:	f7fe fc3b 	bl	1a0084fc <_Bfree>
1a009c86:	4639      	mov	r1, r7
1a009c88:	4620      	mov	r0, r4
1a009c8a:	f7fe fc37 	bl	1a0084fc <_Bfree>
1a009c8e:	e4ab      	b.n	1a0095e8 <_strtod_l+0x198>
1a009c90:	4649      	mov	r1, r9
1a009c92:	9a16      	ldr	r2, [sp, #88]	; 0x58
1a009c94:	4620      	mov	r0, r4
1a009c96:	f7fe fdc7 	bl	1a008828 <__pow5mult>
1a009c9a:	4681      	mov	r9, r0
1a009c9c:	2800      	cmp	r0, #0
1a009c9e:	f47f ae19 	bne.w	1a0098d4 <_strtod_l+0x484>
1a009ca2:	465f      	mov	r7, fp
1a009ca4:	9820      	ldr	r0, [sp, #128]	; 0x80
1a009ca6:	e7d4      	b.n	1a009c52 <_strtod_l+0x802>
1a009ca8:	4649      	mov	r1, r9
1a009caa:	4632      	mov	r2, r6
1a009cac:	4620      	mov	r0, r4
1a009cae:	f7fe fe0b 	bl	1a0088c8 <__lshift>
1a009cb2:	4681      	mov	r9, r0
1a009cb4:	2800      	cmp	r0, #0
1a009cb6:	f47f ae10 	bne.w	1a0098da <_strtod_l+0x48a>
1a009cba:	e7f2      	b.n	1a009ca2 <_strtod_l+0x852>
1a009cbc:	4b9b      	ldr	r3, [pc, #620]	; (1a009f2c <_strtod_l+0xadc>)
1a009cbe:	4630      	mov	r0, r6
1a009cc0:	4639      	mov	r1, r7
1a009cc2:	2200      	movs	r2, #0
1a009cc4:	f7f8 fa92 	bl	1a0021ec <__aeabi_dmul>
1a009cc8:	9b12      	ldr	r3, [sp, #72]	; 0x48
1a009cca:	e9cd 0110 	strd	r0, r1, [sp, #64]	; 0x40
1a009cce:	b993      	cbnz	r3, 1a009cf6 <_strtod_l+0x8a6>
1a009cd0:	f101 4300 	add.w	r3, r1, #2147483648	; 0x80000000
1a009cd4:	9014      	str	r0, [sp, #80]	; 0x50
1a009cd6:	9315      	str	r3, [sp, #84]	; 0x54
1a009cd8:	e9dd 6714 	ldrd	r6, r7, [sp, #80]	; 0x50
1a009cdc:	e63a      	b.n	1a009954 <_strtod_l+0x504>
1a009cde:	9a16      	ldr	r2, [sp, #88]	; 0x58
1a009ce0:	9f0e      	ldr	r7, [sp, #56]	; 0x38
1a009ce2:	1ad6      	subs	r6, r2, r3
1a009ce4:	e6bb      	b.n	1a009a5e <_strtod_l+0x60e>
1a009ce6:	4a92      	ldr	r2, [pc, #584]	; (1a009f30 <_strtod_l+0xae0>)
1a009ce8:	1ad3      	subs	r3, r2, r3
1a009cea:	2201      	movs	r2, #1
1a009cec:	fa02 f303 	lsl.w	r3, r2, r3
1a009cf0:	9317      	str	r3, [sp, #92]	; 0x5c
1a009cf2:	9210      	str	r2, [sp, #64]	; 0x40
1a009cf4:	e5d3      	b.n	1a00989e <_strtod_l+0x44e>
1a009cf6:	ed9d 7b10 	vldr	d7, [sp, #64]	; 0x40
1a009cfa:	ed8d 7b14 	vstr	d7, [sp, #80]	; 0x50
1a009cfe:	e7eb      	b.n	1a009cd8 <_strtod_l+0x888>
1a009d00:	9b04      	ldr	r3, [sp, #16]
1a009d02:	2b00      	cmp	r3, #0
1a009d04:	f040 80e9 	bne.w	1a009eda <_strtod_l+0xa8a>
1a009d08:	9b0f      	ldr	r3, [sp, #60]	; 0x3c
1a009d0a:	f3c3 0313 	ubfx	r3, r3, #0, #20
1a009d0e:	2b00      	cmp	r3, #0
1a009d10:	d148      	bne.n	1a009da4 <_strtod_l+0x954>
1a009d12:	2200      	movs	r2, #0
1a009d14:	4b87      	ldr	r3, [pc, #540]	; (1a009f34 <_strtod_l+0xae4>)
1a009d16:	4630      	mov	r0, r6
1a009d18:	4639      	mov	r1, r7
1a009d1a:	f7f8 fcd9 	bl	1a0026d0 <__aeabi_dcmplt>
1a009d1e:	2800      	cmp	r0, #0
1a009d20:	f040 81f3 	bne.w	1a00a10a <_strtod_l+0xcba>
1a009d24:	2200      	movs	r2, #0
1a009d26:	4b81      	ldr	r3, [pc, #516]	; (1a009f2c <_strtod_l+0xadc>)
1a009d28:	4630      	mov	r0, r6
1a009d2a:	4639      	mov	r1, r7
1a009d2c:	f7f8 fa5e 	bl	1a0021ec <__aeabi_dmul>
1a009d30:	460a      	mov	r2, r1
1a009d32:	4601      	mov	r1, r0
1a009d34:	e9cd 1210 	strd	r1, r2, [sp, #64]	; 0x40
1a009d38:	f102 4300 	add.w	r3, r2, #2147483648	; 0x80000000
1a009d3c:	901c      	str	r0, [sp, #112]	; 0x70
1a009d3e:	931d      	str	r3, [sp, #116]	; 0x74
1a009d40:	e9dd 671c 	ldrd	r6, r7, [sp, #112]	; 0x70
1a009d44:	e606      	b.n	1a009954 <_strtod_l+0x504>
1a009d46:	f1a2 7354 	sub.w	r3, r2, #55574528	; 0x3500000
1a009d4a:	9305      	str	r3, [sp, #20]
1a009d4c:	ed9d 7b04 	vldr	d7, [sp, #16]
1a009d50:	eeb0 0a47 	vmov.f32	s0, s14
1a009d54:	eef0 0a67 	vmov.f32	s1, s15
1a009d58:	f7fe fe9e 	bl	1a008a98 <__ulp>
1a009d5c:	4630      	mov	r0, r6
1a009d5e:	ec53 2b10 	vmov	r2, r3, d0
1a009d62:	4639      	mov	r1, r7
1a009d64:	f7f8 fa42 	bl	1a0021ec <__aeabi_dmul>
1a009d68:	e9dd 2304 	ldrd	r2, r3, [sp, #16]
1a009d6c:	f7f8 f888 	bl	1a001e80 <__adddf3>
1a009d70:	4b6d      	ldr	r3, [pc, #436]	; (1a009f28 <_strtod_l+0xad8>)
1a009d72:	f8df c1d4 	ldr.w	ip, [pc, #468]	; 1a009f48 <_strtod_l+0xaf8>
1a009d76:	400b      	ands	r3, r1
1a009d78:	460a      	mov	r2, r1
1a009d7a:	e9cd 0104 	strd	r0, r1, [sp, #16]
1a009d7e:	e9dd 010a 	ldrd	r0, r1, [sp, #40]	; 0x28
1a009d82:	4563      	cmp	r3, ip
1a009d84:	4606      	mov	r6, r0
1a009d86:	460f      	mov	r7, r1
1a009d88:	e9cd 6718 	strd	r6, r7, [sp, #96]	; 0x60
1a009d8c:	f240 80b7 	bls.w	1a009efe <_strtod_l+0xaae>
1a009d90:	4b69      	ldr	r3, [pc, #420]	; (1a009f38 <_strtod_l+0xae8>)
1a009d92:	4299      	cmp	r1, r3
1a009d94:	f000 81ad 	beq.w	1a00a0f2 <_strtod_l+0xca2>
1a009d98:	4967      	ldr	r1, [pc, #412]	; (1a009f38 <_strtod_l+0xae8>)
1a009d9a:	f04f 33ff 	mov.w	r3, #4294967295	; 0xffffffff
1a009d9e:	e9cd 3104 	strd	r3, r1, [sp, #16]
1a009da2:	e61d      	b.n	1a0099e0 <_strtod_l+0x590>
1a009da4:	ed9f 7b58 	vldr	d7, [pc, #352]	; 1a009f08 <_strtod_l+0xab8>
1a009da8:	2600      	movs	r6, #0
1a009daa:	4f64      	ldr	r7, [pc, #400]	; (1a009f3c <_strtod_l+0xaec>)
1a009dac:	ed8d 7b10 	vstr	d7, [sp, #64]	; 0x40
1a009db0:	e5d0      	b.n	1a009954 <_strtod_l+0x504>
1a009db2:	e9dd 0110 	ldrd	r0, r1, [sp, #64]	; 0x40
1a009db6:	f003 f9d3 	bl	1a00d160 <__aeabi_d2iz>
1a009dba:	f7f8 f9ad 	bl	1a002118 <__aeabi_i2d>
1a009dbe:	460b      	mov	r3, r1
1a009dc0:	4602      	mov	r2, r0
1a009dc2:	e9dd 0110 	ldrd	r0, r1, [sp, #64]	; 0x40
1a009dc6:	f7f8 f859 	bl	1a001e7c <__aeabi_dsub>
1a009dca:	9b12      	ldr	r3, [sp, #72]	; 0x48
1a009dcc:	e9cd 010a 	strd	r0, r1, [sp, #40]	; 0x28
1a009dd0:	2b00      	cmp	r3, #0
1a009dd2:	d16e      	bne.n	1a009eb2 <_strtod_l+0xa62>
1a009dd4:	9b04      	ldr	r3, [sp, #16]
1a009dd6:	2b00      	cmp	r3, #0
1a009dd8:	d16b      	bne.n	1a009eb2 <_strtod_l+0xa62>
1a009dda:	f3c6 0613 	ubfx	r6, r6, #0, #20
1a009dde:	2e00      	cmp	r6, #0
1a009de0:	d167      	bne.n	1a009eb2 <_strtod_l+0xa62>
1a009de2:	a34b      	add	r3, pc, #300	; (adr r3, 1a009f10 <_strtod_l+0xac0>)
1a009de4:	e9d3 2300 	ldrd	r2, r3, [r3]
1a009de8:	f7f8 fc72 	bl	1a0026d0 <__aeabi_dcmplt>
1a009dec:	2800      	cmp	r0, #0
1a009dee:	f43f adf7 	beq.w	1a0099e0 <_strtod_l+0x590>
1a009df2:	465f      	mov	r7, fp
1a009df4:	9820      	ldr	r0, [sp, #128]	; 0x80
1a009df6:	e9dd ab04 	ldrd	sl, fp, [sp, #16]
1a009dfa:	e733      	b.n	1a009c64 <_strtod_l+0x814>
1a009dfc:	f43f ad1f 	beq.w	1a00983e <_strtod_l+0x3ee>
1a009e00:	f1ca 0500 	rsb	r5, sl, #0
1a009e04:	f015 020f 	ands.w	r2, r5, #15
1a009e08:	d00a      	beq.n	1a009e20 <_strtod_l+0x9d0>
1a009e0a:	4b4d      	ldr	r3, [pc, #308]	; (1a009f40 <_strtod_l+0xaf0>)
1a009e0c:	eb03 03c2 	add.w	r3, r3, r2, lsl #3
1a009e10:	e9dd 0104 	ldrd	r0, r1, [sp, #16]
1a009e14:	e9d3 2300 	ldrd	r2, r3, [r3]
1a009e18:	f7f8 fb12 	bl	1a002440 <__aeabi_ddiv>
1a009e1c:	e9cd 0104 	strd	r0, r1, [sp, #16]
1a009e20:	112d      	asrs	r5, r5, #4
1a009e22:	f43f ad0c 	beq.w	1a00983e <_strtod_l+0x3ee>
1a009e26:	2d1f      	cmp	r5, #31
1a009e28:	dc3a      	bgt.n	1a009ea0 <_strtod_l+0xa50>
1a009e2a:	f015 0310 	ands.w	r3, r5, #16
1a009e2e:	930c      	str	r3, [sp, #48]	; 0x30
1a009e30:	f040 81fd 	bne.w	1a00a22e <_strtod_l+0xdde>
1a009e34:	2d00      	cmp	r5, #0
1a009e36:	f340 81f7 	ble.w	1a00a228 <_strtod_l+0xdd8>
1a009e3a:	e9dd 0104 	ldrd	r0, r1, [sp, #16]
1a009e3e:	4e41      	ldr	r6, [pc, #260]	; (1a009f44 <_strtod_l+0xaf4>)
1a009e40:	2300      	movs	r3, #0
1a009e42:	07ef      	lsls	r7, r5, #31
1a009e44:	d504      	bpl.n	1a009e50 <_strtod_l+0xa00>
1a009e46:	e9d6 2300 	ldrd	r2, r3, [r6]
1a009e4a:	f7f8 f9cf 	bl	1a0021ec <__aeabi_dmul>
1a009e4e:	2301      	movs	r3, #1
1a009e50:	106d      	asrs	r5, r5, #1
1a009e52:	f106 0608 	add.w	r6, r6, #8
1a009e56:	d1f4      	bne.n	1a009e42 <_strtod_l+0x9f2>
1a009e58:	2b00      	cmp	r3, #0
1a009e5a:	f040 827b 	bne.w	1a00a354 <_strtod_l+0xf04>
1a009e5e:	9b0c      	ldr	r3, [sp, #48]	; 0x30
1a009e60:	2b00      	cmp	r3, #0
1a009e62:	f000 81e1 	beq.w	1a00a228 <_strtod_l+0xdd8>
1a009e66:	e9dd 1204 	ldrd	r1, r2, [sp, #16]
1a009e6a:	f3c2 530a 	ubfx	r3, r2, #20, #11
1a009e6e:	f1c3 036b 	rsb	r3, r3, #107	; 0x6b
1a009e72:	2b00      	cmp	r3, #0
1a009e74:	4611      	mov	r1, r2
1a009e76:	dd0a      	ble.n	1a009e8e <_strtod_l+0xa3e>
1a009e78:	2b1f      	cmp	r3, #31
1a009e7a:	f340 8232 	ble.w	1a00a2e2 <_strtod_l+0xe92>
1a009e7e:	2200      	movs	r2, #0
1a009e80:	2b34      	cmp	r3, #52	; 0x34
1a009e82:	9204      	str	r2, [sp, #16]
1a009e84:	f340 8256 	ble.w	1a00a334 <_strtod_l+0xee4>
1a009e88:	f04f 735c 	mov.w	r3, #57671680	; 0x3700000
1a009e8c:	9305      	str	r3, [sp, #20]
1a009e8e:	2200      	movs	r2, #0
1a009e90:	2300      	movs	r3, #0
1a009e92:	e9dd 0104 	ldrd	r0, r1, [sp, #16]
1a009e96:	f7f8 fc11 	bl	1a0026bc <__aeabi_dcmpeq>
1a009e9a:	2800      	cmp	r0, #0
1a009e9c:	f43f acd1 	beq.w	1a009842 <_strtod_l+0x3f2>
1a009ea0:	9a08      	ldr	r2, [sp, #32]
1a009ea2:	2322      	movs	r3, #34	; 0x22
1a009ea4:	6013      	str	r3, [r2, #0]
1a009ea6:	f04f 0a00 	mov.w	sl, #0
1a009eaa:	f04f 0b00 	mov.w	fp, #0
1a009eae:	f7ff bb9b 	b.w	1a0095e8 <_strtod_l+0x198>
1a009eb2:	a319      	add	r3, pc, #100	; (adr r3, 1a009f18 <_strtod_l+0xac8>)
1a009eb4:	e9d3 2300 	ldrd	r2, r3, [r3]
1a009eb8:	e9dd 010a 	ldrd	r0, r1, [sp, #40]	; 0x28
1a009ebc:	f7f8 fc08 	bl	1a0026d0 <__aeabi_dcmplt>
1a009ec0:	2800      	cmp	r0, #0
1a009ec2:	d196      	bne.n	1a009df2 <_strtod_l+0x9a2>
1a009ec4:	e9dd 010a 	ldrd	r0, r1, [sp, #40]	; 0x28
1a009ec8:	a315      	add	r3, pc, #84	; (adr r3, 1a009f20 <_strtod_l+0xad0>)
1a009eca:	e9d3 2300 	ldrd	r2, r3, [r3]
1a009ece:	f7f8 fc1d 	bl	1a00270c <__aeabi_dcmpgt>
1a009ed2:	2800      	cmp	r0, #0
1a009ed4:	f43f ad84 	beq.w	1a0099e0 <_strtod_l+0x590>
1a009ed8:	e78b      	b.n	1a009df2 <_strtod_l+0x9a2>
1a009eda:	9b04      	ldr	r3, [sp, #16]
1a009edc:	2b01      	cmp	r3, #1
1a009ede:	f47f af61 	bne.w	1a009da4 <_strtod_l+0x954>
1a009ee2:	9b0f      	ldr	r3, [sp, #60]	; 0x3c
1a009ee4:	2b00      	cmp	r3, #0
1a009ee6:	f47f af5d 	bne.w	1a009da4 <_strtod_l+0x954>
1a009eea:	465f      	mov	r7, fp
1a009eec:	9a08      	ldr	r2, [sp, #32]
1a009eee:	9820      	ldr	r0, [sp, #128]	; 0x80
1a009ef0:	2322      	movs	r3, #34	; 0x22
1a009ef2:	6013      	str	r3, [r2, #0]
1a009ef4:	f04f 0a00 	mov.w	sl, #0
1a009ef8:	f04f 0b00 	mov.w	fp, #0
1a009efc:	e6b2      	b.n	1a009c64 <_strtod_l+0x814>
1a009efe:	f102 7654 	add.w	r6, r2, #55574528	; 0x3500000
1a009f02:	9605      	str	r6, [sp, #20]
1a009f04:	e565      	b.n	1a0099d2 <_strtod_l+0x582>
1a009f06:	bf00      	nop
1a009f08:	00000000 	.word	0x00000000
1a009f0c:	3ff00000 	.word	0x3ff00000
1a009f10:	94a03595 	.word	0x94a03595
1a009f14:	3fcfffff 	.word	0x3fcfffff
1a009f18:	94a03595 	.word	0x94a03595
1a009f1c:	3fdfffff 	.word	0x3fdfffff
1a009f20:	35afe535 	.word	0x35afe535
1a009f24:	3fe00000 	.word	0x3fe00000
1a009f28:	7ff00000 	.word	0x7ff00000
1a009f2c:	3fe00000 	.word	0x3fe00000
1a009f30:	fffffbe2 	.word	0xfffffbe2
1a009f34:	3ff00000 	.word	0x3ff00000
1a009f38:	7fefffff 	.word	0x7fefffff
1a009f3c:	bff00000 	.word	0xbff00000
1a009f40:	1a00d820 	.word	0x1a00d820
1a009f44:	1a00d930 	.word	0x1a00d930
1a009f48:	7c9fffff 	.word	0x7c9fffff
1a009f4c:	1c54      	adds	r4, r2, #1
1a009f4e:	2a08      	cmp	r2, #8
1a009f50:	f340 80a3 	ble.w	1a00a09a <_strtod_l+0xc4a>
1a009f54:	2c10      	cmp	r4, #16
1a009f56:	f300 80d6 	bgt.w	1a00a106 <_strtod_l+0xcb6>
1a009f5a:	eb05 0585 	add.w	r5, r5, r5, lsl #2
1a009f5e:	eb00 0545 	add.w	r5, r0, r5, lsl #1
1a009f62:	2300      	movs	r3, #0
1a009f64:	f10c 0201 	add.w	r2, ip, #1
1a009f68:	921f      	str	r2, [sp, #124]	; 0x7c
1a009f6a:	f89c 6001 	ldrb.w	r6, [ip, #1]
1a009f6e:	f7ff bb57 	b.w	1a009620 <_strtod_l+0x1d0>
1a009f72:	f644 621f 	movw	r2, #19999	; 0x4e1f
1a009f76:	f7ff bbd7 	b.w	1a009728 <_strtod_l+0x2d8>
1a009f7a:	9a20      	ldr	r2, [sp, #128]	; 0x80
1a009f7c:	b13a      	cbz	r2, 1a009f8e <_strtod_l+0xb3e>
1a009f7e:	2135      	movs	r1, #53	; 0x35
1a009f80:	a822      	add	r0, sp, #136	; 0x88
1a009f82:	f7fe fea3 	bl	1a008ccc <__copybits>
1a009f86:	9808      	ldr	r0, [sp, #32]
1a009f88:	9920      	ldr	r1, [sp, #128]	; 0x80
1a009f8a:	f7fe fab7 	bl	1a0084fc <_Bfree>
1a009f8e:	3d01      	subs	r5, #1
1a009f90:	2d04      	cmp	r5, #4
1a009f92:	d806      	bhi.n	1a009fa2 <_strtod_l+0xb52>
1a009f94:	e8df f005 	tbb	[pc, r5]
1a009f98:	11030c18 	.word	0x11030c18
1a009f9c:	18          	.byte	0x18
1a009f9d:	00          	.byte	0x00
1a009f9e:	4bae      	ldr	r3, [pc, #696]	; (1a00a258 <_strtod_l+0xe08>)
1a009fa0:	9305      	str	r3, [sp, #20]
1a009fa2:	0723      	lsls	r3, r4, #28
1a009fa4:	bf42      	ittt	mi
1a009fa6:	9b05      	ldrmi	r3, [sp, #20]
1a009fa8:	f043 4300 	orrmi.w	r3, r3, #2147483648	; 0x80000000
1a009fac:	9305      	strmi	r3, [sp, #20]
1a009fae:	e401      	b.n	1a0097b4 <_strtod_l+0x364>
1a009fb0:	9b22      	ldr	r3, [sp, #136]	; 0x88
1a009fb2:	9304      	str	r3, [sp, #16]
1a009fb4:	9b23      	ldr	r3, [sp, #140]	; 0x8c
1a009fb6:	9305      	str	r3, [sp, #20]
1a009fb8:	e7f3      	b.n	1a009fa2 <_strtod_l+0xb52>
1a009fba:	f04f 33ff 	mov.w	r3, #4294967295	; 0xffffffff
1a009fbe:	f06f 4200 	mvn.w	r2, #2147483648	; 0x80000000
1a009fc2:	e9cd 3204 	strd	r3, r2, [sp, #16]
1a009fc6:	e7ec      	b.n	1a009fa2 <_strtod_l+0xb52>
1a009fc8:	e9dd 1322 	ldrd	r1, r3, [sp, #136]	; 0x88
1a009fcc:	9a21      	ldr	r2, [sp, #132]	; 0x84
1a009fce:	9104      	str	r1, [sp, #16]
1a009fd0:	f202 4233 	addw	r2, r2, #1075	; 0x433
1a009fd4:	f423 1380 	bic.w	r3, r3, #1048576	; 0x100000
1a009fd8:	ea43 5302 	orr.w	r3, r3, r2, lsl #20
1a009fdc:	9305      	str	r3, [sp, #20]
1a009fde:	e7e0      	b.n	1a009fa2 <_strtod_l+0xb52>
1a009fe0:	ea4f 152a 	mov.w	r5, sl, asr #4
1a009fe4:	2d01      	cmp	r5, #1
1a009fe6:	f8df a288 	ldr.w	sl, [pc, #648]	; 1a00a270 <_strtod_l+0xe20>
1a009fea:	f340 8110 	ble.w	1a00a20e <_strtod_l+0xdbe>
1a009fee:	e9dd 0104 	ldrd	r0, r1, [sp, #16]
1a009ff2:	2300      	movs	r3, #0
1a009ff4:	4656      	mov	r6, sl
1a009ff6:	461f      	mov	r7, r3
1a009ff8:	f015 0f01 	tst.w	r5, #1
1a009ffc:	f107 0701 	add.w	r7, r7, #1
1a00a000:	ea4f 0565 	mov.w	r5, r5, asr #1
1a00a004:	d004      	beq.n	1a00a010 <_strtod_l+0xbc0>
1a00a006:	e9d6 2300 	ldrd	r2, r3, [r6]
1a00a00a:	f7f8 f8ef 	bl	1a0021ec <__aeabi_dmul>
1a00a00e:	2301      	movs	r3, #1
1a00a010:	2d01      	cmp	r5, #1
1a00a012:	f106 0608 	add.w	r6, r6, #8
1a00a016:	d1ef      	bne.n	1a009ff8 <_strtod_l+0xba8>
1a00a018:	2b00      	cmp	r3, #0
1a00a01a:	f040 819e 	bne.w	1a00a35a <_strtod_l+0xf0a>
1a00a01e:	9b05      	ldr	r3, [sp, #20]
1a00a020:	4e8e      	ldr	r6, [pc, #568]	; (1a00a25c <_strtod_l+0xe0c>)
1a00a022:	f1a3 7354 	sub.w	r3, r3, #55574528	; 0x3500000
1a00a026:	9305      	str	r3, [sp, #20]
1a00a028:	eb0a 07c7 	add.w	r7, sl, r7, lsl #3
1a00a02c:	e9dd 2304 	ldrd	r2, r3, [sp, #16]
1a00a030:	e9d7 0100 	ldrd	r0, r1, [r7]
1a00a034:	f7f8 f8da 	bl	1a0021ec <__aeabi_dmul>
1a00a038:	4a87      	ldr	r2, [pc, #540]	; (1a00a258 <_strtod_l+0xe08>)
1a00a03a:	ea01 0302 	and.w	r3, r1, r2
1a00a03e:	42b3      	cmp	r3, r6
1a00a040:	e9cd 0104 	strd	r0, r1, [sp, #16]
1a00a044:	d85c      	bhi.n	1a00a100 <_strtod_l+0xcb0>
1a00a046:	f1a2 7258 	sub.w	r2, r2, #56623104	; 0x3600000
1a00a04a:	4293      	cmp	r3, r2
1a00a04c:	f240 80d8 	bls.w	1a00a200 <_strtod_l+0xdb0>
1a00a050:	4b83      	ldr	r3, [pc, #524]	; (1a00a260 <_strtod_l+0xe10>)
1a00a052:	9305      	str	r3, [sp, #20]
1a00a054:	2300      	movs	r3, #0
1a00a056:	930c      	str	r3, [sp, #48]	; 0x30
1a00a058:	f04f 33ff 	mov.w	r3, #4294967295	; 0xffffffff
1a00a05c:	9304      	str	r3, [sp, #16]
1a00a05e:	f7ff bbf0 	b.w	1a009842 <_strtod_l+0x3f2>
1a00a062:	f113 0216 	adds.w	r2, r3, #22
1a00a066:	f6ff abc3 	blt.w	1a0097f0 <_strtod_l+0x3a0>
1a00a06a:	4a7e      	ldr	r2, [pc, #504]	; (1a00a264 <_strtod_l+0xe14>)
1a00a06c:	eba2 02c3 	sub.w	r2, r2, r3, lsl #3
1a00a070:	e9dd 0104 	ldrd	r0, r1, [sp, #16]
1a00a074:	e9d2 2300 	ldrd	r2, r3, [r2]
1a00a078:	f7f8 f9e2 	bl	1a002440 <__aeabi_ddiv>
1a00a07c:	4682      	mov	sl, r0
1a00a07e:	468b      	mov	fp, r1
1a00a080:	f7ff bab2 	b.w	1a0095e8 <_strtod_l+0x198>
1a00a084:	f8dd 907c 	ldr.w	r9, [sp, #124]	; 0x7c
1a00a088:	f04f 0b00 	mov.w	fp, #0
1a00a08c:	f1a6 0e30 	sub.w	lr, r6, #48	; 0x30
1a00a090:	1c59      	adds	r1, r3, #1
1a00a092:	46cc      	mov	ip, r9
1a00a094:	46d8      	mov	r8, fp
1a00a096:	465d      	mov	r5, fp
1a00a098:	2401      	movs	r4, #1
1a00a09a:	eb08 0888 	add.w	r8, r8, r8, lsl #2
1a00a09e:	eb0e 0848 	add.w	r8, lr, r8, lsl #1
1a00a0a2:	2300      	movs	r3, #0
1a00a0a4:	e75e      	b.n	1a009f64 <_strtod_l+0xb14>
1a00a0a6:	9e0d      	ldr	r6, [sp, #52]	; 0x34
1a00a0a8:	f1c4 0325 	rsb	r3, r4, #37	; 0x25
1a00a0ac:	42b3      	cmp	r3, r6
1a00a0ae:	f6ff ab9f 	blt.w	1a0097f0 <_strtod_l+0x3a0>
1a00a0b2:	4d6c      	ldr	r5, [pc, #432]	; (1a00a264 <_strtod_l+0xe14>)
1a00a0b4:	f1c4 040f 	rsb	r4, r4, #15
1a00a0b8:	eb05 01c4 	add.w	r1, r5, r4, lsl #3
1a00a0bc:	1b34      	subs	r4, r6, r4
1a00a0be:	e9dd 2304 	ldrd	r2, r3, [sp, #16]
1a00a0c2:	e9d1 0100 	ldrd	r0, r1, [r1]
1a00a0c6:	eb05 05c4 	add.w	r5, r5, r4, lsl #3
1a00a0ca:	f7f8 f88f 	bl	1a0021ec <__aeabi_dmul>
1a00a0ce:	e9d5 2300 	ldrd	r2, r3, [r5]
1a00a0d2:	f7f8 f88b 	bl	1a0021ec <__aeabi_dmul>
1a00a0d6:	4682      	mov	sl, r0
1a00a0d8:	468b      	mov	fp, r1
1a00a0da:	f7ff ba85 	b.w	1a0095e8 <_strtod_l+0x198>
1a00a0de:	ed9d 7b10 	vldr	d7, [sp, #64]	; 0x40
1a00a0e2:	ed8d 7b1a 	vstr	d7, [sp, #104]	; 0x68
1a00a0e6:	e45e      	b.n	1a0099a6 <_strtod_l+0x556>
1a00a0e8:	ed9f 7b55 	vldr	d7, [pc, #340]	; 1a00a240 <_strtod_l+0xdf0>
1a00a0ec:	ed8d 7b10 	vstr	d7, [sp, #64]	; 0x40
1a00a0f0:	e44f      	b.n	1a009992 <_strtod_l+0x542>
1a00a0f2:	f8dd a028 	ldr.w	sl, [sp, #40]	; 0x28
1a00a0f6:	f1ba 3fff 	cmp.w	sl, #4294967295	; 0xffffffff
1a00a0fa:	f47f ae4d 	bne.w	1a009d98 <_strtod_l+0x948>
1a00a0fe:	e5d0      	b.n	1a009ca2 <_strtod_l+0x852>
1a00a100:	9205      	str	r2, [sp, #20]
1a00a102:	2300      	movs	r3, #0
1a00a104:	e550      	b.n	1a009ba8 <_strtod_l+0x758>
1a00a106:	2300      	movs	r3, #0
1a00a108:	e72c      	b.n	1a009f64 <_strtod_l+0xb14>
1a00a10a:	ed9f 7b4f 	vldr	d7, [pc, #316]	; 1a00a248 <_strtod_l+0xdf8>
1a00a10e:	ed8d 7b1c 	vstr	d7, [sp, #112]	; 0x70
1a00a112:	ed9f 7b4f 	vldr	d7, [pc, #316]	; 1a00a250 <_strtod_l+0xe00>
1a00a116:	ed8d 7b10 	vstr	d7, [sp, #64]	; 0x40
1a00a11a:	e611      	b.n	1a009d40 <_strtod_l+0x8f0>
1a00a11c:	9912      	ldr	r1, [sp, #72]	; 0x48
1a00a11e:	4a52      	ldr	r2, [pc, #328]	; (1a00a268 <_strtod_l+0xe18>)
1a00a120:	465f      	mov	r7, fp
1a00a122:	f3c3 0313 	ubfx	r3, r3, #0, #20
1a00a126:	e9dd ab0a 	ldrd	sl, fp, [sp, #40]	; 0x28
1a00a12a:	2900      	cmp	r1, #0
1a00a12c:	d071      	beq.n	1a00a212 <_strtod_l+0xdc2>
1a00a12e:	4293      	cmp	r3, r2
1a00a130:	f000 80a0 	beq.w	1a00a274 <_strtod_l+0xe24>
1a00a134:	9b17      	ldr	r3, [sp, #92]	; 0x5c
1a00a136:	2b00      	cmp	r3, #0
1a00a138:	d071      	beq.n	1a00a21e <_strtod_l+0xdce>
1a00a13a:	9a0f      	ldr	r2, [sp, #60]	; 0x3c
1a00a13c:	4213      	tst	r3, r2
1a00a13e:	d010      	beq.n	1a00a162 <_strtod_l+0xd12>
1a00a140:	9b12      	ldr	r3, [sp, #72]	; 0x48
1a00a142:	9a0c      	ldr	r2, [sp, #48]	; 0x30
1a00a144:	e9dd 0104 	ldrd	r0, r1, [sp, #16]
1a00a148:	2b00      	cmp	r3, #0
1a00a14a:	f000 80b5 	beq.w	1a00a2b8 <_strtod_l+0xe68>
1a00a14e:	f7ff f963 	bl	1a009418 <sulp>
1a00a152:	4602      	mov	r2, r0
1a00a154:	460b      	mov	r3, r1
1a00a156:	4650      	mov	r0, sl
1a00a158:	4659      	mov	r1, fp
1a00a15a:	f7f7 fe91 	bl	1a001e80 <__adddf3>
1a00a15e:	4682      	mov	sl, r0
1a00a160:	468b      	mov	fp, r1
1a00a162:	9b0c      	ldr	r3, [sp, #48]	; 0x30
1a00a164:	b193      	cbz	r3, 1a00a18c <_strtod_l+0xd3c>
1a00a166:	4a41      	ldr	r2, [pc, #260]	; (1a00a26c <_strtod_l+0xe1c>)
1a00a168:	2300      	movs	r3, #0
1a00a16a:	e9cd 3218 	strd	r3, r2, [sp, #96]	; 0x60
1a00a16e:	4650      	mov	r0, sl
1a00a170:	4659      	mov	r1, fp
1a00a172:	e9dd 2318 	ldrd	r2, r3, [sp, #96]	; 0x60
1a00a176:	f7f8 f839 	bl	1a0021ec <__aeabi_dmul>
1a00a17a:	4682      	mov	sl, r0
1a00a17c:	468b      	mov	fp, r1
1a00a17e:	b929      	cbnz	r1, 1a00a18c <_strtod_l+0xd3c>
1a00a180:	b920      	cbnz	r0, 1a00a18c <_strtod_l+0xd3c>
1a00a182:	9a08      	ldr	r2, [sp, #32]
1a00a184:	9820      	ldr	r0, [sp, #128]	; 0x80
1a00a186:	2322      	movs	r3, #34	; 0x22
1a00a188:	6013      	str	r3, [r2, #0]
1a00a18a:	e56b      	b.n	1a009c64 <_strtod_l+0x814>
1a00a18c:	9820      	ldr	r0, [sp, #128]	; 0x80
1a00a18e:	e569      	b.n	1a009c64 <_strtod_l+0x814>
1a00a190:	9b12      	ldr	r3, [sp, #72]	; 0x48
1a00a192:	465f      	mov	r7, fp
1a00a194:	e9dd ab0a 	ldrd	sl, fp, [sp, #40]	; 0x28
1a00a198:	2b00      	cmp	r3, #0
1a00a19a:	d1e2      	bne.n	1a00a162 <_strtod_l+0xd12>
1a00a19c:	e9dd 1204 	ldrd	r1, r2, [sp, #16]
1a00a1a0:	2900      	cmp	r1, #0
1a00a1a2:	d1de      	bne.n	1a00a162 <_strtod_l+0xd12>
1a00a1a4:	f3c2 0313 	ubfx	r3, r2, #0, #20
1a00a1a8:	2b00      	cmp	r3, #0
1a00a1aa:	d1da      	bne.n	1a00a162 <_strtod_l+0xd12>
1a00a1ac:	f022 4300 	bic.w	r3, r2, #2147483648	; 0x80000000
1a00a1b0:	0d1b      	lsrs	r3, r3, #20
1a00a1b2:	051b      	lsls	r3, r3, #20
1a00a1b4:	f1b3 6fd6 	cmp.w	r3, #112197632	; 0x6b00000
1a00a1b8:	d9d3      	bls.n	1a00a162 <_strtod_l+0xd12>
1a00a1ba:	697b      	ldr	r3, [r7, #20]
1a00a1bc:	b913      	cbnz	r3, 1a00a1c4 <_strtod_l+0xd74>
1a00a1be:	693b      	ldr	r3, [r7, #16]
1a00a1c0:	2b01      	cmp	r3, #1
1a00a1c2:	ddce      	ble.n	1a00a162 <_strtod_l+0xd12>
1a00a1c4:	4639      	mov	r1, r7
1a00a1c6:	2201      	movs	r2, #1
1a00a1c8:	9808      	ldr	r0, [sp, #32]
1a00a1ca:	f7fe fb7d 	bl	1a0088c8 <__lshift>
1a00a1ce:	4641      	mov	r1, r8
1a00a1d0:	4607      	mov	r7, r0
1a00a1d2:	f7fe fbcf 	bl	1a008974 <__mcmp>
1a00a1d6:	2800      	cmp	r0, #0
1a00a1d8:	ddc3      	ble.n	1a00a162 <_strtod_l+0xd12>
1a00a1da:	e9dd 0104 	ldrd	r0, r1, [sp, #16]
1a00a1de:	9b0c      	ldr	r3, [sp, #48]	; 0x30
1a00a1e0:	460a      	mov	r2, r1
1a00a1e2:	2b00      	cmp	r3, #0
1a00a1e4:	f000 8097 	beq.w	1a00a316 <_strtod_l+0xec6>
1a00a1e8:	f021 4300 	bic.w	r3, r1, #2147483648	; 0x80000000
1a00a1ec:	0d1b      	lsrs	r3, r3, #20
1a00a1ee:	051b      	lsls	r3, r3, #20
1a00a1f0:	f1b3 6fd6 	cmp.w	r3, #112197632	; 0x6b00000
1a00a1f4:	f300 808f 	bgt.w	1a00a316 <_strtod_l+0xec6>
1a00a1f8:	f1b3 7f5c 	cmp.w	r3, #57671680	; 0x3700000
1a00a1fc:	dcb3      	bgt.n	1a00a166 <_strtod_l+0xd16>
1a00a1fe:	e675      	b.n	1a009eec <_strtod_l+0xa9c>
1a00a200:	f101 7354 	add.w	r3, r1, #55574528	; 0x3500000
1a00a204:	9305      	str	r3, [sp, #20]
1a00a206:	2300      	movs	r3, #0
1a00a208:	930c      	str	r3, [sp, #48]	; 0x30
1a00a20a:	f7ff bb1a 	b.w	1a009842 <_strtod_l+0x3f2>
1a00a20e:	2700      	movs	r7, #0
1a00a210:	e705      	b.n	1a00a01e <_strtod_l+0xbce>
1a00a212:	2b00      	cmp	r3, #0
1a00a214:	d18e      	bne.n	1a00a134 <_strtod_l+0xce4>
1a00a216:	9b04      	ldr	r3, [sp, #16]
1a00a218:	2b00      	cmp	r3, #0
1a00a21a:	d18b      	bne.n	1a00a134 <_strtod_l+0xce4>
1a00a21c:	e7dd      	b.n	1a00a1da <_strtod_l+0xd8a>
1a00a21e:	9b10      	ldr	r3, [sp, #64]	; 0x40
1a00a220:	9a04      	ldr	r2, [sp, #16]
1a00a222:	4213      	tst	r3, r2
1a00a224:	d09d      	beq.n	1a00a162 <_strtod_l+0xd12>
1a00a226:	e78b      	b.n	1a00a140 <_strtod_l+0xcf0>
1a00a228:	2300      	movs	r3, #0
1a00a22a:	930c      	str	r3, [sp, #48]	; 0x30
1a00a22c:	e62f      	b.n	1a009e8e <_strtod_l+0xa3e>
1a00a22e:	236a      	movs	r3, #106	; 0x6a
1a00a230:	2d00      	cmp	r5, #0
1a00a232:	930c      	str	r3, [sp, #48]	; 0x30
1a00a234:	f73f ae01 	bgt.w	1a009e3a <_strtod_l+0x9ea>
1a00a238:	e615      	b.n	1a009e66 <_strtod_l+0xa16>
1a00a23a:	bf00      	nop
1a00a23c:	f3af 8000 	nop.w
1a00a240:	00000000 	.word	0x00000000
1a00a244:	3ff00000 	.word	0x3ff00000
1a00a248:	00000000 	.word	0x00000000
1a00a24c:	bfe00000 	.word	0xbfe00000
1a00a250:	00000000 	.word	0x00000000
1a00a254:	3fe00000 	.word	0x3fe00000
1a00a258:	7ff00000 	.word	0x7ff00000
1a00a25c:	7ca00000 	.word	0x7ca00000
1a00a260:	7fefffff 	.word	0x7fefffff
1a00a264:	1a00d820 	.word	0x1a00d820
1a00a268:	000fffff 	.word	0x000fffff
1a00a26c:	39500000 	.word	0x39500000
1a00a270:	1a00d7f8 	.word	0x1a00d7f8
1a00a274:	9b0c      	ldr	r3, [sp, #48]	; 0x30
1a00a276:	9904      	ldr	r1, [sp, #16]
1a00a278:	b383      	cbz	r3, 1a00a2dc <_strtod_l+0xe8c>
1a00a27a:	4b39      	ldr	r3, [pc, #228]	; (1a00a360 <_strtod_l+0xf10>)
1a00a27c:	9a0f      	ldr	r2, [sp, #60]	; 0x3c
1a00a27e:	4013      	ands	r3, r2
1a00a280:	f1b3 6fd4 	cmp.w	r3, #111149056	; 0x6a00000
1a00a284:	d82a      	bhi.n	1a00a2dc <_strtod_l+0xe8c>
1a00a286:	0d1b      	lsrs	r3, r3, #20
1a00a288:	f1c3 036b 	rsb	r3, r3, #107	; 0x6b
1a00a28c:	f04f 32ff 	mov.w	r2, #4294967295	; 0xffffffff
1a00a290:	fa02 f303 	lsl.w	r3, r2, r3
1a00a294:	4299      	cmp	r1, r3
1a00a296:	f47f af4d 	bne.w	1a00a134 <_strtod_l+0xce4>
1a00a29a:	4b32      	ldr	r3, [pc, #200]	; (1a00a364 <_strtod_l+0xf14>)
1a00a29c:	9a0f      	ldr	r2, [sp, #60]	; 0x3c
1a00a29e:	429a      	cmp	r2, r3
1a00a2a0:	d050      	beq.n	1a00a344 <_strtod_l+0xef4>
1a00a2a2:	4b2f      	ldr	r3, [pc, #188]	; (1a00a360 <_strtod_l+0xf10>)
1a00a2a4:	9a0f      	ldr	r2, [sp, #60]	; 0x3c
1a00a2a6:	401a      	ands	r2, r3
1a00a2a8:	f502 1380 	add.w	r3, r2, #1048576	; 0x100000
1a00a2ac:	9305      	str	r3, [sp, #20]
1a00a2ae:	2300      	movs	r3, #0
1a00a2b0:	9304      	str	r3, [sp, #16]
1a00a2b2:	e9dd ab04 	ldrd	sl, fp, [sp, #16]
1a00a2b6:	e754      	b.n	1a00a162 <_strtod_l+0xd12>
1a00a2b8:	f7ff f8ae 	bl	1a009418 <sulp>
1a00a2bc:	4602      	mov	r2, r0
1a00a2be:	460b      	mov	r3, r1
1a00a2c0:	4650      	mov	r0, sl
1a00a2c2:	4659      	mov	r1, fp
1a00a2c4:	f7f7 fdda 	bl	1a001e7c <__aeabi_dsub>
1a00a2c8:	2200      	movs	r2, #0
1a00a2ca:	2300      	movs	r3, #0
1a00a2cc:	4682      	mov	sl, r0
1a00a2ce:	468b      	mov	fp, r1
1a00a2d0:	f7f8 f9f4 	bl	1a0026bc <__aeabi_dcmpeq>
1a00a2d4:	2800      	cmp	r0, #0
1a00a2d6:	f47f ae09 	bne.w	1a009eec <_strtod_l+0xa9c>
1a00a2da:	e742      	b.n	1a00a162 <_strtod_l+0xd12>
1a00a2dc:	f04f 33ff 	mov.w	r3, #4294967295	; 0xffffffff
1a00a2e0:	e7d8      	b.n	1a00a294 <_strtod_l+0xe44>
1a00a2e2:	f04f 32ff 	mov.w	r2, #4294967295	; 0xffffffff
1a00a2e6:	fa02 f303 	lsl.w	r3, r2, r3
1a00a2ea:	9a04      	ldr	r2, [sp, #16]
1a00a2ec:	401a      	ands	r2, r3
1a00a2ee:	9204      	str	r2, [sp, #16]
1a00a2f0:	e5cd      	b.n	1a009e8e <_strtod_l+0xa3e>
1a00a2f2:	a81f      	add	r0, sp, #124	; 0x7c
1a00a2f4:	aa22      	add	r2, sp, #136	; 0x88
1a00a2f6:	491c      	ldr	r1, [pc, #112]	; (1a00a368 <_strtod_l+0xf18>)
1a00a2f8:	f002 fd06 	bl	1a00cd08 <__hexnan>
1a00a2fc:	2805      	cmp	r0, #5
1a00a2fe:	f47f ac66 	bne.w	1a009bce <_strtod_l+0x77e>
1a00a302:	9b23      	ldr	r3, [sp, #140]	; 0x8c
1a00a304:	f043 43ff 	orr.w	r3, r3, #2139095040	; 0x7f800000
1a00a308:	f443 03e0 	orr.w	r3, r3, #7340032	; 0x700000
1a00a30c:	9305      	str	r3, [sp, #20]
1a00a30e:	9b22      	ldr	r3, [sp, #136]	; 0x88
1a00a310:	9304      	str	r3, [sp, #16]
1a00a312:	f7ff ba4f 	b.w	1a0097b4 <_strtod_l+0x364>
1a00a316:	4b12      	ldr	r3, [pc, #72]	; (1a00a360 <_strtod_l+0xf10>)
1a00a318:	4013      	ands	r3, r2
1a00a31a:	f5a3 1380 	sub.w	r3, r3, #1048576	; 0x100000
1a00a31e:	ea6f 5313 	mvn.w	r3, r3, lsr #20
1a00a322:	ea6f 5303 	mvn.w	r3, r3, lsl #20
1a00a326:	9305      	str	r3, [sp, #20]
1a00a328:	f04f 33ff 	mov.w	r3, #4294967295	; 0xffffffff
1a00a32c:	9304      	str	r3, [sp, #16]
1a00a32e:	e9dd ab04 	ldrd	sl, fp, [sp, #16]
1a00a332:	e716      	b.n	1a00a162 <_strtod_l+0xd12>
1a00a334:	3b20      	subs	r3, #32
1a00a336:	f04f 32ff 	mov.w	r2, #4294967295	; 0xffffffff
1a00a33a:	fa02 f303 	lsl.w	r3, r2, r3
1a00a33e:	400b      	ands	r3, r1
1a00a340:	9305      	str	r3, [sp, #20]
1a00a342:	e5a4      	b.n	1a009e8e <_strtod_l+0xa3e>
1a00a344:	3101      	adds	r1, #1
1a00a346:	d1ac      	bne.n	1a00a2a2 <_strtod_l+0xe52>
1a00a348:	e4ac      	b.n	1a009ca4 <_strtod_l+0x854>
1a00a34a:	4622      	mov	r2, r4
1a00a34c:	3401      	adds	r4, #1
1a00a34e:	e5fe      	b.n	1a009f4e <_strtod_l+0xafe>
1a00a350:	4613      	mov	r3, r2
1a00a352:	e607      	b.n	1a009f64 <_strtod_l+0xb14>
1a00a354:	e9cd 0104 	strd	r0, r1, [sp, #16]
1a00a358:	e581      	b.n	1a009e5e <_strtod_l+0xa0e>
1a00a35a:	e9cd 0104 	strd	r0, r1, [sp, #16]
1a00a35e:	e65e      	b.n	1a00a01e <_strtod_l+0xbce>
1a00a360:	7ff00000 	.word	0x7ff00000
1a00a364:	7fefffff 	.word	0x7fefffff
1a00a368:	1a00d918 	.word	0x1a00d918

1a00a36c <_strtod_r>:
1a00a36c:	4b05      	ldr	r3, [pc, #20]	; (1a00a384 <_strtod_r+0x18>)
1a00a36e:	681b      	ldr	r3, [r3, #0]
1a00a370:	b410      	push	{r4}
1a00a372:	6b5b      	ldr	r3, [r3, #52]	; 0x34
1a00a374:	4c04      	ldr	r4, [pc, #16]	; (1a00a388 <_strtod_r+0x1c>)
1a00a376:	2b00      	cmp	r3, #0
1a00a378:	bf08      	it	eq
1a00a37a:	4623      	moveq	r3, r4
1a00a37c:	f85d 4b04 	ldr.w	r4, [sp], #4
1a00a380:	f7ff b866 	b.w	1a009450 <_strtod_l>
1a00a384:	10000048 	.word	0x10000048
1a00a388:	10000478 	.word	0x10000478

1a00a38c <_strtoll_l.isra.0>:
1a00a38c:	e92d 4ff0 	stmdb	sp!, {r4, r5, r6, r7, r8, r9, sl, fp, lr}
1a00a390:	b089      	sub	sp, #36	; 0x24
1a00a392:	e9cd 1006 	strd	r1, r0, [sp, #24]
1a00a396:	9203      	str	r2, [sp, #12]
1a00a398:	461f      	mov	r7, r3
1a00a39a:	468a      	mov	sl, r1
1a00a39c:	e000      	b.n	1a00a3a0 <_strtoll_l.isra.0+0x14>
1a00a39e:	46aa      	mov	sl, r5
1a00a3a0:	4655      	mov	r5, sl
1a00a3a2:	9812      	ldr	r0, [sp, #72]	; 0x48
1a00a3a4:	f815 4b01 	ldrb.w	r4, [r5], #1
1a00a3a8:	f7fd fc26 	bl	1a007bf8 <__locale_ctype_ptr_l>
1a00a3ac:	4420      	add	r0, r4
1a00a3ae:	7846      	ldrb	r6, [r0, #1]
1a00a3b0:	f016 0608 	ands.w	r6, r6, #8
1a00a3b4:	d1f3      	bne.n	1a00a39e <_strtoll_l.isra.0+0x12>
1a00a3b6:	2c2d      	cmp	r4, #45	; 0x2d
1a00a3b8:	f000 8089 	beq.w	1a00a4ce <_strtoll_l.isra.0+0x142>
1a00a3bc:	2c2b      	cmp	r4, #43	; 0x2b
1a00a3be:	bf04      	itt	eq
1a00a3c0:	f89a 4001 	ldrbeq.w	r4, [sl, #1]
1a00a3c4:	f10a 0502 	addeq.w	r5, sl, #2
1a00a3c8:	2f00      	cmp	r7, #0
1a00a3ca:	d046      	beq.n	1a00a45a <_strtoll_l.isra.0+0xce>
1a00a3cc:	2f10      	cmp	r7, #16
1a00a3ce:	f000 8084 	beq.w	1a00a4da <_strtoll_l.isra.0+0x14e>
1a00a3d2:	46ba      	mov	sl, r7
1a00a3d4:	ea4f 7be7 	mov.w	fp, r7, asr #31
1a00a3d8:	2e00      	cmp	r6, #0
1a00a3da:	d047      	beq.n	1a00a46c <_strtoll_l.isra.0+0xe0>
1a00a3dc:	2100      	movs	r1, #0
1a00a3de:	f04f 4300 	mov.w	r3, #2147483648	; 0x80000000
1a00a3e2:	e9cd 1304 	strd	r1, r3, [sp, #16]
1a00a3e6:	4652      	mov	r2, sl
1a00a3e8:	465b      	mov	r3, fp
1a00a3ea:	e9dd 0104 	ldrd	r0, r1, [sp, #16]
1a00a3ee:	f7f8 f9e7 	bl	1a0027c0 <__aeabi_uldivmod>
1a00a3f2:	4680      	mov	r8, r0
1a00a3f4:	4689      	mov	r9, r1
1a00a3f6:	f04f 0c00 	mov.w	ip, #0
1a00a3fa:	2000      	movs	r0, #0
1a00a3fc:	2100      	movs	r1, #0
1a00a3fe:	e9cd 8900 	strd	r8, r9, [sp]
1a00a402:	e012      	b.n	1a00a42a <_strtoll_l.isra.0+0x9e>
1a00a404:	d054      	beq.n	1a00a4b0 <_strtoll_l.isra.0+0x124>
1a00a406:	4689      	mov	r9, r1
1a00a408:	fb00 f40b 	mul.w	r4, r0, fp
1a00a40c:	fb0a 4409 	mla	r4, sl, r9, r4
1a00a410:	fba0 010a 	umull	r0, r1, r0, sl
1a00a414:	4421      	add	r1, r4
1a00a416:	eb10 0803 	adds.w	r8, r0, r3
1a00a41a:	eb41 79e3 	adc.w	r9, r1, r3, asr #31
1a00a41e:	4640      	mov	r0, r8
1a00a420:	4649      	mov	r1, r9
1a00a422:	f04f 0c01 	mov.w	ip, #1
1a00a426:	f815 4b01 	ldrb.w	r4, [r5], #1
1a00a42a:	f1a4 0330 	sub.w	r3, r4, #48	; 0x30
1a00a42e:	2b09      	cmp	r3, #9
1a00a430:	d905      	bls.n	1a00a43e <_strtoll_l.isra.0+0xb2>
1a00a432:	f1a4 0341 	sub.w	r3, r4, #65	; 0x41
1a00a436:	2b19      	cmp	r3, #25
1a00a438:	d81f      	bhi.n	1a00a47a <_strtoll_l.isra.0+0xee>
1a00a43a:	f1a4 0337 	sub.w	r3, r4, #55	; 0x37
1a00a43e:	429f      	cmp	r7, r3
1a00a440:	dd23      	ble.n	1a00a48a <_strtoll_l.isra.0+0xfe>
1a00a442:	f1bc 3fff 	cmp.w	ip, #4294967295	; 0xffffffff
1a00a446:	d0ee      	beq.n	1a00a426 <_strtoll_l.isra.0+0x9a>
1a00a448:	e9dd 8900 	ldrd	r8, r9, [sp]
1a00a44c:	4589      	cmp	r9, r1
1a00a44e:	bf08      	it	eq
1a00a450:	4580      	cmpeq	r8, r0
1a00a452:	d2d7      	bcs.n	1a00a404 <_strtoll_l.isra.0+0x78>
1a00a454:	f04f 3cff 	mov.w	ip, #4294967295	; 0xffffffff
1a00a458:	e7e5      	b.n	1a00a426 <_strtoll_l.isra.0+0x9a>
1a00a45a:	2c30      	cmp	r4, #48	; 0x30
1a00a45c:	d044      	beq.n	1a00a4e8 <_strtoll_l.isra.0+0x15c>
1a00a45e:	f04f 0a0a 	mov.w	sl, #10
1a00a462:	f04f 0b00 	mov.w	fp, #0
1a00a466:	270a      	movs	r7, #10
1a00a468:	2e00      	cmp	r6, #0
1a00a46a:	d1b7      	bne.n	1a00a3dc <_strtoll_l.isra.0+0x50>
1a00a46c:	f04f 32ff 	mov.w	r2, #4294967295	; 0xffffffff
1a00a470:	f06f 4300 	mvn.w	r3, #2147483648	; 0x80000000
1a00a474:	e9cd 2304 	strd	r2, r3, [sp, #16]
1a00a478:	e7b5      	b.n	1a00a3e6 <_strtoll_l.isra.0+0x5a>
1a00a47a:	f1a4 0361 	sub.w	r3, r4, #97	; 0x61
1a00a47e:	2b19      	cmp	r3, #25
1a00a480:	d803      	bhi.n	1a00a48a <_strtoll_l.isra.0+0xfe>
1a00a482:	f1a4 0357 	sub.w	r3, r4, #87	; 0x57
1a00a486:	429f      	cmp	r7, r3
1a00a488:	dcdb      	bgt.n	1a00a442 <_strtoll_l.isra.0+0xb6>
1a00a48a:	f1bc 3fff 	cmp.w	ip, #4294967295	; 0xffffffff
1a00a48e:	d014      	beq.n	1a00a4ba <_strtoll_l.isra.0+0x12e>
1a00a490:	b116      	cbz	r6, 1a00a498 <_strtoll_l.isra.0+0x10c>
1a00a492:	4240      	negs	r0, r0
1a00a494:	eb61 0141 	sbc.w	r1, r1, r1, lsl #1
1a00a498:	9b03      	ldr	r3, [sp, #12]
1a00a49a:	b133      	cbz	r3, 1a00a4aa <_strtoll_l.isra.0+0x11e>
1a00a49c:	f1bc 0f00 	cmp.w	ip, #0
1a00a4a0:	d12f      	bne.n	1a00a502 <_strtoll_l.isra.0+0x176>
1a00a4a2:	9b03      	ldr	r3, [sp, #12]
1a00a4a4:	461a      	mov	r2, r3
1a00a4a6:	9b06      	ldr	r3, [sp, #24]
1a00a4a8:	6013      	str	r3, [r2, #0]
1a00a4aa:	b009      	add	sp, #36	; 0x24
1a00a4ac:	e8bd 8ff0 	ldmia.w	sp!, {r4, r5, r6, r7, r8, r9, sl, fp, pc}
1a00a4b0:	429a      	cmp	r2, r3
1a00a4b2:	daa8      	bge.n	1a00a406 <_strtoll_l.isra.0+0x7a>
1a00a4b4:	f04f 3cff 	mov.w	ip, #4294967295	; 0xffffffff
1a00a4b8:	e7b5      	b.n	1a00a426 <_strtoll_l.isra.0+0x9a>
1a00a4ba:	9a07      	ldr	r2, [sp, #28]
1a00a4bc:	2322      	movs	r3, #34	; 0x22
1a00a4be:	6013      	str	r3, [r2, #0]
1a00a4c0:	9b03      	ldr	r3, [sp, #12]
1a00a4c2:	b30b      	cbz	r3, 1a00a508 <_strtoll_l.isra.0+0x17c>
1a00a4c4:	1e6b      	subs	r3, r5, #1
1a00a4c6:	e9dd 0104 	ldrd	r0, r1, [sp, #16]
1a00a4ca:	9306      	str	r3, [sp, #24]
1a00a4cc:	e7e9      	b.n	1a00a4a2 <_strtoll_l.isra.0+0x116>
1a00a4ce:	f10a 0502 	add.w	r5, sl, #2
1a00a4d2:	f89a 4001 	ldrb.w	r4, [sl, #1]
1a00a4d6:	2601      	movs	r6, #1
1a00a4d8:	e776      	b.n	1a00a3c8 <_strtoll_l.isra.0+0x3c>
1a00a4da:	2c30      	cmp	r4, #48	; 0x30
1a00a4dc:	d017      	beq.n	1a00a50e <_strtoll_l.isra.0+0x182>
1a00a4de:	f04f 0a10 	mov.w	sl, #16
1a00a4e2:	f04f 0b00 	mov.w	fp, #0
1a00a4e6:	e777      	b.n	1a00a3d8 <_strtoll_l.isra.0+0x4c>
1a00a4e8:	782b      	ldrb	r3, [r5, #0]
1a00a4ea:	f003 03df 	and.w	r3, r3, #223	; 0xdf
1a00a4ee:	2b58      	cmp	r3, #88	; 0x58
1a00a4f0:	d113      	bne.n	1a00a51a <_strtoll_l.isra.0+0x18e>
1a00a4f2:	786c      	ldrb	r4, [r5, #1]
1a00a4f4:	f04f 0a10 	mov.w	sl, #16
1a00a4f8:	f04f 0b00 	mov.w	fp, #0
1a00a4fc:	3502      	adds	r5, #2
1a00a4fe:	2710      	movs	r7, #16
1a00a500:	e76a      	b.n	1a00a3d8 <_strtoll_l.isra.0+0x4c>
1a00a502:	e9cd 0104 	strd	r0, r1, [sp, #16]
1a00a506:	e7dd      	b.n	1a00a4c4 <_strtoll_l.isra.0+0x138>
1a00a508:	e9dd 0104 	ldrd	r0, r1, [sp, #16]
1a00a50c:	e7cd      	b.n	1a00a4aa <_strtoll_l.isra.0+0x11e>
1a00a50e:	782b      	ldrb	r3, [r5, #0]
1a00a510:	f003 03df 	and.w	r3, r3, #223	; 0xdf
1a00a514:	2b58      	cmp	r3, #88	; 0x58
1a00a516:	d1e2      	bne.n	1a00a4de <_strtoll_l.isra.0+0x152>
1a00a518:	e7eb      	b.n	1a00a4f2 <_strtoll_l.isra.0+0x166>
1a00a51a:	f04f 0a08 	mov.w	sl, #8
1a00a51e:	f04f 0b00 	mov.w	fp, #0
1a00a522:	2708      	movs	r7, #8
1a00a524:	e758      	b.n	1a00a3d8 <_strtoll_l.isra.0+0x4c>
1a00a526:	bf00      	nop

1a00a528 <_strtoll_r>:
1a00a528:	b530      	push	{r4, r5, lr}
1a00a52a:	4c06      	ldr	r4, [pc, #24]	; (1a00a544 <_strtoll_r+0x1c>)
1a00a52c:	4d06      	ldr	r5, [pc, #24]	; (1a00a548 <_strtoll_r+0x20>)
1a00a52e:	6824      	ldr	r4, [r4, #0]
1a00a530:	6b64      	ldr	r4, [r4, #52]	; 0x34
1a00a532:	b083      	sub	sp, #12
1a00a534:	2c00      	cmp	r4, #0
1a00a536:	bf08      	it	eq
1a00a538:	462c      	moveq	r4, r5
1a00a53a:	9400      	str	r4, [sp, #0]
1a00a53c:	f7ff ff26 	bl	1a00a38c <_strtoll_l.isra.0>
1a00a540:	b003      	add	sp, #12
1a00a542:	bd30      	pop	{r4, r5, pc}
1a00a544:	10000048 	.word	0x10000048
1a00a548:	10000478 	.word	0x10000478

1a00a54c <_strtoul_l.isra.0>:
1a00a54c:	e92d 47f0 	stmdb	sp!, {r4, r5, r6, r7, r8, r9, sl, lr}
1a00a550:	460d      	mov	r5, r1
1a00a552:	4607      	mov	r7, r0
1a00a554:	4616      	mov	r6, r2
1a00a556:	4698      	mov	r8, r3
1a00a558:	468a      	mov	sl, r1
1a00a55a:	e000      	b.n	1a00a55e <_strtoul_l.isra.0+0x12>
1a00a55c:	46a2      	mov	sl, r4
1a00a55e:	4654      	mov	r4, sl
1a00a560:	9808      	ldr	r0, [sp, #32]
1a00a562:	f814 9b01 	ldrb.w	r9, [r4], #1
1a00a566:	f7fd fb47 	bl	1a007bf8 <__locale_ctype_ptr_l>
1a00a56a:	4448      	add	r0, r9
1a00a56c:	7840      	ldrb	r0, [r0, #1]
1a00a56e:	f010 0008 	ands.w	r0, r0, #8
1a00a572:	d1f3      	bne.n	1a00a55c <_strtoul_l.isra.0+0x10>
1a00a574:	f1b9 0f2d 	cmp.w	r9, #45	; 0x2d
1a00a578:	d05c      	beq.n	1a00a634 <_strtoul_l.isra.0+0xe8>
1a00a57a:	f1b9 0f2b 	cmp.w	r9, #43	; 0x2b
1a00a57e:	bf0a      	itet	eq
1a00a580:	f89a 1001 	ldrbeq.w	r1, [sl, #1]
1a00a584:	4649      	movne	r1, r9
1a00a586:	f10a 0402 	addeq.w	r4, sl, #2
1a00a58a:	f1b8 0f00 	cmp.w	r8, #0
1a00a58e:	d00c      	beq.n	1a00a5aa <_strtoul_l.isra.0+0x5e>
1a00a590:	f1b8 0f10 	cmp.w	r8, #16
1a00a594:	d054      	beq.n	1a00a640 <_strtoul_l.isra.0+0xf4>
1a00a596:	f04f 3eff 	mov.w	lr, #4294967295	; 0xffffffff
1a00a59a:	fbbe fef8 	udiv	lr, lr, r8
1a00a59e:	fb08 fa0e 	mul.w	sl, r8, lr
1a00a5a2:	ea6f 0a0a 	mvn.w	sl, sl
1a00a5a6:	46c1      	mov	r9, r8
1a00a5a8:	e008      	b.n	1a00a5bc <_strtoul_l.isra.0+0x70>
1a00a5aa:	2930      	cmp	r1, #48	; 0x30
1a00a5ac:	d050      	beq.n	1a00a650 <_strtoul_l.isra.0+0x104>
1a00a5ae:	f04f 080a 	mov.w	r8, #10
1a00a5b2:	f8df e0e0 	ldr.w	lr, [pc, #224]	; 1a00a694 <_strtoul_l.isra.0+0x148>
1a00a5b6:	46c1      	mov	r9, r8
1a00a5b8:	f04f 0a05 	mov.w	sl, #5
1a00a5bc:	2300      	movs	r3, #0
1a00a5be:	469c      	mov	ip, r3
1a00a5c0:	e007      	b.n	1a00a5d2 <_strtoul_l.isra.0+0x86>
1a00a5c2:	45f4      	cmp	ip, lr
1a00a5c4:	d813      	bhi.n	1a00a5ee <_strtoul_l.isra.0+0xa2>
1a00a5c6:	d028      	beq.n	1a00a61a <_strtoul_l.isra.0+0xce>
1a00a5c8:	fb09 2c0c 	mla	ip, r9, ip, r2
1a00a5cc:	2301      	movs	r3, #1
1a00a5ce:	f814 1b01 	ldrb.w	r1, [r4], #1
1a00a5d2:	f1a1 0230 	sub.w	r2, r1, #48	; 0x30
1a00a5d6:	2a09      	cmp	r2, #9
1a00a5d8:	d905      	bls.n	1a00a5e6 <_strtoul_l.isra.0+0x9a>
1a00a5da:	f1a1 0241 	sub.w	r2, r1, #65	; 0x41
1a00a5de:	2a19      	cmp	r2, #25
1a00a5e0:	d808      	bhi.n	1a00a5f4 <_strtoul_l.isra.0+0xa8>
1a00a5e2:	f1a1 0237 	sub.w	r2, r1, #55	; 0x37
1a00a5e6:	4590      	cmp	r8, r2
1a00a5e8:	dd0c      	ble.n	1a00a604 <_strtoul_l.isra.0+0xb8>
1a00a5ea:	2b00      	cmp	r3, #0
1a00a5ec:	dae9      	bge.n	1a00a5c2 <_strtoul_l.isra.0+0x76>
1a00a5ee:	f04f 33ff 	mov.w	r3, #4294967295	; 0xffffffff
1a00a5f2:	e7ec      	b.n	1a00a5ce <_strtoul_l.isra.0+0x82>
1a00a5f4:	f1a1 0261 	sub.w	r2, r1, #97	; 0x61
1a00a5f8:	2a19      	cmp	r2, #25
1a00a5fa:	d803      	bhi.n	1a00a604 <_strtoul_l.isra.0+0xb8>
1a00a5fc:	f1a1 0257 	sub.w	r2, r1, #87	; 0x57
1a00a600:	4590      	cmp	r8, r2
1a00a602:	dcf2      	bgt.n	1a00a5ea <_strtoul_l.isra.0+0x9e>
1a00a604:	2b00      	cmp	r3, #0
1a00a606:	db0d      	blt.n	1a00a624 <_strtoul_l.isra.0+0xd8>
1a00a608:	b108      	cbz	r0, 1a00a60e <_strtoul_l.isra.0+0xc2>
1a00a60a:	f1cc 0c00 	rsb	ip, ip, #0
1a00a60e:	b10e      	cbz	r6, 1a00a614 <_strtoul_l.isra.0+0xc8>
1a00a610:	b973      	cbnz	r3, 1a00a630 <_strtoul_l.isra.0+0xe4>
1a00a612:	6035      	str	r5, [r6, #0]
1a00a614:	4660      	mov	r0, ip
1a00a616:	e8bd 87f0 	ldmia.w	sp!, {r4, r5, r6, r7, r8, r9, sl, pc}
1a00a61a:	4552      	cmp	r2, sl
1a00a61c:	ddd4      	ble.n	1a00a5c8 <_strtoul_l.isra.0+0x7c>
1a00a61e:	f04f 33ff 	mov.w	r3, #4294967295	; 0xffffffff
1a00a622:	e7d4      	b.n	1a00a5ce <_strtoul_l.isra.0+0x82>
1a00a624:	2322      	movs	r3, #34	; 0x22
1a00a626:	603b      	str	r3, [r7, #0]
1a00a628:	f04f 3cff 	mov.w	ip, #4294967295	; 0xffffffff
1a00a62c:	2e00      	cmp	r6, #0
1a00a62e:	d0f1      	beq.n	1a00a614 <_strtoul_l.isra.0+0xc8>
1a00a630:	1e65      	subs	r5, r4, #1
1a00a632:	e7ee      	b.n	1a00a612 <_strtoul_l.isra.0+0xc6>
1a00a634:	f10a 0402 	add.w	r4, sl, #2
1a00a638:	f89a 1001 	ldrb.w	r1, [sl, #1]
1a00a63c:	2001      	movs	r0, #1
1a00a63e:	e7a4      	b.n	1a00a58a <_strtoul_l.isra.0+0x3e>
1a00a640:	2930      	cmp	r1, #48	; 0x30
1a00a642:	d012      	beq.n	1a00a66a <_strtoul_l.isra.0+0x11e>
1a00a644:	f04f 0a0f 	mov.w	sl, #15
1a00a648:	f06f 4e70 	mvn.w	lr, #4026531840	; 0xf0000000
1a00a64c:	46c1      	mov	r9, r8
1a00a64e:	e7b5      	b.n	1a00a5bc <_strtoul_l.isra.0+0x70>
1a00a650:	7823      	ldrb	r3, [r4, #0]
1a00a652:	f003 03df 	and.w	r3, r3, #223	; 0xdf
1a00a656:	2b58      	cmp	r3, #88	; 0x58
1a00a658:	d00c      	beq.n	1a00a674 <_strtoul_l.isra.0+0x128>
1a00a65a:	f04f 0808 	mov.w	r8, #8
1a00a65e:	46c1      	mov	r9, r8
1a00a660:	f04f 0a07 	mov.w	sl, #7
1a00a664:	f06f 4e60 	mvn.w	lr, #3758096384	; 0xe0000000
1a00a668:	e7a8      	b.n	1a00a5bc <_strtoul_l.isra.0+0x70>
1a00a66a:	7823      	ldrb	r3, [r4, #0]
1a00a66c:	f003 03df 	and.w	r3, r3, #223	; 0xdf
1a00a670:	2b58      	cmp	r3, #88	; 0x58
1a00a672:	d109      	bne.n	1a00a688 <_strtoul_l.isra.0+0x13c>
1a00a674:	f04f 0910 	mov.w	r9, #16
1a00a678:	7861      	ldrb	r1, [r4, #1]
1a00a67a:	46c8      	mov	r8, r9
1a00a67c:	f04f 0a0f 	mov.w	sl, #15
1a00a680:	3402      	adds	r4, #2
1a00a682:	f06f 4e70 	mvn.w	lr, #4026531840	; 0xf0000000
1a00a686:	e799      	b.n	1a00a5bc <_strtoul_l.isra.0+0x70>
1a00a688:	46c1      	mov	r9, r8
1a00a68a:	f06f 4e70 	mvn.w	lr, #4026531840	; 0xf0000000
1a00a68e:	f04f 0a0f 	mov.w	sl, #15
1a00a692:	e793      	b.n	1a00a5bc <_strtoul_l.isra.0+0x70>
1a00a694:	19999999 	.word	0x19999999

1a00a698 <_strtoul_r>:
1a00a698:	b530      	push	{r4, r5, lr}
1a00a69a:	4c06      	ldr	r4, [pc, #24]	; (1a00a6b4 <_strtoul_r+0x1c>)
1a00a69c:	4d06      	ldr	r5, [pc, #24]	; (1a00a6b8 <_strtoul_r+0x20>)
1a00a69e:	6824      	ldr	r4, [r4, #0]
1a00a6a0:	6b64      	ldr	r4, [r4, #52]	; 0x34
1a00a6a2:	b083      	sub	sp, #12
1a00a6a4:	2c00      	cmp	r4, #0
1a00a6a6:	bf08      	it	eq
1a00a6a8:	462c      	moveq	r4, r5
1a00a6aa:	9400      	str	r4, [sp, #0]
1a00a6ac:	f7ff ff4e 	bl	1a00a54c <_strtoul_l.isra.0>
1a00a6b0:	b003      	add	sp, #12
1a00a6b2:	bd30      	pop	{r4, r5, pc}
1a00a6b4:	10000048 	.word	0x10000048
1a00a6b8:	10000478 	.word	0x10000478

1a00a6bc <_strtoull_l.isra.0>:
1a00a6bc:	e92d 4ff0 	stmdb	sp!, {r4, r5, r6, r7, r8, r9, sl, fp, lr}
1a00a6c0:	b087      	sub	sp, #28
1a00a6c2:	460f      	mov	r7, r1
1a00a6c4:	9005      	str	r0, [sp, #20]
1a00a6c6:	9203      	str	r2, [sp, #12]
1a00a6c8:	461e      	mov	r6, r3
1a00a6ca:	4688      	mov	r8, r1
1a00a6cc:	e000      	b.n	1a00a6d0 <_strtoull_l.isra.0+0x14>
1a00a6ce:	46a8      	mov	r8, r5
1a00a6d0:	4645      	mov	r5, r8
1a00a6d2:	9810      	ldr	r0, [sp, #64]	; 0x40
1a00a6d4:	f815 4b01 	ldrb.w	r4, [r5], #1
1a00a6d8:	f7fd fa8e 	bl	1a007bf8 <__locale_ctype_ptr_l>
1a00a6dc:	4420      	add	r0, r4
1a00a6de:	f890 b001 	ldrb.w	fp, [r0, #1]
1a00a6e2:	f01b 0b08 	ands.w	fp, fp, #8
1a00a6e6:	d1f2      	bne.n	1a00a6ce <_strtoull_l.isra.0+0x12>
1a00a6e8:	2c2d      	cmp	r4, #45	; 0x2d
1a00a6ea:	f000 8091 	beq.w	1a00a810 <_strtoull_l.isra.0+0x154>
1a00a6ee:	2c2b      	cmp	r4, #43	; 0x2b
1a00a6f0:	bf09      	itett	eq
1a00a6f2:	f898 4001 	ldrbeq.w	r4, [r8, #1]
1a00a6f6:	f8cd b010 	strne.w	fp, [sp, #16]
1a00a6fa:	f8cd b010 	streq.w	fp, [sp, #16]
1a00a6fe:	f108 0502 	addeq.w	r5, r8, #2
1a00a702:	b1c6      	cbz	r6, 1a00a736 <_strtoull_l.isra.0+0x7a>
1a00a704:	2e10      	cmp	r6, #16
1a00a706:	f000 808a 	beq.w	1a00a81e <_strtoull_l.isra.0+0x162>
1a00a70a:	46b2      	mov	sl, r6
1a00a70c:	ea4f 7be6 	mov.w	fp, r6, asr #31
1a00a710:	4652      	mov	r2, sl
1a00a712:	465b      	mov	r3, fp
1a00a714:	f04f 30ff 	mov.w	r0, #4294967295	; 0xffffffff
1a00a718:	f04f 31ff 	mov.w	r1, #4294967295	; 0xffffffff
1a00a71c:	f7f8 f850 	bl	1a0027c0 <__aeabi_uldivmod>
1a00a720:	4652      	mov	r2, sl
1a00a722:	4680      	mov	r8, r0
1a00a724:	4689      	mov	r9, r1
1a00a726:	465b      	mov	r3, fp
1a00a728:	f04f 30ff 	mov.w	r0, #4294967295	; 0xffffffff
1a00a72c:	f04f 31ff 	mov.w	r1, #4294967295	; 0xffffffff
1a00a730:	f7f8 f846 	bl	1a0027c0 <__aeabi_uldivmod>
1a00a734:	e00b      	b.n	1a00a74e <_strtoull_l.isra.0+0x92>
1a00a736:	2c30      	cmp	r4, #48	; 0x30
1a00a738:	d07d      	beq.n	1a00a836 <_strtoull_l.isra.0+0x17a>
1a00a73a:	f8df 9148 	ldr.w	r9, [pc, #328]	; 1a00a884 <_strtoull_l.isra.0+0x1c8>
1a00a73e:	2205      	movs	r2, #5
1a00a740:	f04f 3899 	mov.w	r8, #2576980377	; 0x99999999
1a00a744:	f04f 0a0a 	mov.w	sl, #10
1a00a748:	f04f 0b00 	mov.w	fp, #0
1a00a74c:	260a      	movs	r6, #10
1a00a74e:	f04f 0c00 	mov.w	ip, #0
1a00a752:	2000      	movs	r0, #0
1a00a754:	2100      	movs	r1, #0
1a00a756:	e9cd ab00 	strd	sl, fp, [sp]
1a00a75a:	e01c      	b.n	1a00a796 <_strtoull_l.isra.0+0xda>
1a00a75c:	4589      	cmp	r9, r1
1a00a75e:	bf08      	it	eq
1a00a760:	4580      	cmpeq	r8, r0
1a00a762:	d327      	bcc.n	1a00a7b4 <_strtoull_l.isra.0+0xf8>
1a00a764:	4549      	cmp	r1, r9
1a00a766:	bf08      	it	eq
1a00a768:	4540      	cmpeq	r0, r8
1a00a76a:	d040      	beq.n	1a00a7ee <_strtoull_l.isra.0+0x132>
1a00a76c:	4682      	mov	sl, r0
1a00a76e:	9801      	ldr	r0, [sp, #4]
1a00a770:	fb0a f400 	mul.w	r4, sl, r0
1a00a774:	9800      	ldr	r0, [sp, #0]
1a00a776:	468b      	mov	fp, r1
1a00a778:	fb00 440b 	mla	r4, r0, fp, r4
1a00a77c:	fbaa 0100 	umull	r0, r1, sl, r0
1a00a780:	4421      	add	r1, r4
1a00a782:	eb10 0a03 	adds.w	sl, r0, r3
1a00a786:	eb41 7be3 	adc.w	fp, r1, r3, asr #31
1a00a78a:	4650      	mov	r0, sl
1a00a78c:	4659      	mov	r1, fp
1a00a78e:	f04f 0c01 	mov.w	ip, #1
1a00a792:	f815 4b01 	ldrb.w	r4, [r5], #1
1a00a796:	f1a4 0330 	sub.w	r3, r4, #48	; 0x30
1a00a79a:	2b09      	cmp	r3, #9
1a00a79c:	d905      	bls.n	1a00a7aa <_strtoull_l.isra.0+0xee>
1a00a79e:	f1a4 0341 	sub.w	r3, r4, #65	; 0x41
1a00a7a2:	2b19      	cmp	r3, #25
1a00a7a4:	d809      	bhi.n	1a00a7ba <_strtoull_l.isra.0+0xfe>
1a00a7a6:	f1a4 0337 	sub.w	r3, r4, #55	; 0x37
1a00a7aa:	429e      	cmp	r6, r3
1a00a7ac:	dd0d      	ble.n	1a00a7ca <_strtoull_l.isra.0+0x10e>
1a00a7ae:	f1bc 0f00 	cmp.w	ip, #0
1a00a7b2:	dad3      	bge.n	1a00a75c <_strtoull_l.isra.0+0xa0>
1a00a7b4:	f04f 3cff 	mov.w	ip, #4294967295	; 0xffffffff
1a00a7b8:	e7eb      	b.n	1a00a792 <_strtoull_l.isra.0+0xd6>
1a00a7ba:	f1a4 0361 	sub.w	r3, r4, #97	; 0x61
1a00a7be:	2b19      	cmp	r3, #25
1a00a7c0:	d803      	bhi.n	1a00a7ca <_strtoull_l.isra.0+0x10e>
1a00a7c2:	f1a4 0357 	sub.w	r3, r4, #87	; 0x57
1a00a7c6:	429e      	cmp	r6, r3
1a00a7c8:	dcf1      	bgt.n	1a00a7ae <_strtoull_l.isra.0+0xf2>
1a00a7ca:	f1bc 0f00 	cmp.w	ip, #0
1a00a7ce:	db13      	blt.n	1a00a7f8 <_strtoull_l.isra.0+0x13c>
1a00a7d0:	9b04      	ldr	r3, [sp, #16]
1a00a7d2:	b113      	cbz	r3, 1a00a7da <_strtoull_l.isra.0+0x11e>
1a00a7d4:	4240      	negs	r0, r0
1a00a7d6:	eb61 0141 	sbc.w	r1, r1, r1, lsl #1
1a00a7da:	9b03      	ldr	r3, [sp, #12]
1a00a7dc:	b123      	cbz	r3, 1a00a7e8 <_strtoull_l.isra.0+0x12c>
1a00a7de:	f1bc 0f00 	cmp.w	ip, #0
1a00a7e2:	d113      	bne.n	1a00a80c <_strtoull_l.isra.0+0x150>
1a00a7e4:	9b03      	ldr	r3, [sp, #12]
1a00a7e6:	601f      	str	r7, [r3, #0]
1a00a7e8:	b007      	add	sp, #28
1a00a7ea:	e8bd 8ff0 	ldmia.w	sp!, {r4, r5, r6, r7, r8, r9, sl, fp, pc}
1a00a7ee:	4293      	cmp	r3, r2
1a00a7f0:	ddbc      	ble.n	1a00a76c <_strtoull_l.isra.0+0xb0>
1a00a7f2:	f04f 3cff 	mov.w	ip, #4294967295	; 0xffffffff
1a00a7f6:	e7cc      	b.n	1a00a792 <_strtoull_l.isra.0+0xd6>
1a00a7f8:	9a05      	ldr	r2, [sp, #20]
1a00a7fa:	2322      	movs	r3, #34	; 0x22
1a00a7fc:	6013      	str	r3, [r2, #0]
1a00a7fe:	9b03      	ldr	r3, [sp, #12]
1a00a800:	f04f 30ff 	mov.w	r0, #4294967295	; 0xffffffff
1a00a804:	f04f 31ff 	mov.w	r1, #4294967295	; 0xffffffff
1a00a808:	2b00      	cmp	r3, #0
1a00a80a:	d0ed      	beq.n	1a00a7e8 <_strtoull_l.isra.0+0x12c>
1a00a80c:	1e6f      	subs	r7, r5, #1
1a00a80e:	e7e9      	b.n	1a00a7e4 <_strtoull_l.isra.0+0x128>
1a00a810:	2301      	movs	r3, #1
1a00a812:	f108 0502 	add.w	r5, r8, #2
1a00a816:	f898 4001 	ldrb.w	r4, [r8, #1]
1a00a81a:	9304      	str	r3, [sp, #16]
1a00a81c:	e771      	b.n	1a00a702 <_strtoull_l.isra.0+0x46>
1a00a81e:	2c30      	cmp	r4, #48	; 0x30
1a00a820:	d019      	beq.n	1a00a856 <_strtoull_l.isra.0+0x19a>
1a00a822:	220f      	movs	r2, #15
1a00a824:	f04f 38ff 	mov.w	r8, #4294967295	; 0xffffffff
1a00a828:	f06f 4970 	mvn.w	r9, #4026531840	; 0xf0000000
1a00a82c:	f04f 0a10 	mov.w	sl, #16
1a00a830:	f04f 0b00 	mov.w	fp, #0
1a00a834:	e78b      	b.n	1a00a74e <_strtoull_l.isra.0+0x92>
1a00a836:	782b      	ldrb	r3, [r5, #0]
1a00a838:	f003 03df 	and.w	r3, r3, #223	; 0xdf
1a00a83c:	2b58      	cmp	r3, #88	; 0x58
1a00a83e:	d00f      	beq.n	1a00a860 <_strtoull_l.isra.0+0x1a4>
1a00a840:	2207      	movs	r2, #7
1a00a842:	f04f 38ff 	mov.w	r8, #4294967295	; 0xffffffff
1a00a846:	f06f 4960 	mvn.w	r9, #3758096384	; 0xe0000000
1a00a84a:	f04f 0a08 	mov.w	sl, #8
1a00a84e:	f04f 0b00 	mov.w	fp, #0
1a00a852:	2608      	movs	r6, #8
1a00a854:	e77b      	b.n	1a00a74e <_strtoull_l.isra.0+0x92>
1a00a856:	782b      	ldrb	r3, [r5, #0]
1a00a858:	f003 03df 	and.w	r3, r3, #223	; 0xdf
1a00a85c:	2b58      	cmp	r3, #88	; 0x58
1a00a85e:	d10c      	bne.n	1a00a87a <_strtoull_l.isra.0+0x1be>
1a00a860:	786c      	ldrb	r4, [r5, #1]
1a00a862:	220f      	movs	r2, #15
1a00a864:	3502      	adds	r5, #2
1a00a866:	f04f 38ff 	mov.w	r8, #4294967295	; 0xffffffff
1a00a86a:	f06f 4970 	mvn.w	r9, #4026531840	; 0xf0000000
1a00a86e:	f04f 0a10 	mov.w	sl, #16
1a00a872:	f04f 0b00 	mov.w	fp, #0
1a00a876:	2610      	movs	r6, #16
1a00a878:	e769      	b.n	1a00a74e <_strtoull_l.isra.0+0x92>
1a00a87a:	f04f 0a10 	mov.w	sl, #16
1a00a87e:	f04f 0b00 	mov.w	fp, #0
1a00a882:	e745      	b.n	1a00a710 <_strtoull_l.isra.0+0x54>
1a00a884:	19999999 	.word	0x19999999

1a00a888 <_strtoull_r>:
1a00a888:	b530      	push	{r4, r5, lr}
1a00a88a:	4c06      	ldr	r4, [pc, #24]	; (1a00a8a4 <_strtoull_r+0x1c>)
1a00a88c:	4d06      	ldr	r5, [pc, #24]	; (1a00a8a8 <_strtoull_r+0x20>)
1a00a88e:	6824      	ldr	r4, [r4, #0]
1a00a890:	6b64      	ldr	r4, [r4, #52]	; 0x34
1a00a892:	b083      	sub	sp, #12
1a00a894:	2c00      	cmp	r4, #0
1a00a896:	bf08      	it	eq
1a00a898:	462c      	moveq	r4, r5
1a00a89a:	9400      	str	r4, [sp, #0]
1a00a89c:	f7ff ff0e 	bl	1a00a6bc <_strtoull_l.isra.0>
1a00a8a0:	b003      	add	sp, #12
1a00a8a2:	bd30      	pop	{r4, r5, pc}
1a00a8a4:	10000048 	.word	0x10000048
1a00a8a8:	10000478 	.word	0x10000478
1a00a8ac:	ffffffff 	.word	0xffffffff

1a00a8b0 <_svfprintf_r>:
1a00a8b0:	e92d 4ff0 	stmdb	sp!, {r4, r5, r6, r7, r8, r9, sl, fp, lr}
1a00a8b4:	b0d7      	sub	sp, #348	; 0x15c
1a00a8b6:	460c      	mov	r4, r1
1a00a8b8:	9106      	str	r1, [sp, #24]
1a00a8ba:	4693      	mov	fp, r2
1a00a8bc:	9309      	str	r3, [sp, #36]	; 0x24
1a00a8be:	9003      	str	r0, [sp, #12]
1a00a8c0:	f7fd f9ae 	bl	1a007c20 <_localeconv_r>
1a00a8c4:	6803      	ldr	r3, [r0, #0]
1a00a8c6:	9317      	str	r3, [sp, #92]	; 0x5c
1a00a8c8:	4618      	mov	r0, r3
1a00a8ca:	f7f8 fa99 	bl	1a002e00 <strlen>
1a00a8ce:	89a3      	ldrh	r3, [r4, #12]
1a00a8d0:	9016      	str	r0, [sp, #88]	; 0x58
1a00a8d2:	061f      	lsls	r7, r3, #24
1a00a8d4:	d503      	bpl.n	1a00a8de <_svfprintf_r+0x2e>
1a00a8d6:	6923      	ldr	r3, [r4, #16]
1a00a8d8:	2b00      	cmp	r3, #0
1a00a8da:	f000 8755 	beq.w	1a00b788 <_svfprintf_r+0xed8>
1a00a8de:	2300      	movs	r3, #0
1a00a8e0:	465e      	mov	r6, fp
1a00a8e2:	ed9f 7b8f 	vldr	d7, [pc, #572]	; 1a00ab20 <_svfprintf_r+0x270>
1a00a8e6:	9310      	str	r3, [sp, #64]	; 0x40
1a00a8e8:	e9cd 332b 	strd	r3, r3, [sp, #172]	; 0xac
1a00a8ec:	9315      	str	r3, [sp, #84]	; 0x54
1a00a8ee:	e9cd 3319 	strd	r3, r3, [sp, #100]	; 0x64
1a00a8f2:	931b      	str	r3, [sp, #108]	; 0x6c
1a00a8f4:	9318      	str	r3, [sp, #96]	; 0x60
1a00a8f6:	9305      	str	r3, [sp, #20]
1a00a8f8:	ab2d      	add	r3, sp, #180	; 0xb4
1a00a8fa:	932a      	str	r3, [sp, #168]	; 0xa8
1a00a8fc:	4699      	mov	r9, r3
1a00a8fe:	7833      	ldrb	r3, [r6, #0]
1a00a900:	ed8d 7b12 	vstr	d7, [sp, #72]	; 0x48
1a00a904:	2b00      	cmp	r3, #0
1a00a906:	f000 82ce 	beq.w	1a00aea6 <_svfprintf_r+0x5f6>
1a00a90a:	2b25      	cmp	r3, #37	; 0x25
1a00a90c:	4634      	mov	r4, r6
1a00a90e:	d102      	bne.n	1a00a916 <_svfprintf_r+0x66>
1a00a910:	e01c      	b.n	1a00a94c <_svfprintf_r+0x9c>
1a00a912:	2b25      	cmp	r3, #37	; 0x25
1a00a914:	d003      	beq.n	1a00a91e <_svfprintf_r+0x6e>
1a00a916:	f814 3f01 	ldrb.w	r3, [r4, #1]!
1a00a91a:	2b00      	cmp	r3, #0
1a00a91c:	d1f9      	bne.n	1a00a912 <_svfprintf_r+0x62>
1a00a91e:	1ba5      	subs	r5, r4, r6
1a00a920:	b185      	cbz	r5, 1a00a944 <_svfprintf_r+0x94>
1a00a922:	e9dd 322b 	ldrd	r3, r2, [sp, #172]	; 0xac
1a00a926:	3301      	adds	r3, #1
1a00a928:	442a      	add	r2, r5
1a00a92a:	2b07      	cmp	r3, #7
1a00a92c:	f8c9 6000 	str.w	r6, [r9]
1a00a930:	f8c9 5004 	str.w	r5, [r9, #4]
1a00a934:	e9cd 322b 	strd	r3, r2, [sp, #172]	; 0xac
1a00a938:	dc7c      	bgt.n	1a00aa34 <_svfprintf_r+0x184>
1a00a93a:	f109 0908 	add.w	r9, r9, #8
1a00a93e:	9b05      	ldr	r3, [sp, #20]
1a00a940:	442b      	add	r3, r5
1a00a942:	9305      	str	r3, [sp, #20]
1a00a944:	7823      	ldrb	r3, [r4, #0]
1a00a946:	2b00      	cmp	r3, #0
1a00a948:	f000 82ad 	beq.w	1a00aea6 <_svfprintf_r+0x5f6>
1a00a94c:	2300      	movs	r3, #0
1a00a94e:	7867      	ldrb	r7, [r4, #1]
1a00a950:	9307      	str	r3, [sp, #28]
1a00a952:	4698      	mov	r8, r3
1a00a954:	f88d 308b 	strb.w	r3, [sp, #139]	; 0x8b
1a00a958:	f104 0b01 	add.w	fp, r4, #1
1a00a95c:	f04f 3aff 	mov.w	sl, #4294967295	; 0xffffffff
1a00a960:	252b      	movs	r5, #43	; 0x2b
1a00a962:	f10b 0b01 	add.w	fp, fp, #1
1a00a966:	f1a7 0320 	sub.w	r3, r7, #32
1a00a96a:	2b5a      	cmp	r3, #90	; 0x5a
1a00a96c:	f200 83e4 	bhi.w	1a00b138 <_svfprintf_r+0x888>
1a00a970:	e8df f013 	tbh	[pc, r3, lsl #1]
1a00a974:	03e203a5 	.word	0x03e203a5
1a00a978:	03a003e2 	.word	0x03a003e2
1a00a97c:	03e203e2 	.word	0x03e203e2
1a00a980:	038103e2 	.word	0x038103e2
1a00a984:	03e203e2 	.word	0x03e203e2
1a00a988:	03b003b5 	.word	0x03b003b5
1a00a98c:	017203e2 	.word	0x017203e2
1a00a990:	03e20158 	.word	0x03e20158
1a00a994:	00c6033b 	.word	0x00c6033b
1a00a998:	00c600c6 	.word	0x00c600c6
1a00a99c:	00c600c6 	.word	0x00c600c6
1a00a9a0:	00c600c6 	.word	0x00c600c6
1a00a9a4:	00c600c6 	.word	0x00c600c6
1a00a9a8:	03e203e2 	.word	0x03e203e2
1a00a9ac:	03e203e2 	.word	0x03e203e2
1a00a9b0:	03e203e2 	.word	0x03e203e2
1a00a9b4:	034003e2 	.word	0x034003e2
1a00a9b8:	017703e2 	.word	0x017703e2
1a00a9bc:	034002f0 	.word	0x034002f0
1a00a9c0:	03400340 	.word	0x03400340
1a00a9c4:	03e203e2 	.word	0x03e203e2
1a00a9c8:	03e203e2 	.word	0x03e203e2
1a00a9cc:	03e202eb 	.word	0x03e202eb
1a00a9d0:	008403e2 	.word	0x008403e2
1a00a9d4:	03e203e2 	.word	0x03e203e2
1a00a9d8:	02c203e2 	.word	0x02c203e2
1a00a9dc:	03ce03e2 	.word	0x03ce03e2
1a00a9e0:	03e203e2 	.word	0x03e203e2
1a00a9e4:	03e202ac 	.word	0x03e202ac
1a00a9e8:	03e203e2 	.word	0x03e203e2
1a00a9ec:	03e203e2 	.word	0x03e203e2
1a00a9f0:	03e203e2 	.word	0x03e203e2
1a00a9f4:	034003e2 	.word	0x034003e2
1a00a9f8:	017703e2 	.word	0x017703e2
1a00a9fc:	034000da 	.word	0x034000da
1a00aa00:	03400340 	.word	0x03400340
1a00aa04:	00da03c1 	.word	0x00da03c1
1a00aa08:	03e2005b 	.word	0x03e2005b
1a00aa0c:	03e2031e 	.word	0x03e2031e
1a00aa10:	00860306 	.word	0x00860306
1a00aa14:	005b032b 	.word	0x005b032b
1a00aa18:	02c203e2 	.word	0x02c203e2
1a00aa1c:	0129005d 	.word	0x0129005d
1a00aa20:	03e203e2 	.word	0x03e203e2
1a00aa24:	03e20138 	.word	0x03e20138
1a00aa28:	005d      	.short	0x005d
1a00aa2a:	f048 0820 	orr.w	r8, r8, #32
1a00aa2e:	f89b 7000 	ldrb.w	r7, [fp]
1a00aa32:	e796      	b.n	1a00a962 <_svfprintf_r+0xb2>
1a00aa34:	aa2a      	add	r2, sp, #168	; 0xa8
1a00aa36:	9906      	ldr	r1, [sp, #24]
1a00aa38:	9803      	ldr	r0, [sp, #12]
1a00aa3a:	f002 fa81 	bl	1a00cf40 <__ssprint_r>
1a00aa3e:	b980      	cbnz	r0, 1a00aa62 <_svfprintf_r+0x1b2>
1a00aa40:	f10d 09b4 	add.w	r9, sp, #180	; 0xb4
1a00aa44:	e77b      	b.n	1a00a93e <_svfprintf_r+0x8e>
1a00aa46:	aa2a      	add	r2, sp, #168	; 0xa8
1a00aa48:	4659      	mov	r1, fp
1a00aa4a:	4650      	mov	r0, sl
1a00aa4c:	f002 fa78 	bl	1a00cf40 <__ssprint_r>
1a00aa50:	2800      	cmp	r0, #0
1a00aa52:	f001 80c5 	beq.w	1a00bbe0 <_svfprintf_r+0x1330>
1a00aa56:	9b0a      	ldr	r3, [sp, #40]	; 0x28
1a00aa58:	b11b      	cbz	r3, 1a00aa62 <_svfprintf_r+0x1b2>
1a00aa5a:	990a      	ldr	r1, [sp, #40]	; 0x28
1a00aa5c:	9803      	ldr	r0, [sp, #12]
1a00aa5e:	f7fc fded 	bl	1a00763c <_free_r>
1a00aa62:	9b06      	ldr	r3, [sp, #24]
1a00aa64:	899b      	ldrh	r3, [r3, #12]
1a00aa66:	f013 0f40 	tst.w	r3, #64	; 0x40
1a00aa6a:	9b05      	ldr	r3, [sp, #20]
1a00aa6c:	bf18      	it	ne
1a00aa6e:	f04f 33ff 	movne.w	r3, #4294967295	; 0xffffffff
1a00aa72:	9305      	str	r3, [sp, #20]
1a00aa74:	9805      	ldr	r0, [sp, #20]
1a00aa76:	b057      	add	sp, #348	; 0x15c
1a00aa78:	e8bd 8ff0 	ldmia.w	sp!, {r4, r5, r6, r7, r8, r9, sl, fp, pc}
1a00aa7c:	f048 0810 	orr.w	r8, r8, #16
1a00aa80:	f018 0f20 	tst.w	r8, #32
1a00aa84:	f000 8573 	beq.w	1a00b56e <_svfprintf_r+0xcbe>
1a00aa88:	9c09      	ldr	r4, [sp, #36]	; 0x24
1a00aa8a:	3407      	adds	r4, #7
1a00aa8c:	f024 0307 	bic.w	r3, r4, #7
1a00aa90:	e9d3 4500 	ldrd	r4, r5, [r3]
1a00aa94:	f103 0208 	add.w	r2, r3, #8
1a00aa98:	9209      	str	r2, [sp, #36]	; 0x24
1a00aa9a:	f428 6380 	bic.w	r3, r8, #1024	; 0x400
1a00aa9e:	2200      	movs	r2, #0
1a00aaa0:	2100      	movs	r1, #0
1a00aaa2:	f88d 108b 	strb.w	r1, [sp, #139]	; 0x8b
1a00aaa6:	f1ba 3fff 	cmp.w	sl, #4294967295	; 0xffffffff
1a00aaaa:	a956      	add	r1, sp, #344	; 0x158
1a00aaac:	9104      	str	r1, [sp, #16]
1a00aaae:	f000 84a7 	beq.w	1a00b400 <_svfprintf_r+0xb50>
1a00aab2:	ea54 0105 	orrs.w	r1, r4, r5
1a00aab6:	f023 0880 	bic.w	r8, r3, #128	; 0x80
1a00aaba:	d15b      	bne.n	1a00ab74 <_svfprintf_r+0x2c4>
1a00aabc:	f1ba 0f00 	cmp.w	sl, #0
1a00aac0:	f040 8796 	bne.w	1a00b9f0 <_svfprintf_r+0x1140>
1a00aac4:	2a00      	cmp	r2, #0
1a00aac6:	f040 851f 	bne.w	1a00b508 <_svfprintf_r+0xc58>
1a00aaca:	f013 0301 	ands.w	r3, r3, #1
1a00aace:	ae56      	add	r6, sp, #344	; 0x158
1a00aad0:	9308      	str	r3, [sp, #32]
1a00aad2:	d002      	beq.n	1a00aada <_svfprintf_r+0x22a>
1a00aad4:	2330      	movs	r3, #48	; 0x30
1a00aad6:	f806 3d01 	strb.w	r3, [r6, #-1]!
1a00aada:	2300      	movs	r3, #0
1a00aadc:	930a      	str	r3, [sp, #40]	; 0x28
1a00aade:	930f      	str	r3, [sp, #60]	; 0x3c
1a00aae0:	9314      	str	r3, [sp, #80]	; 0x50
1a00aae2:	9311      	str	r3, [sp, #68]	; 0x44
1a00aae4:	9b08      	ldr	r3, [sp, #32]
1a00aae6:	f89d 208b 	ldrb.w	r2, [sp, #139]	; 0x8b
1a00aaea:	4553      	cmp	r3, sl
1a00aaec:	bfb8      	it	lt
1a00aaee:	4653      	movlt	r3, sl
1a00aaf0:	9304      	str	r3, [sp, #16]
1a00aaf2:	2a00      	cmp	r2, #0
1a00aaf4:	f000 80c8 	beq.w	1a00ac88 <_svfprintf_r+0x3d8>
1a00aaf8:	9b04      	ldr	r3, [sp, #16]
1a00aafa:	3301      	adds	r3, #1
1a00aafc:	9304      	str	r3, [sp, #16]
1a00aafe:	e0c3      	b.n	1a00ac88 <_svfprintf_r+0x3d8>
1a00ab00:	f1a7 0330 	sub.w	r3, r7, #48	; 0x30
1a00ab04:	2200      	movs	r2, #0
1a00ab06:	f81b 7b01 	ldrb.w	r7, [fp], #1
1a00ab0a:	eb02 0282 	add.w	r2, r2, r2, lsl #2
1a00ab0e:	eb03 0242 	add.w	r2, r3, r2, lsl #1
1a00ab12:	f1a7 0330 	sub.w	r3, r7, #48	; 0x30
1a00ab16:	2b09      	cmp	r3, #9
1a00ab18:	d9f5      	bls.n	1a00ab06 <_svfprintf_r+0x256>
1a00ab1a:	9207      	str	r2, [sp, #28]
1a00ab1c:	e723      	b.n	1a00a966 <_svfprintf_r+0xb6>
1a00ab1e:	bf00      	nop
	...
1a00ab28:	4643      	mov	r3, r8
1a00ab2a:	069e      	lsls	r6, r3, #26
1a00ab2c:	f140 8217 	bpl.w	1a00af5e <_svfprintf_r+0x6ae>
1a00ab30:	9c09      	ldr	r4, [sp, #36]	; 0x24
1a00ab32:	3407      	adds	r4, #7
1a00ab34:	f024 0407 	bic.w	r4, r4, #7
1a00ab38:	e9d4 0100 	ldrd	r0, r1, [r4]
1a00ab3c:	f104 0208 	add.w	r2, r4, #8
1a00ab40:	9209      	str	r2, [sp, #36]	; 0x24
1a00ab42:	4604      	mov	r4, r0
1a00ab44:	460d      	mov	r5, r1
1a00ab46:	2800      	cmp	r0, #0
1a00ab48:	f171 0200 	sbcs.w	r2, r1, #0
1a00ab4c:	da05      	bge.n	1a00ab5a <_svfprintf_r+0x2aa>
1a00ab4e:	222d      	movs	r2, #45	; 0x2d
1a00ab50:	4264      	negs	r4, r4
1a00ab52:	eb65 0545 	sbc.w	r5, r5, r5, lsl #1
1a00ab56:	f88d 208b 	strb.w	r2, [sp, #139]	; 0x8b
1a00ab5a:	aa56      	add	r2, sp, #344	; 0x158
1a00ab5c:	f1ba 3fff 	cmp.w	sl, #4294967295	; 0xffffffff
1a00ab60:	9204      	str	r2, [sp, #16]
1a00ab62:	f000 86e3 	beq.w	1a00b92c <_svfprintf_r+0x107c>
1a00ab66:	ea54 0105 	orrs.w	r1, r4, r5
1a00ab6a:	f04f 0201 	mov.w	r2, #1
1a00ab6e:	f023 0880 	bic.w	r8, r3, #128	; 0x80
1a00ab72:	d0a3      	beq.n	1a00aabc <_svfprintf_r+0x20c>
1a00ab74:	2a01      	cmp	r2, #1
1a00ab76:	f000 8447 	beq.w	1a00b408 <_svfprintf_r+0xb58>
1a00ab7a:	2a02      	cmp	r2, #2
1a00ab7c:	f000 82ef 	beq.w	1a00b15e <_svfprintf_r+0x8ae>
1a00ab80:	a956      	add	r1, sp, #344	; 0x158
1a00ab82:	e000      	b.n	1a00ab86 <_svfprintf_r+0x2d6>
1a00ab84:	4631      	mov	r1, r6
1a00ab86:	08e2      	lsrs	r2, r4, #3
1a00ab88:	ea42 7245 	orr.w	r2, r2, r5, lsl #29
1a00ab8c:	08e8      	lsrs	r0, r5, #3
1a00ab8e:	f004 0307 	and.w	r3, r4, #7
1a00ab92:	4605      	mov	r5, r0
1a00ab94:	4614      	mov	r4, r2
1a00ab96:	3330      	adds	r3, #48	; 0x30
1a00ab98:	ea54 0205 	orrs.w	r2, r4, r5
1a00ab9c:	f801 3c01 	strb.w	r3, [r1, #-1]
1a00aba0:	f101 36ff 	add.w	r6, r1, #4294967295	; 0xffffffff
1a00aba4:	d1ee      	bne.n	1a00ab84 <_svfprintf_r+0x2d4>
1a00aba6:	f018 0f01 	tst.w	r8, #1
1a00abaa:	f000 82e8 	beq.w	1a00b17e <_svfprintf_r+0x8ce>
1a00abae:	2b30      	cmp	r3, #48	; 0x30
1a00abb0:	f000 82e5 	beq.w	1a00b17e <_svfprintf_r+0x8ce>
1a00abb4:	9a04      	ldr	r2, [sp, #16]
1a00abb6:	3902      	subs	r1, #2
1a00abb8:	2330      	movs	r3, #48	; 0x30
1a00abba:	1a52      	subs	r2, r2, r1
1a00abbc:	f806 3c01 	strb.w	r3, [r6, #-1]
1a00abc0:	9208      	str	r2, [sp, #32]
1a00abc2:	460e      	mov	r6, r1
1a00abc4:	e789      	b.n	1a00aada <_svfprintf_r+0x22a>
1a00abc6:	4643      	mov	r3, r8
1a00abc8:	069e      	lsls	r6, r3, #26
1a00abca:	f140 82a6 	bpl.w	1a00b11a <_svfprintf_r+0x86a>
1a00abce:	9c09      	ldr	r4, [sp, #36]	; 0x24
1a00abd0:	3407      	adds	r4, #7
1a00abd2:	f024 0207 	bic.w	r2, r4, #7
1a00abd6:	f102 0108 	add.w	r1, r2, #8
1a00abda:	e9d2 4500 	ldrd	r4, r5, [r2]
1a00abde:	9109      	str	r1, [sp, #36]	; 0x24
1a00abe0:	2201      	movs	r2, #1
1a00abe2:	e75d      	b.n	1a00aaa0 <_svfprintf_r+0x1f0>
1a00abe4:	4bb6      	ldr	r3, [pc, #728]	; (1a00aec0 <_svfprintf_r+0x610>)
1a00abe6:	9315      	str	r3, [sp, #84]	; 0x54
1a00abe8:	f018 0f20 	tst.w	r8, #32
1a00abec:	f000 8174 	beq.w	1a00aed8 <_svfprintf_r+0x628>
1a00abf0:	9c09      	ldr	r4, [sp, #36]	; 0x24
1a00abf2:	3407      	adds	r4, #7
1a00abf4:	f024 0307 	bic.w	r3, r4, #7
1a00abf8:	e9d3 4500 	ldrd	r4, r5, [r3]
1a00abfc:	f103 0208 	add.w	r2, r3, #8
1a00ac00:	9209      	str	r2, [sp, #36]	; 0x24
1a00ac02:	f018 0f01 	tst.w	r8, #1
1a00ac06:	d009      	beq.n	1a00ac1c <_svfprintf_r+0x36c>
1a00ac08:	ea54 0305 	orrs.w	r3, r4, r5
1a00ac0c:	d006      	beq.n	1a00ac1c <_svfprintf_r+0x36c>
1a00ac0e:	2330      	movs	r3, #48	; 0x30
1a00ac10:	f88d 708d 	strb.w	r7, [sp, #141]	; 0x8d
1a00ac14:	f048 0802 	orr.w	r8, r8, #2
1a00ac18:	f88d 308c 	strb.w	r3, [sp, #140]	; 0x8c
1a00ac1c:	f428 6380 	bic.w	r3, r8, #1024	; 0x400
1a00ac20:	2202      	movs	r2, #2
1a00ac22:	e73d      	b.n	1a00aaa0 <_svfprintf_r+0x1f0>
1a00ac24:	f89b 7000 	ldrb.w	r7, [fp]
1a00ac28:	2f2a      	cmp	r7, #42	; 0x2a
1a00ac2a:	f10b 0201 	add.w	r2, fp, #1
1a00ac2e:	f001 82eb 	beq.w	1a00c208 <_svfprintf_r+0x1958>
1a00ac32:	f1a7 0330 	sub.w	r3, r7, #48	; 0x30
1a00ac36:	2b09      	cmp	r3, #9
1a00ac38:	4693      	mov	fp, r2
1a00ac3a:	f04f 0a00 	mov.w	sl, #0
1a00ac3e:	f63f ae92 	bhi.w	1a00a966 <_svfprintf_r+0xb6>
1a00ac42:	f81b 7b01 	ldrb.w	r7, [fp], #1
1a00ac46:	eb0a 0a8a 	add.w	sl, sl, sl, lsl #2
1a00ac4a:	eb03 0a4a 	add.w	sl, r3, sl, lsl #1
1a00ac4e:	f1a7 0330 	sub.w	r3, r7, #48	; 0x30
1a00ac52:	2b09      	cmp	r3, #9
1a00ac54:	d9f5      	bls.n	1a00ac42 <_svfprintf_r+0x392>
1a00ac56:	e686      	b.n	1a00a966 <_svfprintf_r+0xb6>
1a00ac58:	f89b 7000 	ldrb.w	r7, [fp]
1a00ac5c:	f048 0804 	orr.w	r8, r8, #4
1a00ac60:	e67f      	b.n	1a00a962 <_svfprintf_r+0xb2>
1a00ac62:	9809      	ldr	r0, [sp, #36]	; 0x24
1a00ac64:	2300      	movs	r3, #0
1a00ac66:	6801      	ldr	r1, [r0, #0]
1a00ac68:	f88d 308b 	strb.w	r3, [sp, #139]	; 0x8b
1a00ac6c:	461a      	mov	r2, r3
1a00ac6e:	f88d 10f4 	strb.w	r1, [sp, #244]	; 0xf4
1a00ac72:	2301      	movs	r3, #1
1a00ac74:	1d01      	adds	r1, r0, #4
1a00ac76:	e9cd 3108 	strd	r3, r1, [sp, #32]
1a00ac7a:	9304      	str	r3, [sp, #16]
1a00ac7c:	920a      	str	r2, [sp, #40]	; 0x28
1a00ac7e:	4692      	mov	sl, r2
1a00ac80:	920f      	str	r2, [sp, #60]	; 0x3c
1a00ac82:	9214      	str	r2, [sp, #80]	; 0x50
1a00ac84:	9211      	str	r2, [sp, #68]	; 0x44
1a00ac86:	ae3d      	add	r6, sp, #244	; 0xf4
1a00ac88:	f018 0302 	ands.w	r3, r8, #2
1a00ac8c:	930b      	str	r3, [sp, #44]	; 0x2c
1a00ac8e:	d002      	beq.n	1a00ac96 <_svfprintf_r+0x3e6>
1a00ac90:	9b04      	ldr	r3, [sp, #16]
1a00ac92:	3302      	adds	r3, #2
1a00ac94:	9304      	str	r3, [sp, #16]
1a00ac96:	f018 0384 	ands.w	r3, r8, #132	; 0x84
1a00ac9a:	9c2c      	ldr	r4, [sp, #176]	; 0xb0
1a00ac9c:	930e      	str	r3, [sp, #56]	; 0x38
1a00ac9e:	d13f      	bne.n	1a00ad20 <_svfprintf_r+0x470>
1a00aca0:	9b07      	ldr	r3, [sp, #28]
1a00aca2:	9904      	ldr	r1, [sp, #16]
1a00aca4:	1a5d      	subs	r5, r3, r1
1a00aca6:	2d00      	cmp	r5, #0
1a00aca8:	dd3a      	ble.n	1a00ad20 <_svfprintf_r+0x470>
1a00acaa:	2d10      	cmp	r5, #16
1a00acac:	9a2b      	ldr	r2, [sp, #172]	; 0xac
1a00acae:	dd29      	ble.n	1a00ad04 <_svfprintf_r+0x454>
1a00acb0:	4649      	mov	r1, r9
1a00acb2:	4620      	mov	r0, r4
1a00acb4:	46b1      	mov	r9, r6
1a00acb6:	2310      	movs	r3, #16
1a00acb8:	9720      	str	r7, [sp, #128]	; 0x80
1a00acba:	9c03      	ldr	r4, [sp, #12]
1a00acbc:	9e06      	ldr	r6, [sp, #24]
1a00acbe:	e004      	b.n	1a00acca <_svfprintf_r+0x41a>
1a00acc0:	3d10      	subs	r5, #16
1a00acc2:	2d10      	cmp	r5, #16
1a00acc4:	f101 0108 	add.w	r1, r1, #8
1a00acc8:	dd18      	ble.n	1a00acfc <_svfprintf_r+0x44c>
1a00acca:	3201      	adds	r2, #1
1a00accc:	4f7d      	ldr	r7, [pc, #500]	; (1a00aec4 <_svfprintf_r+0x614>)
1a00acce:	3010      	adds	r0, #16
1a00acd0:	2a07      	cmp	r2, #7
1a00acd2:	e9cd 202b 	strd	r2, r0, [sp, #172]	; 0xac
1a00acd6:	e9c1 7300 	strd	r7, r3, [r1]
1a00acda:	ddf1      	ble.n	1a00acc0 <_svfprintf_r+0x410>
1a00acdc:	aa2a      	add	r2, sp, #168	; 0xa8
1a00acde:	4631      	mov	r1, r6
1a00ace0:	4620      	mov	r0, r4
1a00ace2:	930c      	str	r3, [sp, #48]	; 0x30
1a00ace4:	f002 f92c 	bl	1a00cf40 <__ssprint_r>
1a00ace8:	2800      	cmp	r0, #0
1a00acea:	f47f aeb4 	bne.w	1a00aa56 <_svfprintf_r+0x1a6>
1a00acee:	3d10      	subs	r5, #16
1a00acf0:	2d10      	cmp	r5, #16
1a00acf2:	e9dd 202b 	ldrd	r2, r0, [sp, #172]	; 0xac
1a00acf6:	a92d      	add	r1, sp, #180	; 0xb4
1a00acf8:	9b0c      	ldr	r3, [sp, #48]	; 0x30
1a00acfa:	dce6      	bgt.n	1a00acca <_svfprintf_r+0x41a>
1a00acfc:	9f20      	ldr	r7, [sp, #128]	; 0x80
1a00acfe:	464e      	mov	r6, r9
1a00ad00:	4604      	mov	r4, r0
1a00ad02:	4689      	mov	r9, r1
1a00ad04:	3201      	adds	r2, #1
1a00ad06:	4b6f      	ldr	r3, [pc, #444]	; (1a00aec4 <_svfprintf_r+0x614>)
1a00ad08:	442c      	add	r4, r5
1a00ad0a:	2a07      	cmp	r2, #7
1a00ad0c:	e9cd 242b 	strd	r2, r4, [sp, #172]	; 0xac
1a00ad10:	e9c9 3500 	strd	r3, r5, [r9]
1a00ad14:	f300 857c 	bgt.w	1a00b810 <_svfprintf_r+0xf60>
1a00ad18:	f89d 208b 	ldrb.w	r2, [sp, #139]	; 0x8b
1a00ad1c:	f109 0908 	add.w	r9, r9, #8
1a00ad20:	b172      	cbz	r2, 1a00ad40 <_svfprintf_r+0x490>
1a00ad22:	9a2b      	ldr	r2, [sp, #172]	; 0xac
1a00ad24:	3201      	adds	r2, #1
1a00ad26:	3401      	adds	r4, #1
1a00ad28:	f10d 008b 	add.w	r0, sp, #139	; 0x8b
1a00ad2c:	2101      	movs	r1, #1
1a00ad2e:	2a07      	cmp	r2, #7
1a00ad30:	e9cd 242b 	strd	r2, r4, [sp, #172]	; 0xac
1a00ad34:	e9c9 0100 	strd	r0, r1, [r9]
1a00ad38:	f300 8373 	bgt.w	1a00b422 <_svfprintf_r+0xb72>
1a00ad3c:	f109 0908 	add.w	r9, r9, #8
1a00ad40:	9b0b      	ldr	r3, [sp, #44]	; 0x2c
1a00ad42:	b16b      	cbz	r3, 1a00ad60 <_svfprintf_r+0x4b0>
1a00ad44:	9b2b      	ldr	r3, [sp, #172]	; 0xac
1a00ad46:	3301      	adds	r3, #1
1a00ad48:	3402      	adds	r4, #2
1a00ad4a:	a923      	add	r1, sp, #140	; 0x8c
1a00ad4c:	2202      	movs	r2, #2
1a00ad4e:	2b07      	cmp	r3, #7
1a00ad50:	e9cd 342b 	strd	r3, r4, [sp, #172]	; 0xac
1a00ad54:	e9c9 1200 	strd	r1, r2, [r9]
1a00ad58:	f300 836f 	bgt.w	1a00b43a <_svfprintf_r+0xb8a>
1a00ad5c:	f109 0908 	add.w	r9, r9, #8
1a00ad60:	9b0e      	ldr	r3, [sp, #56]	; 0x38
1a00ad62:	2b80      	cmp	r3, #128	; 0x80
1a00ad64:	f000 8279 	beq.w	1a00b25a <_svfprintf_r+0x9aa>
1a00ad68:	9b08      	ldr	r3, [sp, #32]
1a00ad6a:	ebaa 0503 	sub.w	r5, sl, r3
1a00ad6e:	2d00      	cmp	r5, #0
1a00ad70:	dd35      	ble.n	1a00adde <_svfprintf_r+0x52e>
1a00ad72:	2d10      	cmp	r5, #16
1a00ad74:	9a2b      	ldr	r2, [sp, #172]	; 0xac
1a00ad76:	4b54      	ldr	r3, [pc, #336]	; (1a00aec8 <_svfprintf_r+0x618>)
1a00ad78:	dd26      	ble.n	1a00adc8 <_svfprintf_r+0x518>
1a00ad7a:	4649      	mov	r1, r9
1a00ad7c:	4620      	mov	r0, r4
1a00ad7e:	46b1      	mov	r9, r6
1a00ad80:	f04f 0a10 	mov.w	sl, #16
1a00ad84:	9e06      	ldr	r6, [sp, #24]
1a00ad86:	461c      	mov	r4, r3
1a00ad88:	e004      	b.n	1a00ad94 <_svfprintf_r+0x4e4>
1a00ad8a:	3d10      	subs	r5, #16
1a00ad8c:	2d10      	cmp	r5, #16
1a00ad8e:	f101 0108 	add.w	r1, r1, #8
1a00ad92:	dd15      	ble.n	1a00adc0 <_svfprintf_r+0x510>
1a00ad94:	3201      	adds	r2, #1
1a00ad96:	3010      	adds	r0, #16
1a00ad98:	2a07      	cmp	r2, #7
1a00ad9a:	e9cd 202b 	strd	r2, r0, [sp, #172]	; 0xac
1a00ad9e:	e9c1 4a00 	strd	r4, sl, [r1]
1a00ada2:	ddf2      	ble.n	1a00ad8a <_svfprintf_r+0x4da>
1a00ada4:	aa2a      	add	r2, sp, #168	; 0xa8
1a00ada6:	4631      	mov	r1, r6
1a00ada8:	9803      	ldr	r0, [sp, #12]
1a00adaa:	f002 f8c9 	bl	1a00cf40 <__ssprint_r>
1a00adae:	2800      	cmp	r0, #0
1a00adb0:	f47f ae51 	bne.w	1a00aa56 <_svfprintf_r+0x1a6>
1a00adb4:	3d10      	subs	r5, #16
1a00adb6:	2d10      	cmp	r5, #16
1a00adb8:	e9dd 202b 	ldrd	r2, r0, [sp, #172]	; 0xac
1a00adbc:	a92d      	add	r1, sp, #180	; 0xb4
1a00adbe:	dce9      	bgt.n	1a00ad94 <_svfprintf_r+0x4e4>
1a00adc0:	464e      	mov	r6, r9
1a00adc2:	4623      	mov	r3, r4
1a00adc4:	4689      	mov	r9, r1
1a00adc6:	4604      	mov	r4, r0
1a00adc8:	3201      	adds	r2, #1
1a00adca:	442c      	add	r4, r5
1a00adcc:	2a07      	cmp	r2, #7
1a00adce:	e9cd 242b 	strd	r2, r4, [sp, #172]	; 0xac
1a00add2:	e9c9 3500 	strd	r3, r5, [r9]
1a00add6:	f300 833c 	bgt.w	1a00b452 <_svfprintf_r+0xba2>
1a00adda:	f109 0908 	add.w	r9, r9, #8
1a00adde:	f418 7f80 	tst.w	r8, #256	; 0x100
1a00ade2:	f040 81db 	bne.w	1a00b19c <_svfprintf_r+0x8ec>
1a00ade6:	9b2b      	ldr	r3, [sp, #172]	; 0xac
1a00ade8:	9a08      	ldr	r2, [sp, #32]
1a00adea:	f8c9 6000 	str.w	r6, [r9]
1a00adee:	3301      	adds	r3, #1
1a00adf0:	4414      	add	r4, r2
1a00adf2:	2b07      	cmp	r3, #7
1a00adf4:	942c      	str	r4, [sp, #176]	; 0xb0
1a00adf6:	f8c9 2004 	str.w	r2, [r9, #4]
1a00adfa:	932b      	str	r3, [sp, #172]	; 0xac
1a00adfc:	f300 82a1 	bgt.w	1a00b342 <_svfprintf_r+0xa92>
1a00ae00:	f109 0908 	add.w	r9, r9, #8
1a00ae04:	f018 0f04 	tst.w	r8, #4
1a00ae08:	d033      	beq.n	1a00ae72 <_svfprintf_r+0x5c2>
1a00ae0a:	9b07      	ldr	r3, [sp, #28]
1a00ae0c:	9a04      	ldr	r2, [sp, #16]
1a00ae0e:	1a9d      	subs	r5, r3, r2
1a00ae10:	2d00      	cmp	r5, #0
1a00ae12:	dd2e      	ble.n	1a00ae72 <_svfprintf_r+0x5c2>
1a00ae14:	2d10      	cmp	r5, #16
1a00ae16:	9b2b      	ldr	r3, [sp, #172]	; 0xac
1a00ae18:	dd21      	ble.n	1a00ae5e <_svfprintf_r+0x5ae>
1a00ae1a:	2610      	movs	r6, #16
1a00ae1c:	9f03      	ldr	r7, [sp, #12]
1a00ae1e:	f8dd 8018 	ldr.w	r8, [sp, #24]
1a00ae22:	e004      	b.n	1a00ae2e <_svfprintf_r+0x57e>
1a00ae24:	3d10      	subs	r5, #16
1a00ae26:	2d10      	cmp	r5, #16
1a00ae28:	f109 0908 	add.w	r9, r9, #8
1a00ae2c:	dd17      	ble.n	1a00ae5e <_svfprintf_r+0x5ae>
1a00ae2e:	3301      	adds	r3, #1
1a00ae30:	4a24      	ldr	r2, [pc, #144]	; (1a00aec4 <_svfprintf_r+0x614>)
1a00ae32:	3410      	adds	r4, #16
1a00ae34:	2b07      	cmp	r3, #7
1a00ae36:	e9cd 342b 	strd	r3, r4, [sp, #172]	; 0xac
1a00ae3a:	e9c9 2600 	strd	r2, r6, [r9]
1a00ae3e:	ddf1      	ble.n	1a00ae24 <_svfprintf_r+0x574>
1a00ae40:	aa2a      	add	r2, sp, #168	; 0xa8
1a00ae42:	4641      	mov	r1, r8
1a00ae44:	4638      	mov	r0, r7
1a00ae46:	f002 f87b 	bl	1a00cf40 <__ssprint_r>
1a00ae4a:	2800      	cmp	r0, #0
1a00ae4c:	f47f ae03 	bne.w	1a00aa56 <_svfprintf_r+0x1a6>
1a00ae50:	3d10      	subs	r5, #16
1a00ae52:	2d10      	cmp	r5, #16
1a00ae54:	e9dd 342b 	ldrd	r3, r4, [sp, #172]	; 0xac
1a00ae58:	f10d 09b4 	add.w	r9, sp, #180	; 0xb4
1a00ae5c:	dce7      	bgt.n	1a00ae2e <_svfprintf_r+0x57e>
1a00ae5e:	3301      	adds	r3, #1
1a00ae60:	4a18      	ldr	r2, [pc, #96]	; (1a00aec4 <_svfprintf_r+0x614>)
1a00ae62:	442c      	add	r4, r5
1a00ae64:	2b07      	cmp	r3, #7
1a00ae66:	e9cd 342b 	strd	r3, r4, [sp, #172]	; 0xac
1a00ae6a:	e9c9 2500 	strd	r2, r5, [r9]
1a00ae6e:	f300 83a5 	bgt.w	1a00b5bc <_svfprintf_r+0xd0c>
1a00ae72:	9b05      	ldr	r3, [sp, #20]
1a00ae74:	9a07      	ldr	r2, [sp, #28]
1a00ae76:	9904      	ldr	r1, [sp, #16]
1a00ae78:	428a      	cmp	r2, r1
1a00ae7a:	bfac      	ite	ge
1a00ae7c:	189b      	addge	r3, r3, r2
1a00ae7e:	185b      	addlt	r3, r3, r1
1a00ae80:	9305      	str	r3, [sp, #20]
1a00ae82:	2c00      	cmp	r4, #0
1a00ae84:	f040 8225 	bne.w	1a00b2d2 <_svfprintf_r+0xa22>
1a00ae88:	2300      	movs	r3, #0
1a00ae8a:	932b      	str	r3, [sp, #172]	; 0xac
1a00ae8c:	9b0a      	ldr	r3, [sp, #40]	; 0x28
1a00ae8e:	b11b      	cbz	r3, 1a00ae98 <_svfprintf_r+0x5e8>
1a00ae90:	990a      	ldr	r1, [sp, #40]	; 0x28
1a00ae92:	9803      	ldr	r0, [sp, #12]
1a00ae94:	f7fc fbd2 	bl	1a00763c <_free_r>
1a00ae98:	f10d 09b4 	add.w	r9, sp, #180	; 0xb4
1a00ae9c:	465e      	mov	r6, fp
1a00ae9e:	7833      	ldrb	r3, [r6, #0]
1a00aea0:	2b00      	cmp	r3, #0
1a00aea2:	f47f ad32 	bne.w	1a00a90a <_svfprintf_r+0x5a>
1a00aea6:	9b2c      	ldr	r3, [sp, #176]	; 0xb0
1a00aea8:	2b00      	cmp	r3, #0
1a00aeaa:	f43f adda 	beq.w	1a00aa62 <_svfprintf_r+0x1b2>
1a00aeae:	9c06      	ldr	r4, [sp, #24]
1a00aeb0:	9803      	ldr	r0, [sp, #12]
1a00aeb2:	aa2a      	add	r2, sp, #168	; 0xa8
1a00aeb4:	4621      	mov	r1, r4
1a00aeb6:	f002 f843 	bl	1a00cf40 <__ssprint_r>
1a00aeba:	89a3      	ldrh	r3, [r4, #12]
1a00aebc:	e5d3      	b.n	1a00aa66 <_svfprintf_r+0x1b6>
1a00aebe:	bf00      	nop
1a00aec0:	1a00d750 	.word	0x1a00d750
1a00aec4:	1a00d958 	.word	0x1a00d958
1a00aec8:	1a00d968 	.word	0x1a00d968
1a00aecc:	4bae      	ldr	r3, [pc, #696]	; (1a00b188 <_svfprintf_r+0x8d8>)
1a00aece:	9315      	str	r3, [sp, #84]	; 0x54
1a00aed0:	f018 0f20 	tst.w	r8, #32
1a00aed4:	f47f ae8c 	bne.w	1a00abf0 <_svfprintf_r+0x340>
1a00aed8:	9a09      	ldr	r2, [sp, #36]	; 0x24
1a00aeda:	f018 0f10 	tst.w	r8, #16
1a00aede:	f102 0304 	add.w	r3, r2, #4
1a00aee2:	f040 8379 	bne.w	1a00b5d8 <_svfprintf_r+0xd28>
1a00aee6:	f018 0f40 	tst.w	r8, #64	; 0x40
1a00aeea:	9a09      	ldr	r2, [sp, #36]	; 0x24
1a00aeec:	f000 8370 	beq.w	1a00b5d0 <_svfprintf_r+0xd20>
1a00aef0:	8814      	ldrh	r4, [r2, #0]
1a00aef2:	9309      	str	r3, [sp, #36]	; 0x24
1a00aef4:	2500      	movs	r5, #0
1a00aef6:	e684      	b.n	1a00ac02 <_svfprintf_r+0x352>
1a00aef8:	9b09      	ldr	r3, [sp, #36]	; 0x24
1a00aefa:	681e      	ldr	r6, [r3, #0]
1a00aefc:	2500      	movs	r5, #0
1a00aefe:	f88d 508b 	strb.w	r5, [sp, #139]	; 0x8b
1a00af02:	1d1c      	adds	r4, r3, #4
1a00af04:	2e00      	cmp	r6, #0
1a00af06:	f000 8473 	beq.w	1a00b7f0 <_svfprintf_r+0xf40>
1a00af0a:	f1ba 3fff 	cmp.w	sl, #4294967295	; 0xffffffff
1a00af0e:	f000 865f 	beq.w	1a00bbd0 <_svfprintf_r+0x1320>
1a00af12:	4652      	mov	r2, sl
1a00af14:	4629      	mov	r1, r5
1a00af16:	4630      	mov	r0, r6
1a00af18:	f7fd fa0a 	bl	1a008330 <memchr>
1a00af1c:	900a      	str	r0, [sp, #40]	; 0x28
1a00af1e:	2800      	cmp	r0, #0
1a00af20:	f000 879a 	beq.w	1a00be58 <_svfprintf_r+0x15a8>
1a00af24:	9b0a      	ldr	r3, [sp, #40]	; 0x28
1a00af26:	1b9b      	subs	r3, r3, r6
1a00af28:	9308      	str	r3, [sp, #32]
1a00af2a:	46aa      	mov	sl, r5
1a00af2c:	ea23 73e3 	bic.w	r3, r3, r3, asr #31
1a00af30:	9409      	str	r4, [sp, #36]	; 0x24
1a00af32:	9304      	str	r3, [sp, #16]
1a00af34:	f8cd a028 	str.w	sl, [sp, #40]	; 0x28
1a00af38:	f8cd a03c 	str.w	sl, [sp, #60]	; 0x3c
1a00af3c:	f8cd a050 	str.w	sl, [sp, #80]	; 0x50
1a00af40:	f8cd a044 	str.w	sl, [sp, #68]	; 0x44
1a00af44:	f89d 208b 	ldrb.w	r2, [sp, #139]	; 0x8b
1a00af48:	e5d3      	b.n	1a00aaf2 <_svfprintf_r+0x242>
1a00af4a:	f048 0808 	orr.w	r8, r8, #8
1a00af4e:	f89b 7000 	ldrb.w	r7, [fp]
1a00af52:	e506      	b.n	1a00a962 <_svfprintf_r+0xb2>
1a00af54:	f048 0310 	orr.w	r3, r8, #16
1a00af58:	069e      	lsls	r6, r3, #26
1a00af5a:	f53f ade9 	bmi.w	1a00ab30 <_svfprintf_r+0x280>
1a00af5e:	9909      	ldr	r1, [sp, #36]	; 0x24
1a00af60:	06dd      	lsls	r5, r3, #27
1a00af62:	f101 0204 	add.w	r2, r1, #4
1a00af66:	f100 8351 	bmi.w	1a00b60c <_svfprintf_r+0xd5c>
1a00af6a:	065c      	lsls	r4, r3, #25
1a00af6c:	9909      	ldr	r1, [sp, #36]	; 0x24
1a00af6e:	f140 834a 	bpl.w	1a00b606 <_svfprintf_r+0xd56>
1a00af72:	f9b1 4000 	ldrsh.w	r4, [r1]
1a00af76:	9209      	str	r2, [sp, #36]	; 0x24
1a00af78:	17e5      	asrs	r5, r4, #31
1a00af7a:	4620      	mov	r0, r4
1a00af7c:	4629      	mov	r1, r5
1a00af7e:	e5e2      	b.n	1a00ab46 <_svfprintf_r+0x296>
1a00af80:	9a09      	ldr	r2, [sp, #36]	; 0x24
1a00af82:	f018 0f20 	tst.w	r8, #32
1a00af86:	f852 3b04 	ldr.w	r3, [r2], #4
1a00af8a:	9209      	str	r2, [sp, #36]	; 0x24
1a00af8c:	f040 8345 	bne.w	1a00b61a <_svfprintf_r+0xd6a>
1a00af90:	f018 0f10 	tst.w	r8, #16
1a00af94:	f040 857c 	bne.w	1a00ba90 <_svfprintf_r+0x11e0>
1a00af98:	f018 0f40 	tst.w	r8, #64	; 0x40
1a00af9c:	f040 862e 	bne.w	1a00bbfc <_svfprintf_r+0x134c>
1a00afa0:	f418 7f00 	tst.w	r8, #512	; 0x200
1a00afa4:	f000 8574 	beq.w	1a00ba90 <_svfprintf_r+0x11e0>
1a00afa8:	9a05      	ldr	r2, [sp, #20]
1a00afaa:	701a      	strb	r2, [r3, #0]
1a00afac:	465e      	mov	r6, fp
1a00afae:	e776      	b.n	1a00ae9e <_svfprintf_r+0x5ee>
1a00afb0:	f89b 7000 	ldrb.w	r7, [fp]
1a00afb4:	2f6c      	cmp	r7, #108	; 0x6c
1a00afb6:	bf03      	ittte	eq
1a00afb8:	f89b 7001 	ldrbeq.w	r7, [fp, #1]
1a00afbc:	f048 0820 	orreq.w	r8, r8, #32
1a00afc0:	f10b 0b01 	addeq.w	fp, fp, #1
1a00afc4:	f048 0810 	orrne.w	r8, r8, #16
1a00afc8:	e4cb      	b.n	1a00a962 <_svfprintf_r+0xb2>
1a00afca:	9909      	ldr	r1, [sp, #36]	; 0x24
1a00afcc:	4b6f      	ldr	r3, [pc, #444]	; (1a00b18c <_svfprintf_r+0x8dc>)
1a00afce:	680c      	ldr	r4, [r1, #0]
1a00afd0:	9315      	str	r3, [sp, #84]	; 0x54
1a00afd2:	f647 0230 	movw	r2, #30768	; 0x7830
1a00afd6:	3104      	adds	r1, #4
1a00afd8:	f8ad 208c 	strh.w	r2, [sp, #140]	; 0x8c
1a00afdc:	f048 0302 	orr.w	r3, r8, #2
1a00afe0:	9109      	str	r1, [sp, #36]	; 0x24
1a00afe2:	2500      	movs	r5, #0
1a00afe4:	2202      	movs	r2, #2
1a00afe6:	2778      	movs	r7, #120	; 0x78
1a00afe8:	e55a      	b.n	1a00aaa0 <_svfprintf_r+0x1f0>
1a00afea:	f048 0880 	orr.w	r8, r8, #128	; 0x80
1a00afee:	f89b 7000 	ldrb.w	r7, [fp]
1a00aff2:	e4b6      	b.n	1a00a962 <_svfprintf_r+0xb2>
1a00aff4:	9c09      	ldr	r4, [sp, #36]	; 0x24
1a00aff6:	3407      	adds	r4, #7
1a00aff8:	f024 0407 	bic.w	r4, r4, #7
1a00affc:	ed94 7b00 	vldr	d7, [r4]
1a00b000:	ec52 1b17 	vmov	r1, r2, d7
1a00b004:	f022 4300 	bic.w	r3, r2, #2147483648	; 0x80000000
1a00b008:	931d      	str	r3, [sp, #116]	; 0x74
1a00b00a:	ed8d 7a1c 	vstr	s14, [sp, #112]	; 0x70
1a00b00e:	3408      	adds	r4, #8
1a00b010:	e9dd 011c 	ldrd	r0, r1, [sp, #112]	; 0x70
1a00b014:	f04f 32ff 	mov.w	r2, #4294967295	; 0xffffffff
1a00b018:	4b5d      	ldr	r3, [pc, #372]	; (1a00b190 <_svfprintf_r+0x8e0>)
1a00b01a:	9409      	str	r4, [sp, #36]	; 0x24
1a00b01c:	ed8d 7b12 	vstr	d7, [sp, #72]	; 0x48
1a00b020:	f002 f888 	bl	1a00d134 <__aeabi_dcmpun>
1a00b024:	2800      	cmp	r0, #0
1a00b026:	f040 82ff 	bne.w	1a00b628 <_svfprintf_r+0xd78>
1a00b02a:	f04f 32ff 	mov.w	r2, #4294967295	; 0xffffffff
1a00b02e:	4b58      	ldr	r3, [pc, #352]	; (1a00b190 <_svfprintf_r+0x8e0>)
1a00b030:	e9dd 011c 	ldrd	r0, r1, [sp, #112]	; 0x70
1a00b034:	f7f7 fb56 	bl	1a0026e4 <__aeabi_dcmple>
1a00b038:	2800      	cmp	r0, #0
1a00b03a:	f040 82f5 	bne.w	1a00b628 <_svfprintf_r+0xd78>
1a00b03e:	2200      	movs	r2, #0
1a00b040:	2300      	movs	r3, #0
1a00b042:	e9dd 0112 	ldrd	r0, r1, [sp, #72]	; 0x48
1a00b046:	f7f7 fb43 	bl	1a0026d0 <__aeabi_dcmplt>
1a00b04a:	2800      	cmp	r0, #0
1a00b04c:	f040 86e3 	bne.w	1a00be16 <_svfprintf_r+0x1566>
1a00b050:	f89d 208b 	ldrb.w	r2, [sp, #139]	; 0x8b
1a00b054:	4e4f      	ldr	r6, [pc, #316]	; (1a00b194 <_svfprintf_r+0x8e4>)
1a00b056:	4b50      	ldr	r3, [pc, #320]	; (1a00b198 <_svfprintf_r+0x8e8>)
1a00b058:	2000      	movs	r0, #0
1a00b05a:	2103      	movs	r1, #3
1a00b05c:	9104      	str	r1, [sp, #16]
1a00b05e:	900a      	str	r0, [sp, #40]	; 0x28
1a00b060:	f028 0880 	bic.w	r8, r8, #128	; 0x80
1a00b064:	2f47      	cmp	r7, #71	; 0x47
1a00b066:	bfd8      	it	le
1a00b068:	461e      	movle	r6, r3
1a00b06a:	9108      	str	r1, [sp, #32]
1a00b06c:	4682      	mov	sl, r0
1a00b06e:	900f      	str	r0, [sp, #60]	; 0x3c
1a00b070:	9014      	str	r0, [sp, #80]	; 0x50
1a00b072:	9011      	str	r0, [sp, #68]	; 0x44
1a00b074:	e53d      	b.n	1a00aaf2 <_svfprintf_r+0x242>
1a00b076:	9f03      	ldr	r7, [sp, #12]
1a00b078:	4638      	mov	r0, r7
1a00b07a:	f7fc fdd1 	bl	1a007c20 <_localeconv_r>
1a00b07e:	6843      	ldr	r3, [r0, #4]
1a00b080:	9318      	str	r3, [sp, #96]	; 0x60
1a00b082:	4618      	mov	r0, r3
1a00b084:	f7f7 febc 	bl	1a002e00 <strlen>
1a00b088:	901b      	str	r0, [sp, #108]	; 0x6c
1a00b08a:	4604      	mov	r4, r0
1a00b08c:	4638      	mov	r0, r7
1a00b08e:	f7fc fdc7 	bl	1a007c20 <_localeconv_r>
1a00b092:	6883      	ldr	r3, [r0, #8]
1a00b094:	931a      	str	r3, [sp, #104]	; 0x68
1a00b096:	2c00      	cmp	r4, #0
1a00b098:	f43f acc9 	beq.w	1a00aa2e <_svfprintf_r+0x17e>
1a00b09c:	f89b 7000 	ldrb.w	r7, [fp]
1a00b0a0:	2b00      	cmp	r3, #0
1a00b0a2:	f43f ac5e 	beq.w	1a00a962 <_svfprintf_r+0xb2>
1a00b0a6:	781b      	ldrb	r3, [r3, #0]
1a00b0a8:	2b00      	cmp	r3, #0
1a00b0aa:	f43f ac5a 	beq.w	1a00a962 <_svfprintf_r+0xb2>
1a00b0ae:	f448 6880 	orr.w	r8, r8, #1024	; 0x400
1a00b0b2:	e456      	b.n	1a00a962 <_svfprintf_r+0xb2>
1a00b0b4:	f048 0801 	orr.w	r8, r8, #1
1a00b0b8:	f89b 7000 	ldrb.w	r7, [fp]
1a00b0bc:	e451      	b.n	1a00a962 <_svfprintf_r+0xb2>
1a00b0be:	f89d 308b 	ldrb.w	r3, [sp, #139]	; 0x8b
1a00b0c2:	f89b 7000 	ldrb.w	r7, [fp]
1a00b0c6:	2b00      	cmp	r3, #0
1a00b0c8:	f47f ac4b 	bne.w	1a00a962 <_svfprintf_r+0xb2>
1a00b0cc:	2320      	movs	r3, #32
1a00b0ce:	f88d 308b 	strb.w	r3, [sp, #139]	; 0x8b
1a00b0d2:	e446      	b.n	1a00a962 <_svfprintf_r+0xb2>
1a00b0d4:	f88d 508b 	strb.w	r5, [sp, #139]	; 0x8b
1a00b0d8:	f89b 7000 	ldrb.w	r7, [fp]
1a00b0dc:	e441      	b.n	1a00a962 <_svfprintf_r+0xb2>
1a00b0de:	9b09      	ldr	r3, [sp, #36]	; 0x24
1a00b0e0:	f89b 7000 	ldrb.w	r7, [fp]
1a00b0e4:	681a      	ldr	r2, [r3, #0]
1a00b0e6:	9207      	str	r2, [sp, #28]
1a00b0e8:	2a00      	cmp	r2, #0
1a00b0ea:	f103 0304 	add.w	r3, r3, #4
1a00b0ee:	f2c0 835a 	blt.w	1a00b7a6 <_svfprintf_r+0xef6>
1a00b0f2:	9309      	str	r3, [sp, #36]	; 0x24
1a00b0f4:	e435      	b.n	1a00a962 <_svfprintf_r+0xb2>
1a00b0f6:	f89b 7000 	ldrb.w	r7, [fp]
1a00b0fa:	2f68      	cmp	r7, #104	; 0x68
1a00b0fc:	bf03      	ittte	eq
1a00b0fe:	f89b 7001 	ldrbeq.w	r7, [fp, #1]
1a00b102:	f448 7800 	orreq.w	r8, r8, #512	; 0x200
1a00b106:	f10b 0b01 	addeq.w	fp, fp, #1
1a00b10a:	f048 0840 	orrne.w	r8, r8, #64	; 0x40
1a00b10e:	e428      	b.n	1a00a962 <_svfprintf_r+0xb2>
1a00b110:	f048 0310 	orr.w	r3, r8, #16
1a00b114:	069e      	lsls	r6, r3, #26
1a00b116:	f53f ad5a 	bmi.w	1a00abce <_svfprintf_r+0x31e>
1a00b11a:	9a09      	ldr	r2, [sp, #36]	; 0x24
1a00b11c:	06dd      	lsls	r5, r3, #27
1a00b11e:	f102 0104 	add.w	r1, r2, #4
1a00b122:	f100 8261 	bmi.w	1a00b5e8 <_svfprintf_r+0xd38>
1a00b126:	065c      	lsls	r4, r3, #25
1a00b128:	9a09      	ldr	r2, [sp, #36]	; 0x24
1a00b12a:	f140 825a 	bpl.w	1a00b5e2 <_svfprintf_r+0xd32>
1a00b12e:	8814      	ldrh	r4, [r2, #0]
1a00b130:	9109      	str	r1, [sp, #36]	; 0x24
1a00b132:	2500      	movs	r5, #0
1a00b134:	2201      	movs	r2, #1
1a00b136:	e4b3      	b.n	1a00aaa0 <_svfprintf_r+0x1f0>
1a00b138:	2f00      	cmp	r7, #0
1a00b13a:	f43f aeb4 	beq.w	1a00aea6 <_svfprintf_r+0x5f6>
1a00b13e:	2300      	movs	r3, #0
1a00b140:	2101      	movs	r1, #1
1a00b142:	461a      	mov	r2, r3
1a00b144:	9104      	str	r1, [sp, #16]
1a00b146:	f88d 70f4 	strb.w	r7, [sp, #244]	; 0xf4
1a00b14a:	f88d 308b 	strb.w	r3, [sp, #139]	; 0x8b
1a00b14e:	930a      	str	r3, [sp, #40]	; 0x28
1a00b150:	469a      	mov	sl, r3
1a00b152:	930f      	str	r3, [sp, #60]	; 0x3c
1a00b154:	9314      	str	r3, [sp, #80]	; 0x50
1a00b156:	9311      	str	r3, [sp, #68]	; 0x44
1a00b158:	9108      	str	r1, [sp, #32]
1a00b15a:	ae3d      	add	r6, sp, #244	; 0xf4
1a00b15c:	e594      	b.n	1a00ac88 <_svfprintf_r+0x3d8>
1a00b15e:	9815      	ldr	r0, [sp, #84]	; 0x54
1a00b160:	ae56      	add	r6, sp, #344	; 0x158
1a00b162:	0923      	lsrs	r3, r4, #4
1a00b164:	f004 010f 	and.w	r1, r4, #15
1a00b168:	ea43 7305 	orr.w	r3, r3, r5, lsl #28
1a00b16c:	092a      	lsrs	r2, r5, #4
1a00b16e:	461c      	mov	r4, r3
1a00b170:	4615      	mov	r5, r2
1a00b172:	5c43      	ldrb	r3, [r0, r1]
1a00b174:	f806 3d01 	strb.w	r3, [r6, #-1]!
1a00b178:	ea54 0305 	orrs.w	r3, r4, r5
1a00b17c:	d1f1      	bne.n	1a00b162 <_svfprintf_r+0x8b2>
1a00b17e:	9b04      	ldr	r3, [sp, #16]
1a00b180:	1b9b      	subs	r3, r3, r6
1a00b182:	9308      	str	r3, [sp, #32]
1a00b184:	e4a9      	b.n	1a00aada <_svfprintf_r+0x22a>
1a00b186:	bf00      	nop
1a00b188:	1a00d764 	.word	0x1a00d764
1a00b18c:	1a00d750 	.word	0x1a00d750
1a00b190:	7fefffff 	.word	0x7fefffff
1a00b194:	1a00d744 	.word	0x1a00d744
1a00b198:	1a00d740 	.word	0x1a00d740
1a00b19c:	2f65      	cmp	r7, #101	; 0x65
1a00b19e:	f340 80dc 	ble.w	1a00b35a <_svfprintf_r+0xaaa>
1a00b1a2:	2200      	movs	r2, #0
1a00b1a4:	2300      	movs	r3, #0
1a00b1a6:	e9dd 0112 	ldrd	r0, r1, [sp, #72]	; 0x48
1a00b1aa:	f7f7 fa87 	bl	1a0026bc <__aeabi_dcmpeq>
1a00b1ae:	2800      	cmp	r0, #0
1a00b1b0:	f000 8160 	beq.w	1a00b474 <_svfprintf_r+0xbc4>
1a00b1b4:	9b2b      	ldr	r3, [sp, #172]	; 0xac
1a00b1b6:	4aad      	ldr	r2, [pc, #692]	; (1a00b46c <_svfprintf_r+0xbbc>)
1a00b1b8:	f8c9 2000 	str.w	r2, [r9]
1a00b1bc:	3301      	adds	r3, #1
1a00b1be:	3401      	adds	r4, #1
1a00b1c0:	2201      	movs	r2, #1
1a00b1c2:	2b07      	cmp	r3, #7
1a00b1c4:	e9cd 342b 	strd	r3, r4, [sp, #172]	; 0xac
1a00b1c8:	f8c9 2004 	str.w	r2, [r9, #4]
1a00b1cc:	f300 843c 	bgt.w	1a00ba48 <_svfprintf_r+0x1198>
1a00b1d0:	f109 0908 	add.w	r9, r9, #8
1a00b1d4:	9b24      	ldr	r3, [sp, #144]	; 0x90
1a00b1d6:	9a10      	ldr	r2, [sp, #64]	; 0x40
1a00b1d8:	9c2c      	ldr	r4, [sp, #176]	; 0xb0
1a00b1da:	4293      	cmp	r3, r2
1a00b1dc:	f280 81e9 	bge.w	1a00b5b2 <_svfprintf_r+0xd02>
1a00b1e0:	9b2b      	ldr	r3, [sp, #172]	; 0xac
1a00b1e2:	9a17      	ldr	r2, [sp, #92]	; 0x5c
1a00b1e4:	f8c9 2000 	str.w	r2, [r9]
1a00b1e8:	9a16      	ldr	r2, [sp, #88]	; 0x58
1a00b1ea:	f8c9 2004 	str.w	r2, [r9, #4]
1a00b1ee:	3301      	adds	r3, #1
1a00b1f0:	4414      	add	r4, r2
1a00b1f2:	2b07      	cmp	r3, #7
1a00b1f4:	e9cd 342b 	strd	r3, r4, [sp, #172]	; 0xac
1a00b1f8:	f300 82ee 	bgt.w	1a00b7d8 <_svfprintf_r+0xf28>
1a00b1fc:	f109 0908 	add.w	r9, r9, #8
1a00b200:	9b10      	ldr	r3, [sp, #64]	; 0x40
1a00b202:	1e5d      	subs	r5, r3, #1
1a00b204:	2d00      	cmp	r5, #0
1a00b206:	f77f adfd 	ble.w	1a00ae04 <_svfprintf_r+0x554>
1a00b20a:	2d10      	cmp	r5, #16
1a00b20c:	9a2b      	ldr	r2, [sp, #172]	; 0xac
1a00b20e:	4b98      	ldr	r3, [pc, #608]	; (1a00b470 <_svfprintf_r+0xbc0>)
1a00b210:	f340 8403 	ble.w	1a00ba1a <_svfprintf_r+0x116a>
1a00b214:	4619      	mov	r1, r3
1a00b216:	2610      	movs	r6, #16
1a00b218:	4623      	mov	r3, r4
1a00b21a:	9f03      	ldr	r7, [sp, #12]
1a00b21c:	f8dd a018 	ldr.w	sl, [sp, #24]
1a00b220:	460c      	mov	r4, r1
1a00b222:	e005      	b.n	1a00b230 <_svfprintf_r+0x980>
1a00b224:	f109 0908 	add.w	r9, r9, #8
1a00b228:	3d10      	subs	r5, #16
1a00b22a:	2d10      	cmp	r5, #16
1a00b22c:	f340 83f2 	ble.w	1a00ba14 <_svfprintf_r+0x1164>
1a00b230:	3201      	adds	r2, #1
1a00b232:	3310      	adds	r3, #16
1a00b234:	2a07      	cmp	r2, #7
1a00b236:	e9cd 232b 	strd	r2, r3, [sp, #172]	; 0xac
1a00b23a:	e9c9 4600 	strd	r4, r6, [r9]
1a00b23e:	ddf1      	ble.n	1a00b224 <_svfprintf_r+0x974>
1a00b240:	aa2a      	add	r2, sp, #168	; 0xa8
1a00b242:	4651      	mov	r1, sl
1a00b244:	4638      	mov	r0, r7
1a00b246:	f001 fe7b 	bl	1a00cf40 <__ssprint_r>
1a00b24a:	2800      	cmp	r0, #0
1a00b24c:	f47f ac03 	bne.w	1a00aa56 <_svfprintf_r+0x1a6>
1a00b250:	e9dd 232b 	ldrd	r2, r3, [sp, #172]	; 0xac
1a00b254:	f10d 09b4 	add.w	r9, sp, #180	; 0xb4
1a00b258:	e7e6      	b.n	1a00b228 <_svfprintf_r+0x978>
1a00b25a:	9b07      	ldr	r3, [sp, #28]
1a00b25c:	9a04      	ldr	r2, [sp, #16]
1a00b25e:	1a9d      	subs	r5, r3, r2
1a00b260:	2d00      	cmp	r5, #0
1a00b262:	f77f ad81 	ble.w	1a00ad68 <_svfprintf_r+0x4b8>
1a00b266:	2d10      	cmp	r5, #16
1a00b268:	9a2b      	ldr	r2, [sp, #172]	; 0xac
1a00b26a:	4b81      	ldr	r3, [pc, #516]	; (1a00b470 <_svfprintf_r+0xbc0>)
1a00b26c:	dd25      	ble.n	1a00b2ba <_svfprintf_r+0xa0a>
1a00b26e:	4649      	mov	r1, r9
1a00b270:	4620      	mov	r0, r4
1a00b272:	46b1      	mov	r9, r6
1a00b274:	461c      	mov	r4, r3
1a00b276:	9e06      	ldr	r6, [sp, #24]
1a00b278:	e004      	b.n	1a00b284 <_svfprintf_r+0x9d4>
1a00b27a:	3d10      	subs	r5, #16
1a00b27c:	2d10      	cmp	r5, #16
1a00b27e:	f101 0108 	add.w	r1, r1, #8
1a00b282:	dd16      	ble.n	1a00b2b2 <_svfprintf_r+0xa02>
1a00b284:	3201      	adds	r2, #1
1a00b286:	3010      	adds	r0, #16
1a00b288:	2310      	movs	r3, #16
1a00b28a:	2a07      	cmp	r2, #7
1a00b28c:	e9cd 202b 	strd	r2, r0, [sp, #172]	; 0xac
1a00b290:	600c      	str	r4, [r1, #0]
1a00b292:	604b      	str	r3, [r1, #4]
1a00b294:	ddf1      	ble.n	1a00b27a <_svfprintf_r+0x9ca>
1a00b296:	aa2a      	add	r2, sp, #168	; 0xa8
1a00b298:	4631      	mov	r1, r6
1a00b29a:	9803      	ldr	r0, [sp, #12]
1a00b29c:	f001 fe50 	bl	1a00cf40 <__ssprint_r>
1a00b2a0:	2800      	cmp	r0, #0
1a00b2a2:	f47f abd8 	bne.w	1a00aa56 <_svfprintf_r+0x1a6>
1a00b2a6:	3d10      	subs	r5, #16
1a00b2a8:	2d10      	cmp	r5, #16
1a00b2aa:	e9dd 202b 	ldrd	r2, r0, [sp, #172]	; 0xac
1a00b2ae:	a92d      	add	r1, sp, #180	; 0xb4
1a00b2b0:	dce8      	bgt.n	1a00b284 <_svfprintf_r+0x9d4>
1a00b2b2:	464e      	mov	r6, r9
1a00b2b4:	4623      	mov	r3, r4
1a00b2b6:	4689      	mov	r9, r1
1a00b2b8:	4604      	mov	r4, r0
1a00b2ba:	3201      	adds	r2, #1
1a00b2bc:	442c      	add	r4, r5
1a00b2be:	2a07      	cmp	r2, #7
1a00b2c0:	e9cd 242b 	strd	r2, r4, [sp, #172]	; 0xac
1a00b2c4:	e9c9 3500 	strd	r3, r5, [r9]
1a00b2c8:	f300 83b1 	bgt.w	1a00ba2e <_svfprintf_r+0x117e>
1a00b2cc:	f109 0908 	add.w	r9, r9, #8
1a00b2d0:	e54a      	b.n	1a00ad68 <_svfprintf_r+0x4b8>
1a00b2d2:	aa2a      	add	r2, sp, #168	; 0xa8
1a00b2d4:	9906      	ldr	r1, [sp, #24]
1a00b2d6:	9803      	ldr	r0, [sp, #12]
1a00b2d8:	f001 fe32 	bl	1a00cf40 <__ssprint_r>
1a00b2dc:	2800      	cmp	r0, #0
1a00b2de:	f43f add3 	beq.w	1a00ae88 <_svfprintf_r+0x5d8>
1a00b2e2:	f7ff bbb8 	b.w	1a00aa56 <_svfprintf_r+0x1a6>
1a00b2e6:	aa2a      	add	r2, sp, #168	; 0xa8
1a00b2e8:	9906      	ldr	r1, [sp, #24]
1a00b2ea:	9803      	ldr	r0, [sp, #12]
1a00b2ec:	f001 fe28 	bl	1a00cf40 <__ssprint_r>
1a00b2f0:	2800      	cmp	r0, #0
1a00b2f2:	f47f abb0 	bne.w	1a00aa56 <_svfprintf_r+0x1a6>
1a00b2f6:	9b24      	ldr	r3, [sp, #144]	; 0x90
1a00b2f8:	9c2c      	ldr	r4, [sp, #176]	; 0xb0
1a00b2fa:	f10d 09b4 	add.w	r9, sp, #180	; 0xb4
1a00b2fe:	b91b      	cbnz	r3, 1a00b308 <_svfprintf_r+0xa58>
1a00b300:	9a10      	ldr	r2, [sp, #64]	; 0x40
1a00b302:	2a00      	cmp	r2, #0
1a00b304:	f000 8492 	beq.w	1a00bc2c <_svfprintf_r+0x137c>
1a00b308:	9a2b      	ldr	r2, [sp, #172]	; 0xac
1a00b30a:	9917      	ldr	r1, [sp, #92]	; 0x5c
1a00b30c:	f8c9 1000 	str.w	r1, [r9]
1a00b310:	9916      	ldr	r1, [sp, #88]	; 0x58
1a00b312:	f8c9 1004 	str.w	r1, [r9, #4]
1a00b316:	3201      	adds	r2, #1
1a00b318:	440c      	add	r4, r1
1a00b31a:	2a07      	cmp	r2, #7
1a00b31c:	942c      	str	r4, [sp, #176]	; 0xb0
1a00b31e:	922b      	str	r2, [sp, #172]	; 0xac
1a00b320:	f300 85a7 	bgt.w	1a00be72 <_svfprintf_r+0x15c2>
1a00b324:	f109 0908 	add.w	r9, r9, #8
1a00b328:	2b00      	cmp	r3, #0
1a00b32a:	f2c0 8620 	blt.w	1a00bf6e <_svfprintf_r+0x16be>
1a00b32e:	9b10      	ldr	r3, [sp, #64]	; 0x40
1a00b330:	3201      	adds	r2, #1
1a00b332:	441c      	add	r4, r3
1a00b334:	2a07      	cmp	r2, #7
1a00b336:	e9cd 242b 	strd	r2, r4, [sp, #172]	; 0xac
1a00b33a:	e9c9 6300 	strd	r6, r3, [r9]
1a00b33e:	f77f ad5f 	ble.w	1a00ae00 <_svfprintf_r+0x550>
1a00b342:	aa2a      	add	r2, sp, #168	; 0xa8
1a00b344:	9906      	ldr	r1, [sp, #24]
1a00b346:	9803      	ldr	r0, [sp, #12]
1a00b348:	f001 fdfa 	bl	1a00cf40 <__ssprint_r>
1a00b34c:	2800      	cmp	r0, #0
1a00b34e:	f47f ab82 	bne.w	1a00aa56 <_svfprintf_r+0x1a6>
1a00b352:	9c2c      	ldr	r4, [sp, #176]	; 0xb0
1a00b354:	f10d 09b4 	add.w	r9, sp, #180	; 0xb4
1a00b358:	e554      	b.n	1a00ae04 <_svfprintf_r+0x554>
1a00b35a:	9a10      	ldr	r2, [sp, #64]	; 0x40
1a00b35c:	9b2b      	ldr	r3, [sp, #172]	; 0xac
1a00b35e:	2a01      	cmp	r2, #1
1a00b360:	f104 0401 	add.w	r4, r4, #1
1a00b364:	f103 0501 	add.w	r5, r3, #1
1a00b368:	f109 0708 	add.w	r7, r9, #8
1a00b36c:	f340 810e 	ble.w	1a00b58c <_svfprintf_r+0xcdc>
1a00b370:	2301      	movs	r3, #1
1a00b372:	2d07      	cmp	r5, #7
1a00b374:	f8c9 6000 	str.w	r6, [r9]
1a00b378:	e9cd 542b 	strd	r5, r4, [sp, #172]	; 0xac
1a00b37c:	f8c9 3004 	str.w	r3, [r9, #4]
1a00b380:	f300 831d 	bgt.w	1a00b9be <_svfprintf_r+0x110e>
1a00b384:	9b16      	ldr	r3, [sp, #88]	; 0x58
1a00b386:	9a17      	ldr	r2, [sp, #92]	; 0x5c
1a00b388:	1c69      	adds	r1, r5, #1
1a00b38a:	441c      	add	r4, r3
1a00b38c:	2907      	cmp	r1, #7
1a00b38e:	910b      	str	r1, [sp, #44]	; 0x2c
1a00b390:	e9cd 142b 	strd	r1, r4, [sp, #172]	; 0xac
1a00b394:	e9c7 2300 	strd	r2, r3, [r7]
1a00b398:	f300 831d 	bgt.w	1a00b9d6 <_svfprintf_r+0x1126>
1a00b39c:	3708      	adds	r7, #8
1a00b39e:	9a0b      	ldr	r2, [sp, #44]	; 0x2c
1a00b3a0:	1c53      	adds	r3, r2, #1
1a00b3a2:	461d      	mov	r5, r3
1a00b3a4:	9508      	str	r5, [sp, #32]
1a00b3a6:	9d10      	ldr	r5, [sp, #64]	; 0x40
1a00b3a8:	930e      	str	r3, [sp, #56]	; 0x38
1a00b3aa:	2200      	movs	r2, #0
1a00b3ac:	2300      	movs	r3, #0
1a00b3ae:	e9dd 0112 	ldrd	r0, r1, [sp, #72]	; 0x48
1a00b3b2:	f105 3aff 	add.w	sl, r5, #4294967295	; 0xffffffff
1a00b3b6:	f107 0908 	add.w	r9, r7, #8
1a00b3ba:	f7f7 f97f 	bl	1a0026bc <__aeabi_dcmpeq>
1a00b3be:	2800      	cmp	r0, #0
1a00b3c0:	f040 80a7 	bne.w	1a00b512 <_svfprintf_r+0xc62>
1a00b3c4:	9d08      	ldr	r5, [sp, #32]
1a00b3c6:	f8c7 a004 	str.w	sl, [r7, #4]
1a00b3ca:	3601      	adds	r6, #1
1a00b3cc:	4454      	add	r4, sl
1a00b3ce:	2d07      	cmp	r5, #7
1a00b3d0:	603e      	str	r6, [r7, #0]
1a00b3d2:	942c      	str	r4, [sp, #176]	; 0xb0
1a00b3d4:	952b      	str	r5, [sp, #172]	; 0xac
1a00b3d6:	f300 81ef 	bgt.w	1a00b7b8 <_svfprintf_r+0xf08>
1a00b3da:	9a0b      	ldr	r2, [sp, #44]	; 0x2c
1a00b3dc:	f107 0310 	add.w	r3, r7, #16
1a00b3e0:	3202      	adds	r2, #2
1a00b3e2:	464f      	mov	r7, r9
1a00b3e4:	9208      	str	r2, [sp, #32]
1a00b3e6:	4699      	mov	r9, r3
1a00b3e8:	9a19      	ldr	r2, [sp, #100]	; 0x64
1a00b3ea:	607a      	str	r2, [r7, #4]
1a00b3ec:	4414      	add	r4, r2
1a00b3ee:	9a08      	ldr	r2, [sp, #32]
1a00b3f0:	942c      	str	r4, [sp, #176]	; 0xb0
1a00b3f2:	ab26      	add	r3, sp, #152	; 0x98
1a00b3f4:	2a07      	cmp	r2, #7
1a00b3f6:	922b      	str	r2, [sp, #172]	; 0xac
1a00b3f8:	603b      	str	r3, [r7, #0]
1a00b3fa:	f77f ad03 	ble.w	1a00ae04 <_svfprintf_r+0x554>
1a00b3fe:	e7a0      	b.n	1a00b342 <_svfprintf_r+0xa92>
1a00b400:	2a01      	cmp	r2, #1
1a00b402:	4698      	mov	r8, r3
1a00b404:	f47f abb9 	bne.w	1a00ab7a <_svfprintf_r+0x2ca>
1a00b408:	2d00      	cmp	r5, #0
1a00b40a:	bf08      	it	eq
1a00b40c:	2c0a      	cmpeq	r4, #10
1a00b40e:	f080 8293 	bcs.w	1a00b938 <_svfprintf_r+0x1088>
1a00b412:	ae56      	add	r6, sp, #344	; 0x158
1a00b414:	3430      	adds	r4, #48	; 0x30
1a00b416:	2301      	movs	r3, #1
1a00b418:	f806 4d01 	strb.w	r4, [r6, #-1]!
1a00b41c:	9308      	str	r3, [sp, #32]
1a00b41e:	f7ff bb5c 	b.w	1a00aada <_svfprintf_r+0x22a>
1a00b422:	aa2a      	add	r2, sp, #168	; 0xa8
1a00b424:	9906      	ldr	r1, [sp, #24]
1a00b426:	9803      	ldr	r0, [sp, #12]
1a00b428:	f001 fd8a 	bl	1a00cf40 <__ssprint_r>
1a00b42c:	2800      	cmp	r0, #0
1a00b42e:	f47f ab12 	bne.w	1a00aa56 <_svfprintf_r+0x1a6>
1a00b432:	9c2c      	ldr	r4, [sp, #176]	; 0xb0
1a00b434:	f10d 09b4 	add.w	r9, sp, #180	; 0xb4
1a00b438:	e482      	b.n	1a00ad40 <_svfprintf_r+0x490>
1a00b43a:	aa2a      	add	r2, sp, #168	; 0xa8
1a00b43c:	9906      	ldr	r1, [sp, #24]
1a00b43e:	9803      	ldr	r0, [sp, #12]
1a00b440:	f001 fd7e 	bl	1a00cf40 <__ssprint_r>
1a00b444:	2800      	cmp	r0, #0
1a00b446:	f47f ab06 	bne.w	1a00aa56 <_svfprintf_r+0x1a6>
1a00b44a:	9c2c      	ldr	r4, [sp, #176]	; 0xb0
1a00b44c:	f10d 09b4 	add.w	r9, sp, #180	; 0xb4
1a00b450:	e486      	b.n	1a00ad60 <_svfprintf_r+0x4b0>
1a00b452:	aa2a      	add	r2, sp, #168	; 0xa8
1a00b454:	9906      	ldr	r1, [sp, #24]
1a00b456:	9803      	ldr	r0, [sp, #12]
1a00b458:	f001 fd72 	bl	1a00cf40 <__ssprint_r>
1a00b45c:	2800      	cmp	r0, #0
1a00b45e:	f47f aafa 	bne.w	1a00aa56 <_svfprintf_r+0x1a6>
1a00b462:	9c2c      	ldr	r4, [sp, #176]	; 0xb0
1a00b464:	f10d 09b4 	add.w	r9, sp, #180	; 0xb4
1a00b468:	e4b9      	b.n	1a00adde <_svfprintf_r+0x52e>
1a00b46a:	bf00      	nop
1a00b46c:	1a00d780 	.word	0x1a00d780
1a00b470:	1a00d968 	.word	0x1a00d968
1a00b474:	9b24      	ldr	r3, [sp, #144]	; 0x90
1a00b476:	2b00      	cmp	r3, #0
1a00b478:	f340 8175 	ble.w	1a00b766 <_svfprintf_r+0xeb6>
1a00b47c:	e9dd 2310 	ldrd	r2, r3, [sp, #64]	; 0x40
1a00b480:	4293      	cmp	r3, r2
1a00b482:	bfa8      	it	ge
1a00b484:	4613      	movge	r3, r2
1a00b486:	2b00      	cmp	r3, #0
1a00b488:	461d      	mov	r5, r3
1a00b48a:	dd0d      	ble.n	1a00b4a8 <_svfprintf_r+0xbf8>
1a00b48c:	9b2b      	ldr	r3, [sp, #172]	; 0xac
1a00b48e:	f8c9 6000 	str.w	r6, [r9]
1a00b492:	3301      	adds	r3, #1
1a00b494:	442c      	add	r4, r5
1a00b496:	2b07      	cmp	r3, #7
1a00b498:	942c      	str	r4, [sp, #176]	; 0xb0
1a00b49a:	f8c9 5004 	str.w	r5, [r9, #4]
1a00b49e:	932b      	str	r3, [sp, #172]	; 0xac
1a00b4a0:	f300 84be 	bgt.w	1a00be20 <_svfprintf_r+0x1570>
1a00b4a4:	f109 0908 	add.w	r9, r9, #8
1a00b4a8:	9b11      	ldr	r3, [sp, #68]	; 0x44
1a00b4aa:	2d00      	cmp	r5, #0
1a00b4ac:	bfa8      	it	ge
1a00b4ae:	1b5b      	subge	r3, r3, r5
1a00b4b0:	2b00      	cmp	r3, #0
1a00b4b2:	461d      	mov	r5, r3
1a00b4b4:	f340 81d4 	ble.w	1a00b860 <_svfprintf_r+0xfb0>
1a00b4b8:	2d10      	cmp	r5, #16
1a00b4ba:	9a2b      	ldr	r2, [sp, #172]	; 0xac
1a00b4bc:	4bbc      	ldr	r3, [pc, #752]	; (1a00b7b0 <_svfprintf_r+0xf00>)
1a00b4be:	f340 81bb 	ble.w	1a00b838 <_svfprintf_r+0xf88>
1a00b4c2:	4618      	mov	r0, r3
1a00b4c4:	4621      	mov	r1, r4
1a00b4c6:	464b      	mov	r3, r9
1a00b4c8:	2710      	movs	r7, #16
1a00b4ca:	46b1      	mov	r9, r6
1a00b4cc:	f8dd a00c 	ldr.w	sl, [sp, #12]
1a00b4d0:	9c06      	ldr	r4, [sp, #24]
1a00b4d2:	4606      	mov	r6, r0
1a00b4d4:	e004      	b.n	1a00b4e0 <_svfprintf_r+0xc30>
1a00b4d6:	3308      	adds	r3, #8
1a00b4d8:	3d10      	subs	r5, #16
1a00b4da:	2d10      	cmp	r5, #16
1a00b4dc:	f340 81a7 	ble.w	1a00b82e <_svfprintf_r+0xf7e>
1a00b4e0:	3201      	adds	r2, #1
1a00b4e2:	3110      	adds	r1, #16
1a00b4e4:	2a07      	cmp	r2, #7
1a00b4e6:	e9cd 212b 	strd	r2, r1, [sp, #172]	; 0xac
1a00b4ea:	e9c3 6700 	strd	r6, r7, [r3]
1a00b4ee:	ddf2      	ble.n	1a00b4d6 <_svfprintf_r+0xc26>
1a00b4f0:	aa2a      	add	r2, sp, #168	; 0xa8
1a00b4f2:	4621      	mov	r1, r4
1a00b4f4:	4650      	mov	r0, sl
1a00b4f6:	f001 fd23 	bl	1a00cf40 <__ssprint_r>
1a00b4fa:	2800      	cmp	r0, #0
1a00b4fc:	f47f aaab 	bne.w	1a00aa56 <_svfprintf_r+0x1a6>
1a00b500:	e9dd 212b 	ldrd	r2, r1, [sp, #172]	; 0xac
1a00b504:	ab2d      	add	r3, sp, #180	; 0xb4
1a00b506:	e7e7      	b.n	1a00b4d8 <_svfprintf_r+0xc28>
1a00b508:	f8cd a020 	str.w	sl, [sp, #32]
1a00b50c:	ae56      	add	r6, sp, #344	; 0x158
1a00b50e:	f7ff bae4 	b.w	1a00aada <_svfprintf_r+0x22a>
1a00b512:	f1ba 0f00 	cmp.w	sl, #0
1a00b516:	f77f af67 	ble.w	1a00b3e8 <_svfprintf_r+0xb38>
1a00b51a:	f1ba 0f10 	cmp.w	sl, #16
1a00b51e:	4ba4      	ldr	r3, [pc, #656]	; (1a00b7b0 <_svfprintf_r+0xf00>)
1a00b520:	f340 864e 	ble.w	1a00c1c0 <_svfprintf_r+0x1910>
1a00b524:	4619      	mov	r1, r3
1a00b526:	4622      	mov	r2, r4
1a00b528:	463b      	mov	r3, r7
1a00b52a:	2610      	movs	r6, #16
1a00b52c:	f8dd 900c 	ldr.w	r9, [sp, #12]
1a00b530:	9c06      	ldr	r4, [sp, #24]
1a00b532:	9d0e      	ldr	r5, [sp, #56]	; 0x38
1a00b534:	460f      	mov	r7, r1
1a00b536:	e007      	b.n	1a00b548 <_svfprintf_r+0xc98>
1a00b538:	3308      	adds	r3, #8
1a00b53a:	f1aa 0a10 	sub.w	sl, sl, #16
1a00b53e:	f1ba 0f10 	cmp.w	sl, #16
1a00b542:	f340 828d 	ble.w	1a00ba60 <_svfprintf_r+0x11b0>
1a00b546:	3501      	adds	r5, #1
1a00b548:	3210      	adds	r2, #16
1a00b54a:	2d07      	cmp	r5, #7
1a00b54c:	e9cd 522b 	strd	r5, r2, [sp, #172]	; 0xac
1a00b550:	e9c3 7600 	strd	r7, r6, [r3]
1a00b554:	ddf0      	ble.n	1a00b538 <_svfprintf_r+0xc88>
1a00b556:	aa2a      	add	r2, sp, #168	; 0xa8
1a00b558:	4621      	mov	r1, r4
1a00b55a:	4648      	mov	r0, r9
1a00b55c:	f001 fcf0 	bl	1a00cf40 <__ssprint_r>
1a00b560:	2800      	cmp	r0, #0
1a00b562:	f47f aa78 	bne.w	1a00aa56 <_svfprintf_r+0x1a6>
1a00b566:	e9dd 522b 	ldrd	r5, r2, [sp, #172]	; 0xac
1a00b56a:	ab2d      	add	r3, sp, #180	; 0xb4
1a00b56c:	e7e5      	b.n	1a00b53a <_svfprintf_r+0xc8a>
1a00b56e:	9a09      	ldr	r2, [sp, #36]	; 0x24
1a00b570:	f018 0f10 	tst.w	r8, #16
1a00b574:	f102 0304 	add.w	r3, r2, #4
1a00b578:	d140      	bne.n	1a00b5fc <_svfprintf_r+0xd4c>
1a00b57a:	f018 0f40 	tst.w	r8, #64	; 0x40
1a00b57e:	9a09      	ldr	r2, [sp, #36]	; 0x24
1a00b580:	d038      	beq.n	1a00b5f4 <_svfprintf_r+0xd44>
1a00b582:	8814      	ldrh	r4, [r2, #0]
1a00b584:	9309      	str	r3, [sp, #36]	; 0x24
1a00b586:	2500      	movs	r5, #0
1a00b588:	f7ff ba87 	b.w	1a00aa9a <_svfprintf_r+0x1ea>
1a00b58c:	f018 0f01 	tst.w	r8, #1
1a00b590:	f47f aeee 	bne.w	1a00b370 <_svfprintf_r+0xac0>
1a00b594:	2201      	movs	r2, #1
1a00b596:	2d07      	cmp	r5, #7
1a00b598:	f8c9 6000 	str.w	r6, [r9]
1a00b59c:	e9cd 542b 	strd	r5, r4, [sp, #172]	; 0xac
1a00b5a0:	f8c9 2004 	str.w	r2, [r9, #4]
1a00b5a4:	f300 8108 	bgt.w	1a00b7b8 <_svfprintf_r+0xf08>
1a00b5a8:	3302      	adds	r3, #2
1a00b5aa:	9308      	str	r3, [sp, #32]
1a00b5ac:	f109 0910 	add.w	r9, r9, #16
1a00b5b0:	e71a      	b.n	1a00b3e8 <_svfprintf_r+0xb38>
1a00b5b2:	f018 0f01 	tst.w	r8, #1
1a00b5b6:	f47f ae13 	bne.w	1a00b1e0 <_svfprintf_r+0x930>
1a00b5ba:	e423      	b.n	1a00ae04 <_svfprintf_r+0x554>
1a00b5bc:	aa2a      	add	r2, sp, #168	; 0xa8
1a00b5be:	9906      	ldr	r1, [sp, #24]
1a00b5c0:	9803      	ldr	r0, [sp, #12]
1a00b5c2:	f001 fcbd 	bl	1a00cf40 <__ssprint_r>
1a00b5c6:	2800      	cmp	r0, #0
1a00b5c8:	f47f aa45 	bne.w	1a00aa56 <_svfprintf_r+0x1a6>
1a00b5cc:	9c2c      	ldr	r4, [sp, #176]	; 0xb0
1a00b5ce:	e450      	b.n	1a00ae72 <_svfprintf_r+0x5c2>
1a00b5d0:	f418 7f00 	tst.w	r8, #512	; 0x200
1a00b5d4:	f040 830d 	bne.w	1a00bbf2 <_svfprintf_r+0x1342>
1a00b5d8:	6814      	ldr	r4, [r2, #0]
1a00b5da:	9309      	str	r3, [sp, #36]	; 0x24
1a00b5dc:	2500      	movs	r5, #0
1a00b5de:	f7ff bb10 	b.w	1a00ac02 <_svfprintf_r+0x352>
1a00b5e2:	0598      	lsls	r0, r3, #22
1a00b5e4:	f100 830f 	bmi.w	1a00bc06 <_svfprintf_r+0x1356>
1a00b5e8:	6814      	ldr	r4, [r2, #0]
1a00b5ea:	9109      	str	r1, [sp, #36]	; 0x24
1a00b5ec:	2201      	movs	r2, #1
1a00b5ee:	2500      	movs	r5, #0
1a00b5f0:	f7ff ba56 	b.w	1a00aaa0 <_svfprintf_r+0x1f0>
1a00b5f4:	f418 7f00 	tst.w	r8, #512	; 0x200
1a00b5f8:	f040 8313 	bne.w	1a00bc22 <_svfprintf_r+0x1372>
1a00b5fc:	6814      	ldr	r4, [r2, #0]
1a00b5fe:	9309      	str	r3, [sp, #36]	; 0x24
1a00b600:	2500      	movs	r5, #0
1a00b602:	f7ff ba4a 	b.w	1a00aa9a <_svfprintf_r+0x1ea>
1a00b606:	0598      	lsls	r0, r3, #22
1a00b608:	f100 8303 	bmi.w	1a00bc12 <_svfprintf_r+0x1362>
1a00b60c:	680c      	ldr	r4, [r1, #0]
1a00b60e:	9209      	str	r2, [sp, #36]	; 0x24
1a00b610:	17e5      	asrs	r5, r4, #31
1a00b612:	4620      	mov	r0, r4
1a00b614:	4629      	mov	r1, r5
1a00b616:	f7ff ba96 	b.w	1a00ab46 <_svfprintf_r+0x296>
1a00b61a:	9a05      	ldr	r2, [sp, #20]
1a00b61c:	4610      	mov	r0, r2
1a00b61e:	17d1      	asrs	r1, r2, #31
1a00b620:	e9c3 0100 	strd	r0, r1, [r3]
1a00b624:	465e      	mov	r6, fp
1a00b626:	e43a      	b.n	1a00ae9e <_svfprintf_r+0x5ee>
1a00b628:	e9dd 0112 	ldrd	r0, r1, [sp, #72]	; 0x48
1a00b62c:	4602      	mov	r2, r0
1a00b62e:	460b      	mov	r3, r1
1a00b630:	f001 fd80 	bl	1a00d134 <__aeabi_dcmpun>
1a00b634:	2800      	cmp	r0, #0
1a00b636:	f040 8599 	bne.w	1a00c16c <_svfprintf_r+0x18bc>
1a00b63a:	2f61      	cmp	r7, #97	; 0x61
1a00b63c:	f000 8407 	beq.w	1a00be4e <_svfprintf_r+0x159e>
1a00b640:	2f41      	cmp	r7, #65	; 0x41
1a00b642:	f000 82f9 	beq.w	1a00bc38 <_svfprintf_r+0x1388>
1a00b646:	f448 7380 	orr.w	r3, r8, #256	; 0x100
1a00b64a:	f027 0220 	bic.w	r2, r7, #32
1a00b64e:	f1ba 3fff 	cmp.w	sl, #4294967295	; 0xffffffff
1a00b652:	930e      	str	r3, [sp, #56]	; 0x38
1a00b654:	9204      	str	r2, [sp, #16]
1a00b656:	9b13      	ldr	r3, [sp, #76]	; 0x4c
1a00b658:	f000 851f 	beq.w	1a00c09a <_svfprintf_r+0x17ea>
1a00b65c:	2a47      	cmp	r2, #71	; 0x47
1a00b65e:	f000 8516 	beq.w	1a00c08e <_svfprintf_r+0x17de>
1a00b662:	2b00      	cmp	r3, #0
1a00b664:	f2c0 83e9 	blt.w	1a00be3a <_svfprintf_r+0x158a>
1a00b668:	ed9d 7b12 	vldr	d7, [sp, #72]	; 0x48
1a00b66c:	e9cd 000a 	strd	r0, r0, [sp, #40]	; 0x28
1a00b670:	ed8d 7b1e 	vstr	d7, [sp, #120]	; 0x78
1a00b674:	2f66      	cmp	r7, #102	; 0x66
1a00b676:	f000 84dd 	beq.w	1a00c034 <_svfprintf_r+0x1784>
1a00b67a:	2f46      	cmp	r7, #70	; 0x46
1a00b67c:	f000 8562 	beq.w	1a00c144 <_svfprintf_r+0x1894>
1a00b680:	9b04      	ldr	r3, [sp, #16]
1a00b682:	9803      	ldr	r0, [sp, #12]
1a00b684:	2b45      	cmp	r3, #69	; 0x45
1a00b686:	bf0c      	ite	eq
1a00b688:	f10a 0501 	addeq.w	r5, sl, #1
1a00b68c:	4655      	movne	r5, sl
1a00b68e:	aa28      	add	r2, sp, #160	; 0xa0
1a00b690:	ab25      	add	r3, sp, #148	; 0x94
1a00b692:	e9cd 3200 	strd	r3, r2, [sp]
1a00b696:	2102      	movs	r1, #2
1a00b698:	ab24      	add	r3, sp, #144	; 0x90
1a00b69a:	462a      	mov	r2, r5
1a00b69c:	ed9d 0b1e 	vldr	d0, [sp, #120]	; 0x78
1a00b6a0:	f7fa fe42 	bl	1a006328 <_dtoa_r>
1a00b6a4:	2f67      	cmp	r7, #103	; 0x67
1a00b6a6:	4606      	mov	r6, r0
1a00b6a8:	f040 8595 	bne.w	1a00c1d6 <_svfprintf_r+0x1926>
1a00b6ac:	f018 0f01 	tst.w	r8, #1
1a00b6b0:	f040 84f7 	bne.w	1a00c0a2 <_svfprintf_r+0x17f2>
1a00b6b4:	9b28      	ldr	r3, [sp, #160]	; 0xa0
1a00b6b6:	4640      	mov	r0, r8
1a00b6b8:	1b9b      	subs	r3, r3, r6
1a00b6ba:	f8dd 8038 	ldr.w	r8, [sp, #56]	; 0x38
1a00b6be:	9310      	str	r3, [sp, #64]	; 0x40
1a00b6c0:	9b24      	ldr	r3, [sp, #144]	; 0x90
1a00b6c2:	9311      	str	r3, [sp, #68]	; 0x44
1a00b6c4:	9b04      	ldr	r3, [sp, #16]
1a00b6c6:	2b47      	cmp	r3, #71	; 0x47
1a00b6c8:	f000 8371 	beq.w	1a00bdae <_svfprintf_r+0x14fe>
1a00b6cc:	9b04      	ldr	r3, [sp, #16]
1a00b6ce:	2b46      	cmp	r3, #70	; 0x46
1a00b6d0:	f000 8407 	beq.w	1a00bee2 <_svfprintf_r+0x1632>
1a00b6d4:	9904      	ldr	r1, [sp, #16]
1a00b6d6:	9b11      	ldr	r3, [sp, #68]	; 0x44
1a00b6d8:	b2fa      	uxtb	r2, r7
1a00b6da:	2941      	cmp	r1, #65	; 0x41
1a00b6dc:	bf08      	it	eq
1a00b6de:	320f      	addeq	r2, #15
1a00b6e0:	f103 33ff 	add.w	r3, r3, #4294967295	; 0xffffffff
1a00b6e4:	bf06      	itte	eq
1a00b6e6:	b2d2      	uxtbeq	r2, r2
1a00b6e8:	2101      	moveq	r1, #1
1a00b6ea:	2100      	movne	r1, #0
1a00b6ec:	2b00      	cmp	r3, #0
1a00b6ee:	9324      	str	r3, [sp, #144]	; 0x90
1a00b6f0:	bfb8      	it	lt
1a00b6f2:	9b11      	ldrlt	r3, [sp, #68]	; 0x44
1a00b6f4:	f88d 2098 	strb.w	r2, [sp, #152]	; 0x98
1a00b6f8:	bfba      	itte	lt
1a00b6fa:	f1c3 0301 	rsblt	r3, r3, #1
1a00b6fe:	222d      	movlt	r2, #45	; 0x2d
1a00b700:	222b      	movge	r2, #43	; 0x2b
1a00b702:	2b09      	cmp	r3, #9
1a00b704:	f88d 2099 	strb.w	r2, [sp, #153]	; 0x99
1a00b708:	f300 84e5 	bgt.w	1a00c0d6 <_svfprintf_r+0x1826>
1a00b70c:	2900      	cmp	r1, #0
1a00b70e:	f040 856a 	bne.w	1a00c1e6 <_svfprintf_r+0x1936>
1a00b712:	2230      	movs	r2, #48	; 0x30
1a00b714:	f88d 209a 	strb.w	r2, [sp, #154]	; 0x9a
1a00b718:	f10d 029b 	add.w	r2, sp, #155	; 0x9b
1a00b71c:	3330      	adds	r3, #48	; 0x30
1a00b71e:	7013      	strb	r3, [r2, #0]
1a00b720:	1c53      	adds	r3, r2, #1
1a00b722:	aa26      	add	r2, sp, #152	; 0x98
1a00b724:	1a9b      	subs	r3, r3, r2
1a00b726:	9a10      	ldr	r2, [sp, #64]	; 0x40
1a00b728:	9319      	str	r3, [sp, #100]	; 0x64
1a00b72a:	2a01      	cmp	r2, #1
1a00b72c:	4413      	add	r3, r2
1a00b72e:	9308      	str	r3, [sp, #32]
1a00b730:	f340 8528 	ble.w	1a00c184 <_svfprintf_r+0x18d4>
1a00b734:	9b08      	ldr	r3, [sp, #32]
1a00b736:	9a16      	ldr	r2, [sp, #88]	; 0x58
1a00b738:	4413      	add	r3, r2
1a00b73a:	9308      	str	r3, [sp, #32]
1a00b73c:	2300      	movs	r3, #0
1a00b73e:	930f      	str	r3, [sp, #60]	; 0x3c
1a00b740:	9314      	str	r3, [sp, #80]	; 0x50
1a00b742:	9311      	str	r3, [sp, #68]	; 0x44
1a00b744:	9b08      	ldr	r3, [sp, #32]
1a00b746:	f420 6080 	bic.w	r0, r0, #1024	; 0x400
1a00b74a:	ea23 73e3 	bic.w	r3, r3, r3, asr #31
1a00b74e:	f440 7880 	orr.w	r8, r0, #256	; 0x100
1a00b752:	9304      	str	r3, [sp, #16]
1a00b754:	9b0b      	ldr	r3, [sp, #44]	; 0x2c
1a00b756:	2b00      	cmp	r3, #0
1a00b758:	f040 833c 	bne.w	1a00bdd4 <_svfprintf_r+0x1524>
1a00b75c:	469a      	mov	sl, r3
1a00b75e:	f89d 208b 	ldrb.w	r2, [sp, #139]	; 0x8b
1a00b762:	f7ff b9c6 	b.w	1a00aaf2 <_svfprintf_r+0x242>
1a00b766:	9a2b      	ldr	r2, [sp, #172]	; 0xac
1a00b768:	4912      	ldr	r1, [pc, #72]	; (1a00b7b4 <_svfprintf_r+0xf04>)
1a00b76a:	f8c9 1000 	str.w	r1, [r9]
1a00b76e:	3201      	adds	r2, #1
1a00b770:	3401      	adds	r4, #1
1a00b772:	2101      	movs	r1, #1
1a00b774:	2a07      	cmp	r2, #7
1a00b776:	e9cd 242b 	strd	r2, r4, [sp, #172]	; 0xac
1a00b77a:	f8c9 1004 	str.w	r1, [r9, #4]
1a00b77e:	f73f adb2 	bgt.w	1a00b2e6 <_svfprintf_r+0xa36>
1a00b782:	f109 0908 	add.w	r9, r9, #8
1a00b786:	e5ba      	b.n	1a00b2fe <_svfprintf_r+0xa4e>
1a00b788:	2140      	movs	r1, #64	; 0x40
1a00b78a:	9803      	ldr	r0, [sp, #12]
1a00b78c:	f7fc fae6 	bl	1a007d5c <_malloc_r>
1a00b790:	9b06      	ldr	r3, [sp, #24]
1a00b792:	6018      	str	r0, [r3, #0]
1a00b794:	6118      	str	r0, [r3, #16]
1a00b796:	2800      	cmp	r0, #0
1a00b798:	f000 8553 	beq.w	1a00c242 <_svfprintf_r+0x1992>
1a00b79c:	9a06      	ldr	r2, [sp, #24]
1a00b79e:	2340      	movs	r3, #64	; 0x40
1a00b7a0:	6153      	str	r3, [r2, #20]
1a00b7a2:	f7ff b89c 	b.w	1a00a8de <_svfprintf_r+0x2e>
1a00b7a6:	4252      	negs	r2, r2
1a00b7a8:	9207      	str	r2, [sp, #28]
1a00b7aa:	9309      	str	r3, [sp, #36]	; 0x24
1a00b7ac:	f7ff ba56 	b.w	1a00ac5c <_svfprintf_r+0x3ac>
1a00b7b0:	1a00d968 	.word	0x1a00d968
1a00b7b4:	1a00d780 	.word	0x1a00d780
1a00b7b8:	aa2a      	add	r2, sp, #168	; 0xa8
1a00b7ba:	9906      	ldr	r1, [sp, #24]
1a00b7bc:	9803      	ldr	r0, [sp, #12]
1a00b7be:	f001 fbbf 	bl	1a00cf40 <__ssprint_r>
1a00b7c2:	2800      	cmp	r0, #0
1a00b7c4:	f47f a947 	bne.w	1a00aa56 <_svfprintf_r+0x1a6>
1a00b7c8:	e9dd 342b 	ldrd	r3, r4, [sp, #172]	; 0xac
1a00b7cc:	3301      	adds	r3, #1
1a00b7ce:	9308      	str	r3, [sp, #32]
1a00b7d0:	f10d 09bc 	add.w	r9, sp, #188	; 0xbc
1a00b7d4:	af2d      	add	r7, sp, #180	; 0xb4
1a00b7d6:	e607      	b.n	1a00b3e8 <_svfprintf_r+0xb38>
1a00b7d8:	aa2a      	add	r2, sp, #168	; 0xa8
1a00b7da:	9906      	ldr	r1, [sp, #24]
1a00b7dc:	9803      	ldr	r0, [sp, #12]
1a00b7de:	f001 fbaf 	bl	1a00cf40 <__ssprint_r>
1a00b7e2:	2800      	cmp	r0, #0
1a00b7e4:	f47f a937 	bne.w	1a00aa56 <_svfprintf_r+0x1a6>
1a00b7e8:	9c2c      	ldr	r4, [sp, #176]	; 0xb0
1a00b7ea:	f10d 09b4 	add.w	r9, sp, #180	; 0xb4
1a00b7ee:	e507      	b.n	1a00b200 <_svfprintf_r+0x950>
1a00b7f0:	4653      	mov	r3, sl
1a00b7f2:	2b06      	cmp	r3, #6
1a00b7f4:	bf28      	it	cs
1a00b7f6:	2306      	movcs	r3, #6
1a00b7f8:	46b2      	mov	sl, r6
1a00b7fa:	960f      	str	r6, [sp, #60]	; 0x3c
1a00b7fc:	9614      	str	r6, [sp, #80]	; 0x50
1a00b7fe:	9611      	str	r6, [sp, #68]	; 0x44
1a00b800:	960a      	str	r6, [sp, #40]	; 0x28
1a00b802:	4632      	mov	r2, r6
1a00b804:	9304      	str	r3, [sp, #16]
1a00b806:	e9cd 3408 	strd	r3, r4, [sp, #32]
1a00b80a:	4ea4      	ldr	r6, [pc, #656]	; (1a00ba9c <_svfprintf_r+0x11ec>)
1a00b80c:	f7ff b971 	b.w	1a00aaf2 <_svfprintf_r+0x242>
1a00b810:	aa2a      	add	r2, sp, #168	; 0xa8
1a00b812:	9906      	ldr	r1, [sp, #24]
1a00b814:	9803      	ldr	r0, [sp, #12]
1a00b816:	f001 fb93 	bl	1a00cf40 <__ssprint_r>
1a00b81a:	2800      	cmp	r0, #0
1a00b81c:	f47f a91b 	bne.w	1a00aa56 <_svfprintf_r+0x1a6>
1a00b820:	f89d 208b 	ldrb.w	r2, [sp, #139]	; 0x8b
1a00b824:	9c2c      	ldr	r4, [sp, #176]	; 0xb0
1a00b826:	f10d 09b4 	add.w	r9, sp, #180	; 0xb4
1a00b82a:	f7ff ba79 	b.w	1a00ad20 <_svfprintf_r+0x470>
1a00b82e:	460c      	mov	r4, r1
1a00b830:	4631      	mov	r1, r6
1a00b832:	464e      	mov	r6, r9
1a00b834:	4699      	mov	r9, r3
1a00b836:	460b      	mov	r3, r1
1a00b838:	3201      	adds	r2, #1
1a00b83a:	442c      	add	r4, r5
1a00b83c:	2a07      	cmp	r2, #7
1a00b83e:	e9cd 242b 	strd	r2, r4, [sp, #172]	; 0xac
1a00b842:	e9c9 3500 	strd	r3, r5, [r9]
1a00b846:	f340 81d1 	ble.w	1a00bbec <_svfprintf_r+0x133c>
1a00b84a:	aa2a      	add	r2, sp, #168	; 0xa8
1a00b84c:	9906      	ldr	r1, [sp, #24]
1a00b84e:	9803      	ldr	r0, [sp, #12]
1a00b850:	f001 fb76 	bl	1a00cf40 <__ssprint_r>
1a00b854:	2800      	cmp	r0, #0
1a00b856:	f47f a8fe 	bne.w	1a00aa56 <_svfprintf_r+0x1a6>
1a00b85a:	9c2c      	ldr	r4, [sp, #176]	; 0xb0
1a00b85c:	f10d 09b4 	add.w	r9, sp, #180	; 0xb4
1a00b860:	9b11      	ldr	r3, [sp, #68]	; 0x44
1a00b862:	f418 6f80 	tst.w	r8, #1024	; 0x400
1a00b866:	4433      	add	r3, r6
1a00b868:	469a      	mov	sl, r3
1a00b86a:	f040 811b 	bne.w	1a00baa4 <_svfprintf_r+0x11f4>
1a00b86e:	9b24      	ldr	r3, [sp, #144]	; 0x90
1a00b870:	9a10      	ldr	r2, [sp, #64]	; 0x40
1a00b872:	4293      	cmp	r3, r2
1a00b874:	db49      	blt.n	1a00b90a <_svfprintf_r+0x105a>
1a00b876:	f018 0f01 	tst.w	r8, #1
1a00b87a:	d146      	bne.n	1a00b90a <_svfprintf_r+0x105a>
1a00b87c:	9a10      	ldr	r2, [sp, #64]	; 0x40
1a00b87e:	18b5      	adds	r5, r6, r2
1a00b880:	eba5 050a 	sub.w	r5, r5, sl
1a00b884:	1ad3      	subs	r3, r2, r3
1a00b886:	429d      	cmp	r5, r3
1a00b888:	bfa8      	it	ge
1a00b88a:	461d      	movge	r5, r3
1a00b88c:	2d00      	cmp	r5, #0
1a00b88e:	dd0d      	ble.n	1a00b8ac <_svfprintf_r+0xffc>
1a00b890:	9a2b      	ldr	r2, [sp, #172]	; 0xac
1a00b892:	f8c9 a000 	str.w	sl, [r9]
1a00b896:	3201      	adds	r2, #1
1a00b898:	442c      	add	r4, r5
1a00b89a:	2a07      	cmp	r2, #7
1a00b89c:	942c      	str	r4, [sp, #176]	; 0xb0
1a00b89e:	f8c9 5004 	str.w	r5, [r9, #4]
1a00b8a2:	922b      	str	r2, [sp, #172]	; 0xac
1a00b8a4:	f300 833c 	bgt.w	1a00bf20 <_svfprintf_r+0x1670>
1a00b8a8:	f109 0908 	add.w	r9, r9, #8
1a00b8ac:	2d00      	cmp	r5, #0
1a00b8ae:	bfac      	ite	ge
1a00b8b0:	1b5d      	subge	r5, r3, r5
1a00b8b2:	461d      	movlt	r5, r3
1a00b8b4:	2d00      	cmp	r5, #0
1a00b8b6:	f77f aaa5 	ble.w	1a00ae04 <_svfprintf_r+0x554>
1a00b8ba:	2d10      	cmp	r5, #16
1a00b8bc:	9a2b      	ldr	r2, [sp, #172]	; 0xac
1a00b8be:	4b78      	ldr	r3, [pc, #480]	; (1a00baa0 <_svfprintf_r+0x11f0>)
1a00b8c0:	f340 80ab 	ble.w	1a00ba1a <_svfprintf_r+0x116a>
1a00b8c4:	4619      	mov	r1, r3
1a00b8c6:	2610      	movs	r6, #16
1a00b8c8:	4623      	mov	r3, r4
1a00b8ca:	9f03      	ldr	r7, [sp, #12]
1a00b8cc:	f8dd a018 	ldr.w	sl, [sp, #24]
1a00b8d0:	460c      	mov	r4, r1
1a00b8d2:	e005      	b.n	1a00b8e0 <_svfprintf_r+0x1030>
1a00b8d4:	f109 0908 	add.w	r9, r9, #8
1a00b8d8:	3d10      	subs	r5, #16
1a00b8da:	2d10      	cmp	r5, #16
1a00b8dc:	f340 809a 	ble.w	1a00ba14 <_svfprintf_r+0x1164>
1a00b8e0:	3201      	adds	r2, #1
1a00b8e2:	3310      	adds	r3, #16
1a00b8e4:	2a07      	cmp	r2, #7
1a00b8e6:	e9cd 232b 	strd	r2, r3, [sp, #172]	; 0xac
1a00b8ea:	e9c9 4600 	strd	r4, r6, [r9]
1a00b8ee:	ddf1      	ble.n	1a00b8d4 <_svfprintf_r+0x1024>
1a00b8f0:	aa2a      	add	r2, sp, #168	; 0xa8
1a00b8f2:	4651      	mov	r1, sl
1a00b8f4:	4638      	mov	r0, r7
1a00b8f6:	f001 fb23 	bl	1a00cf40 <__ssprint_r>
1a00b8fa:	2800      	cmp	r0, #0
1a00b8fc:	f47f a8ab 	bne.w	1a00aa56 <_svfprintf_r+0x1a6>
1a00b900:	e9dd 232b 	ldrd	r2, r3, [sp, #172]	; 0xac
1a00b904:	f10d 09b4 	add.w	r9, sp, #180	; 0xb4
1a00b908:	e7e6      	b.n	1a00b8d8 <_svfprintf_r+0x1028>
1a00b90a:	9a2b      	ldr	r2, [sp, #172]	; 0xac
1a00b90c:	9917      	ldr	r1, [sp, #92]	; 0x5c
1a00b90e:	f8c9 1000 	str.w	r1, [r9]
1a00b912:	9916      	ldr	r1, [sp, #88]	; 0x58
1a00b914:	f8c9 1004 	str.w	r1, [r9, #4]
1a00b918:	3201      	adds	r2, #1
1a00b91a:	440c      	add	r4, r1
1a00b91c:	2a07      	cmp	r2, #7
1a00b91e:	942c      	str	r4, [sp, #176]	; 0xb0
1a00b920:	922b      	str	r2, [sp, #172]	; 0xac
1a00b922:	f300 82b5 	bgt.w	1a00be90 <_svfprintf_r+0x15e0>
1a00b926:	f109 0908 	add.w	r9, r9, #8
1a00b92a:	e7a7      	b.n	1a00b87c <_svfprintf_r+0xfcc>
1a00b92c:	2d00      	cmp	r5, #0
1a00b92e:	bf08      	it	eq
1a00b930:	2c0a      	cmpeq	r4, #10
1a00b932:	4698      	mov	r8, r3
1a00b934:	f4ff ad6d 	bcc.w	1a00b412 <_svfprintf_r+0xb62>
1a00b938:	f408 6380 	and.w	r3, r8, #1024	; 0x400
1a00b93c:	2200      	movs	r2, #0
1a00b93e:	f8cd 9020 	str.w	r9, [sp, #32]
1a00b942:	970a      	str	r7, [sp, #40]	; 0x28
1a00b944:	f8cd 802c 	str.w	r8, [sp, #44]	; 0x2c
1a00b948:	ae56      	add	r6, sp, #344	; 0x158
1a00b94a:	4691      	mov	r9, r2
1a00b94c:	f8dd 8068 	ldr.w	r8, [sp, #104]	; 0x68
1a00b950:	461f      	mov	r7, r3
1a00b952:	e00a      	b.n	1a00b96a <_svfprintf_r+0x10ba>
1a00b954:	2300      	movs	r3, #0
1a00b956:	4620      	mov	r0, r4
1a00b958:	4629      	mov	r1, r5
1a00b95a:	220a      	movs	r2, #10
1a00b95c:	f7f6 ff30 	bl	1a0027c0 <__aeabi_uldivmod>
1a00b960:	4604      	mov	r4, r0
1a00b962:	460d      	mov	r5, r1
1a00b964:	ea54 0305 	orrs.w	r3, r4, r5
1a00b968:	d046      	beq.n	1a00b9f8 <_svfprintf_r+0x1148>
1a00b96a:	220a      	movs	r2, #10
1a00b96c:	2300      	movs	r3, #0
1a00b96e:	4620      	mov	r0, r4
1a00b970:	4629      	mov	r1, r5
1a00b972:	f7f6 ff25 	bl	1a0027c0 <__aeabi_uldivmod>
1a00b976:	3230      	adds	r2, #48	; 0x30
1a00b978:	f806 2c01 	strb.w	r2, [r6, #-1]
1a00b97c:	f109 0901 	add.w	r9, r9, #1
1a00b980:	3e01      	subs	r6, #1
1a00b982:	2f00      	cmp	r7, #0
1a00b984:	d0e6      	beq.n	1a00b954 <_svfprintf_r+0x10a4>
1a00b986:	f898 3000 	ldrb.w	r3, [r8]
1a00b98a:	4599      	cmp	r9, r3
1a00b98c:	d1e2      	bne.n	1a00b954 <_svfprintf_r+0x10a4>
1a00b98e:	f1b9 0fff 	cmp.w	r9, #255	; 0xff
1a00b992:	d0df      	beq.n	1a00b954 <_svfprintf_r+0x10a4>
1a00b994:	2d00      	cmp	r5, #0
1a00b996:	bf08      	it	eq
1a00b998:	2c0a      	cmpeq	r4, #10
1a00b99a:	d3db      	bcc.n	1a00b954 <_svfprintf_r+0x10a4>
1a00b99c:	9b1b      	ldr	r3, [sp, #108]	; 0x6c
1a00b99e:	9918      	ldr	r1, [sp, #96]	; 0x60
1a00b9a0:	1af6      	subs	r6, r6, r3
1a00b9a2:	461a      	mov	r2, r3
1a00b9a4:	4630      	mov	r0, r6
1a00b9a6:	f7fd fd05 	bl	1a0093b4 <strncpy>
1a00b9aa:	f898 3001 	ldrb.w	r3, [r8, #1]
1a00b9ae:	2b00      	cmp	r3, #0
1a00b9b0:	f000 8389 	beq.w	1a00c0c6 <_svfprintf_r+0x1816>
1a00b9b4:	f108 0801 	add.w	r8, r8, #1
1a00b9b8:	f04f 0900 	mov.w	r9, #0
1a00b9bc:	e7ca      	b.n	1a00b954 <_svfprintf_r+0x10a4>
1a00b9be:	aa2a      	add	r2, sp, #168	; 0xa8
1a00b9c0:	9906      	ldr	r1, [sp, #24]
1a00b9c2:	9803      	ldr	r0, [sp, #12]
1a00b9c4:	f001 fabc 	bl	1a00cf40 <__ssprint_r>
1a00b9c8:	2800      	cmp	r0, #0
1a00b9ca:	f47f a844 	bne.w	1a00aa56 <_svfprintf_r+0x1a6>
1a00b9ce:	e9dd 542b 	ldrd	r5, r4, [sp, #172]	; 0xac
1a00b9d2:	af2d      	add	r7, sp, #180	; 0xb4
1a00b9d4:	e4d6      	b.n	1a00b384 <_svfprintf_r+0xad4>
1a00b9d6:	aa2a      	add	r2, sp, #168	; 0xa8
1a00b9d8:	9906      	ldr	r1, [sp, #24]
1a00b9da:	9803      	ldr	r0, [sp, #12]
1a00b9dc:	f001 fab0 	bl	1a00cf40 <__ssprint_r>
1a00b9e0:	2800      	cmp	r0, #0
1a00b9e2:	f47f a838 	bne.w	1a00aa56 <_svfprintf_r+0x1a6>
1a00b9e6:	e9dd 342b 	ldrd	r3, r4, [sp, #172]	; 0xac
1a00b9ea:	af2d      	add	r7, sp, #180	; 0xb4
1a00b9ec:	930b      	str	r3, [sp, #44]	; 0x2c
1a00b9ee:	e4d6      	b.n	1a00b39e <_svfprintf_r+0xaee>
1a00b9f0:	2a01      	cmp	r2, #1
1a00b9f2:	f47f a8c2 	bne.w	1a00ab7a <_svfprintf_r+0x2ca>
1a00b9f6:	e50c      	b.n	1a00b412 <_svfprintf_r+0xb62>
1a00b9f8:	9b04      	ldr	r3, [sp, #16]
1a00b9fa:	f8cd 9040 	str.w	r9, [sp, #64]	; 0x40
1a00b9fe:	1b9b      	subs	r3, r3, r6
1a00ba00:	f8dd 9020 	ldr.w	r9, [sp, #32]
1a00ba04:	f8cd 8068 	str.w	r8, [sp, #104]	; 0x68
1a00ba08:	9f0a      	ldr	r7, [sp, #40]	; 0x28
1a00ba0a:	f8dd 802c 	ldr.w	r8, [sp, #44]	; 0x2c
1a00ba0e:	9308      	str	r3, [sp, #32]
1a00ba10:	f7ff b863 	b.w	1a00aada <_svfprintf_r+0x22a>
1a00ba14:	4621      	mov	r1, r4
1a00ba16:	461c      	mov	r4, r3
1a00ba18:	460b      	mov	r3, r1
1a00ba1a:	3201      	adds	r2, #1
1a00ba1c:	442c      	add	r4, r5
1a00ba1e:	2a07      	cmp	r2, #7
1a00ba20:	e9cd 242b 	strd	r2, r4, [sp, #172]	; 0xac
1a00ba24:	e9c9 3500 	strd	r3, r5, [r9]
1a00ba28:	f77f a9ea 	ble.w	1a00ae00 <_svfprintf_r+0x550>
1a00ba2c:	e489      	b.n	1a00b342 <_svfprintf_r+0xa92>
1a00ba2e:	aa2a      	add	r2, sp, #168	; 0xa8
1a00ba30:	9906      	ldr	r1, [sp, #24]
1a00ba32:	9803      	ldr	r0, [sp, #12]
1a00ba34:	f001 fa84 	bl	1a00cf40 <__ssprint_r>
1a00ba38:	2800      	cmp	r0, #0
1a00ba3a:	f47f a80c 	bne.w	1a00aa56 <_svfprintf_r+0x1a6>
1a00ba3e:	9c2c      	ldr	r4, [sp, #176]	; 0xb0
1a00ba40:	f10d 09b4 	add.w	r9, sp, #180	; 0xb4
1a00ba44:	f7ff b990 	b.w	1a00ad68 <_svfprintf_r+0x4b8>
1a00ba48:	aa2a      	add	r2, sp, #168	; 0xa8
1a00ba4a:	9906      	ldr	r1, [sp, #24]
1a00ba4c:	9803      	ldr	r0, [sp, #12]
1a00ba4e:	f001 fa77 	bl	1a00cf40 <__ssprint_r>
1a00ba52:	2800      	cmp	r0, #0
1a00ba54:	f47e afff 	bne.w	1a00aa56 <_svfprintf_r+0x1a6>
1a00ba58:	f10d 09b4 	add.w	r9, sp, #180	; 0xb4
1a00ba5c:	f7ff bbba 	b.w	1a00b1d4 <_svfprintf_r+0x924>
1a00ba60:	4614      	mov	r4, r2
1a00ba62:	463a      	mov	r2, r7
1a00ba64:	461f      	mov	r7, r3
1a00ba66:	4613      	mov	r3, r2
1a00ba68:	462a      	mov	r2, r5
1a00ba6a:	3201      	adds	r2, #1
1a00ba6c:	9208      	str	r2, [sp, #32]
1a00ba6e:	f107 0208 	add.w	r2, r7, #8
1a00ba72:	e9c7 3a00 	strd	r3, sl, [r7]
1a00ba76:	9b08      	ldr	r3, [sp, #32]
1a00ba78:	932b      	str	r3, [sp, #172]	; 0xac
1a00ba7a:	4454      	add	r4, sl
1a00ba7c:	2b07      	cmp	r3, #7
1a00ba7e:	942c      	str	r4, [sp, #176]	; 0xb0
1a00ba80:	f73f ae9a 	bgt.w	1a00b7b8 <_svfprintf_r+0xf08>
1a00ba84:	3301      	adds	r3, #1
1a00ba86:	9308      	str	r3, [sp, #32]
1a00ba88:	f102 0908 	add.w	r9, r2, #8
1a00ba8c:	4617      	mov	r7, r2
1a00ba8e:	e4ab      	b.n	1a00b3e8 <_svfprintf_r+0xb38>
1a00ba90:	9a05      	ldr	r2, [sp, #20]
1a00ba92:	601a      	str	r2, [r3, #0]
1a00ba94:	465e      	mov	r6, fp
1a00ba96:	f7ff ba02 	b.w	1a00ae9e <_svfprintf_r+0x5ee>
1a00ba9a:	bf00      	nop
1a00ba9c:	1a00d778 	.word	0x1a00d778
1a00baa0:	1a00d968 	.word	0x1a00d968
1a00baa4:	9b10      	ldr	r3, [sp, #64]	; 0x40
1a00baa6:	f8cd b02c 	str.w	fp, [sp, #44]	; 0x2c
1a00baaa:	18f3      	adds	r3, r6, r3
1a00baac:	9308      	str	r3, [sp, #32]
1a00baae:	9b14      	ldr	r3, [sp, #80]	; 0x50
1a00bab0:	f8cd 8038 	str.w	r8, [sp, #56]	; 0x38
1a00bab4:	464a      	mov	r2, r9
1a00bab6:	960c      	str	r6, [sp, #48]	; 0x30
1a00bab8:	4fc2      	ldr	r7, [pc, #776]	; (1a00bdc4 <_svfprintf_r+0x1514>)
1a00baba:	f8dd 906c 	ldr.w	r9, [sp, #108]	; 0x6c
1a00babe:	f8dd 8068 	ldr.w	r8, [sp, #104]	; 0x68
1a00bac2:	f8dd b018 	ldr.w	fp, [sp, #24]
1a00bac6:	4656      	mov	r6, sl
1a00bac8:	4621      	mov	r1, r4
1a00baca:	f8dd a00c 	ldr.w	sl, [sp, #12]
1a00bace:	2b00      	cmp	r3, #0
1a00bad0:	d05e      	beq.n	1a00bb90 <_svfprintf_r+0x12e0>
1a00bad2:	9b0f      	ldr	r3, [sp, #60]	; 0x3c
1a00bad4:	2b00      	cmp	r3, #0
1a00bad6:	d15f      	bne.n	1a00bb98 <_svfprintf_r+0x12e8>
1a00bad8:	9b14      	ldr	r3, [sp, #80]	; 0x50
1a00bada:	3b01      	subs	r3, #1
1a00badc:	f108 38ff 	add.w	r8, r8, #4294967295	; 0xffffffff
1a00bae0:	9314      	str	r3, [sp, #80]	; 0x50
1a00bae2:	9b2b      	ldr	r3, [sp, #172]	; 0xac
1a00bae4:	9818      	ldr	r0, [sp, #96]	; 0x60
1a00bae6:	6010      	str	r0, [r2, #0]
1a00bae8:	3301      	adds	r3, #1
1a00baea:	4449      	add	r1, r9
1a00baec:	2b07      	cmp	r3, #7
1a00baee:	912c      	str	r1, [sp, #176]	; 0xb0
1a00baf0:	f8c2 9004 	str.w	r9, [r2, #4]
1a00baf4:	932b      	str	r3, [sp, #172]	; 0xac
1a00baf6:	dc53      	bgt.n	1a00bba0 <_svfprintf_r+0x12f0>
1a00baf8:	3208      	adds	r2, #8
1a00bafa:	9808      	ldr	r0, [sp, #32]
1a00bafc:	f898 3000 	ldrb.w	r3, [r8]
1a00bb00:	1b85      	subs	r5, r0, r6
1a00bb02:	429d      	cmp	r5, r3
1a00bb04:	bfa8      	it	ge
1a00bb06:	461d      	movge	r5, r3
1a00bb08:	2d00      	cmp	r5, #0
1a00bb0a:	dd0b      	ble.n	1a00bb24 <_svfprintf_r+0x1274>
1a00bb0c:	9b2b      	ldr	r3, [sp, #172]	; 0xac
1a00bb0e:	6016      	str	r6, [r2, #0]
1a00bb10:	3301      	adds	r3, #1
1a00bb12:	4429      	add	r1, r5
1a00bb14:	2b07      	cmp	r3, #7
1a00bb16:	912c      	str	r1, [sp, #176]	; 0xb0
1a00bb18:	6055      	str	r5, [r2, #4]
1a00bb1a:	932b      	str	r3, [sp, #172]	; 0xac
1a00bb1c:	dc4b      	bgt.n	1a00bbb6 <_svfprintf_r+0x1306>
1a00bb1e:	f898 3000 	ldrb.w	r3, [r8]
1a00bb22:	3208      	adds	r2, #8
1a00bb24:	2d00      	cmp	r5, #0
1a00bb26:	bfac      	ite	ge
1a00bb28:	1b5d      	subge	r5, r3, r5
1a00bb2a:	461d      	movlt	r5, r3
1a00bb2c:	2d00      	cmp	r5, #0
1a00bb2e:	dd2b      	ble.n	1a00bb88 <_svfprintf_r+0x12d8>
1a00bb30:	2d10      	cmp	r5, #16
1a00bb32:	982b      	ldr	r0, [sp, #172]	; 0xac
1a00bb34:	dd1c      	ble.n	1a00bb70 <_svfprintf_r+0x12c0>
1a00bb36:	2410      	movs	r4, #16
1a00bb38:	e004      	b.n	1a00bb44 <_svfprintf_r+0x1294>
1a00bb3a:	3d10      	subs	r5, #16
1a00bb3c:	2d10      	cmp	r5, #16
1a00bb3e:	f102 0208 	add.w	r2, r2, #8
1a00bb42:	dd15      	ble.n	1a00bb70 <_svfprintf_r+0x12c0>
1a00bb44:	3001      	adds	r0, #1
1a00bb46:	3110      	adds	r1, #16
1a00bb48:	2807      	cmp	r0, #7
1a00bb4a:	e9cd 012b 	strd	r0, r1, [sp, #172]	; 0xac
1a00bb4e:	e9c2 7400 	strd	r7, r4, [r2]
1a00bb52:	ddf2      	ble.n	1a00bb3a <_svfprintf_r+0x128a>
1a00bb54:	aa2a      	add	r2, sp, #168	; 0xa8
1a00bb56:	4659      	mov	r1, fp
1a00bb58:	4650      	mov	r0, sl
1a00bb5a:	f001 f9f1 	bl	1a00cf40 <__ssprint_r>
1a00bb5e:	2800      	cmp	r0, #0
1a00bb60:	f47e af79 	bne.w	1a00aa56 <_svfprintf_r+0x1a6>
1a00bb64:	3d10      	subs	r5, #16
1a00bb66:	2d10      	cmp	r5, #16
1a00bb68:	e9dd 012b 	ldrd	r0, r1, [sp, #172]	; 0xac
1a00bb6c:	aa2d      	add	r2, sp, #180	; 0xb4
1a00bb6e:	dce9      	bgt.n	1a00bb44 <_svfprintf_r+0x1294>
1a00bb70:	3001      	adds	r0, #1
1a00bb72:	4429      	add	r1, r5
1a00bb74:	2807      	cmp	r0, #7
1a00bb76:	e9cd 012b 	strd	r0, r1, [sp, #172]	; 0xac
1a00bb7a:	e9c2 7500 	strd	r7, r5, [r2]
1a00bb7e:	f73e af62 	bgt.w	1a00aa46 <_svfprintf_r+0x196>
1a00bb82:	f898 3000 	ldrb.w	r3, [r8]
1a00bb86:	3208      	adds	r2, #8
1a00bb88:	441e      	add	r6, r3
1a00bb8a:	9b14      	ldr	r3, [sp, #80]	; 0x50
1a00bb8c:	2b00      	cmp	r3, #0
1a00bb8e:	d1a0      	bne.n	1a00bad2 <_svfprintf_r+0x1222>
1a00bb90:	9b0f      	ldr	r3, [sp, #60]	; 0x3c
1a00bb92:	2b00      	cmp	r3, #0
1a00bb94:	f000 80fb 	beq.w	1a00bd8e <_svfprintf_r+0x14de>
1a00bb98:	9b0f      	ldr	r3, [sp, #60]	; 0x3c
1a00bb9a:	3b01      	subs	r3, #1
1a00bb9c:	930f      	str	r3, [sp, #60]	; 0x3c
1a00bb9e:	e7a0      	b.n	1a00bae2 <_svfprintf_r+0x1232>
1a00bba0:	aa2a      	add	r2, sp, #168	; 0xa8
1a00bba2:	4659      	mov	r1, fp
1a00bba4:	4650      	mov	r0, sl
1a00bba6:	f001 f9cb 	bl	1a00cf40 <__ssprint_r>
1a00bbaa:	2800      	cmp	r0, #0
1a00bbac:	f47e af53 	bne.w	1a00aa56 <_svfprintf_r+0x1a6>
1a00bbb0:	992c      	ldr	r1, [sp, #176]	; 0xb0
1a00bbb2:	aa2d      	add	r2, sp, #180	; 0xb4
1a00bbb4:	e7a1      	b.n	1a00bafa <_svfprintf_r+0x124a>
1a00bbb6:	aa2a      	add	r2, sp, #168	; 0xa8
1a00bbb8:	4659      	mov	r1, fp
1a00bbba:	4650      	mov	r0, sl
1a00bbbc:	f001 f9c0 	bl	1a00cf40 <__ssprint_r>
1a00bbc0:	2800      	cmp	r0, #0
1a00bbc2:	f47e af48 	bne.w	1a00aa56 <_svfprintf_r+0x1a6>
1a00bbc6:	f898 3000 	ldrb.w	r3, [r8]
1a00bbca:	992c      	ldr	r1, [sp, #176]	; 0xb0
1a00bbcc:	aa2d      	add	r2, sp, #180	; 0xb4
1a00bbce:	e7a9      	b.n	1a00bb24 <_svfprintf_r+0x1274>
1a00bbd0:	4630      	mov	r0, r6
1a00bbd2:	f7f7 f915 	bl	1a002e00 <strlen>
1a00bbd6:	46aa      	mov	sl, r5
1a00bbd8:	4603      	mov	r3, r0
1a00bbda:	9008      	str	r0, [sp, #32]
1a00bbdc:	f7ff b9a6 	b.w	1a00af2c <_svfprintf_r+0x67c>
1a00bbe0:	f898 3000 	ldrb.w	r3, [r8]
1a00bbe4:	992c      	ldr	r1, [sp, #176]	; 0xb0
1a00bbe6:	aa2d      	add	r2, sp, #180	; 0xb4
1a00bbe8:	441e      	add	r6, r3
1a00bbea:	e7ce      	b.n	1a00bb8a <_svfprintf_r+0x12da>
1a00bbec:	f109 0908 	add.w	r9, r9, #8
1a00bbf0:	e636      	b.n	1a00b860 <_svfprintf_r+0xfb0>
1a00bbf2:	7814      	ldrb	r4, [r2, #0]
1a00bbf4:	9309      	str	r3, [sp, #36]	; 0x24
1a00bbf6:	2500      	movs	r5, #0
1a00bbf8:	f7ff b803 	b.w	1a00ac02 <_svfprintf_r+0x352>
1a00bbfc:	9a05      	ldr	r2, [sp, #20]
1a00bbfe:	801a      	strh	r2, [r3, #0]
1a00bc00:	465e      	mov	r6, fp
1a00bc02:	f7ff b94c 	b.w	1a00ae9e <_svfprintf_r+0x5ee>
1a00bc06:	7814      	ldrb	r4, [r2, #0]
1a00bc08:	9109      	str	r1, [sp, #36]	; 0x24
1a00bc0a:	2500      	movs	r5, #0
1a00bc0c:	2201      	movs	r2, #1
1a00bc0e:	f7fe bf47 	b.w	1a00aaa0 <_svfprintf_r+0x1f0>
1a00bc12:	f991 4000 	ldrsb.w	r4, [r1]
1a00bc16:	9209      	str	r2, [sp, #36]	; 0x24
1a00bc18:	17e5      	asrs	r5, r4, #31
1a00bc1a:	4620      	mov	r0, r4
1a00bc1c:	4629      	mov	r1, r5
1a00bc1e:	f7fe bf92 	b.w	1a00ab46 <_svfprintf_r+0x296>
1a00bc22:	7814      	ldrb	r4, [r2, #0]
1a00bc24:	9309      	str	r3, [sp, #36]	; 0x24
1a00bc26:	2500      	movs	r5, #0
1a00bc28:	f7fe bf37 	b.w	1a00aa9a <_svfprintf_r+0x1ea>
1a00bc2c:	f018 0f01 	tst.w	r8, #1
1a00bc30:	f43f a8e8 	beq.w	1a00ae04 <_svfprintf_r+0x554>
1a00bc34:	f7ff bb68 	b.w	1a00b308 <_svfprintf_r+0xa58>
1a00bc38:	2330      	movs	r3, #48	; 0x30
1a00bc3a:	f88d 308c 	strb.w	r3, [sp, #140]	; 0x8c
1a00bc3e:	2358      	movs	r3, #88	; 0x58
1a00bc40:	f1ba 0f63 	cmp.w	sl, #99	; 0x63
1a00bc44:	f88d 308d 	strb.w	r3, [sp, #141]	; 0x8d
1a00bc48:	f048 0402 	orr.w	r4, r8, #2
1a00bc4c:	f300 81b6 	bgt.w	1a00bfbc <_svfprintf_r+0x170c>
1a00bc50:	f448 7381 	orr.w	r3, r8, #258	; 0x102
1a00bc54:	930e      	str	r3, [sp, #56]	; 0x38
1a00bc56:	f027 0320 	bic.w	r3, r7, #32
1a00bc5a:	9304      	str	r3, [sp, #16]
1a00bc5c:	2200      	movs	r2, #0
1a00bc5e:	9b13      	ldr	r3, [sp, #76]	; 0x4c
1a00bc60:	920a      	str	r2, [sp, #40]	; 0x28
1a00bc62:	46a0      	mov	r8, r4
1a00bc64:	ae3d      	add	r6, sp, #244	; 0xf4
1a00bc66:	2b00      	cmp	r3, #0
1a00bc68:	f2c0 80e8 	blt.w	1a00be3c <_svfprintf_r+0x158c>
1a00bc6c:	ed9d 7b12 	vldr	d7, [sp, #72]	; 0x48
1a00bc70:	ed8d 7b1e 	vstr	d7, [sp, #120]	; 0x78
1a00bc74:	2300      	movs	r3, #0
1a00bc76:	930b      	str	r3, [sp, #44]	; 0x2c
1a00bc78:	2f61      	cmp	r7, #97	; 0x61
1a00bc7a:	f000 8160 	beq.w	1a00bf3e <_svfprintf_r+0x168e>
1a00bc7e:	2f41      	cmp	r7, #65	; 0x41
1a00bc80:	f47f acf8 	bne.w	1a00b674 <_svfprintf_r+0xdc4>
1a00bc84:	a824      	add	r0, sp, #144	; 0x90
1a00bc86:	ed9d 0b1e 	vldr	d0, [sp, #120]	; 0x78
1a00bc8a:	f7fd fabb 	bl	1a009204 <frexp>
1a00bc8e:	2200      	movs	r2, #0
1a00bc90:	f04f 537f 	mov.w	r3, #1069547520	; 0x3fc00000
1a00bc94:	ec51 0b10 	vmov	r0, r1, d0
1a00bc98:	f7f6 faa8 	bl	1a0021ec <__aeabi_dmul>
1a00bc9c:	2200      	movs	r2, #0
1a00bc9e:	2300      	movs	r3, #0
1a00bca0:	e9cd 010c 	strd	r0, r1, [sp, #48]	; 0x30
1a00bca4:	f7f6 fd0a 	bl	1a0026bc <__aeabi_dcmpeq>
1a00bca8:	2800      	cmp	r0, #0
1a00bcaa:	f040 8243 	bne.w	1a00c134 <_svfprintf_r+0x1884>
1a00bcae:	4b46      	ldr	r3, [pc, #280]	; (1a00bdc8 <_svfprintf_r+0x1518>)
1a00bcb0:	9308      	str	r3, [sp, #32]
1a00bcb2:	f10a 34ff 	add.w	r4, sl, #4294967295	; 0xffffffff
1a00bcb6:	e9cd 9b0f 	strd	r9, fp, [sp, #60]	; 0x3c
1a00bcba:	9711      	str	r7, [sp, #68]	; 0x44
1a00bcbc:	f8cd a050 	str.w	sl, [sp, #80]	; 0x50
1a00bcc0:	46b1      	mov	r9, r6
1a00bcc2:	9621      	str	r6, [sp, #132]	; 0x84
1a00bcc4:	f8cd 8080 	str.w	r8, [sp, #128]	; 0x80
1a00bcc8:	f8dd a020 	ldr.w	sl, [sp, #32]
1a00bccc:	e9dd 670c 	ldrd	r6, r7, [sp, #48]	; 0x30
1a00bcd0:	e003      	b.n	1a00bcda <_svfprintf_r+0x142a>
1a00bcd2:	f7f6 fcf3 	bl	1a0026bc <__aeabi_dcmpeq>
1a00bcd6:	bb20      	cbnz	r0, 1a00bd22 <_svfprintf_r+0x1472>
1a00bcd8:	46a9      	mov	r9, r5
1a00bcda:	2200      	movs	r2, #0
1a00bcdc:	4b3b      	ldr	r3, [pc, #236]	; (1a00bdcc <_svfprintf_r+0x151c>)
1a00bcde:	4630      	mov	r0, r6
1a00bce0:	4639      	mov	r1, r7
1a00bce2:	f7f6 fa83 	bl	1a0021ec <__aeabi_dmul>
1a00bce6:	460f      	mov	r7, r1
1a00bce8:	4606      	mov	r6, r0
1a00bcea:	f001 fa39 	bl	1a00d160 <__aeabi_d2iz>
1a00bcee:	4680      	mov	r8, r0
1a00bcf0:	f7f6 fa12 	bl	1a002118 <__aeabi_i2d>
1a00bcf4:	4602      	mov	r2, r0
1a00bcf6:	460b      	mov	r3, r1
1a00bcf8:	4630      	mov	r0, r6
1a00bcfa:	4639      	mov	r1, r7
1a00bcfc:	f7f6 f8be 	bl	1a001e7c <__aeabi_dsub>
1a00bd00:	464d      	mov	r5, r9
1a00bd02:	f81a c008 	ldrb.w	ip, [sl, r8]
1a00bd06:	f805 cb01 	strb.w	ip, [r5], #1
1a00bd0a:	f1b4 3fff 	cmp.w	r4, #4294967295	; 0xffffffff
1a00bd0e:	46a3      	mov	fp, r4
1a00bd10:	4606      	mov	r6, r0
1a00bd12:	460f      	mov	r7, r1
1a00bd14:	f04f 0200 	mov.w	r2, #0
1a00bd18:	f04f 0300 	mov.w	r3, #0
1a00bd1c:	f104 34ff 	add.w	r4, r4, #4294967295	; 0xffffffff
1a00bd20:	d1d7      	bne.n	1a00bcd2 <_svfprintf_r+0x1422>
1a00bd22:	4630      	mov	r0, r6
1a00bd24:	4639      	mov	r1, r7
1a00bd26:	2200      	movs	r2, #0
1a00bd28:	4b29      	ldr	r3, [pc, #164]	; (1a00bdd0 <_svfprintf_r+0x1520>)
1a00bd2a:	9f11      	ldr	r7, [sp, #68]	; 0x44
1a00bd2c:	f8dd a050 	ldr.w	sl, [sp, #80]	; 0x50
1a00bd30:	f8cd 9044 	str.w	r9, [sp, #68]	; 0x44
1a00bd34:	4644      	mov	r4, r8
1a00bd36:	f8dd 903c 	ldr.w	r9, [sp, #60]	; 0x3c
1a00bd3a:	f8dd 8080 	ldr.w	r8, [sp, #128]	; 0x80
1a00bd3e:	f8cd b03c 	str.w	fp, [sp, #60]	; 0x3c
1a00bd42:	9e21      	ldr	r6, [sp, #132]	; 0x84
1a00bd44:	f8dd b040 	ldr.w	fp, [sp, #64]	; 0x40
1a00bd48:	e9cd 010c 	strd	r0, r1, [sp, #48]	; 0x30
1a00bd4c:	f7f6 fcde 	bl	1a00270c <__aeabi_dcmpgt>
1a00bd50:	2800      	cmp	r0, #0
1a00bd52:	f040 80aa 	bne.w	1a00beaa <_svfprintf_r+0x15fa>
1a00bd56:	e9dd 010c 	ldrd	r0, r1, [sp, #48]	; 0x30
1a00bd5a:	2200      	movs	r2, #0
1a00bd5c:	4b1c      	ldr	r3, [pc, #112]	; (1a00bdd0 <_svfprintf_r+0x1520>)
1a00bd5e:	f7f6 fcad 	bl	1a0026bc <__aeabi_dcmpeq>
1a00bd62:	b118      	cbz	r0, 1a00bd6c <_svfprintf_r+0x14bc>
1a00bd64:	4623      	mov	r3, r4
1a00bd66:	07db      	lsls	r3, r3, #31
1a00bd68:	f100 809f 	bmi.w	1a00beaa <_svfprintf_r+0x15fa>
1a00bd6c:	9b0f      	ldr	r3, [sp, #60]	; 0x3c
1a00bd6e:	2b00      	cmp	r3, #0
1a00bd70:	db07      	blt.n	1a00bd82 <_svfprintf_r+0x14d2>
1a00bd72:	9b0f      	ldr	r3, [sp, #60]	; 0x3c
1a00bd74:	3301      	adds	r3, #1
1a00bd76:	442b      	add	r3, r5
1a00bd78:	2230      	movs	r2, #48	; 0x30
1a00bd7a:	f805 2b01 	strb.w	r2, [r5], #1
1a00bd7e:	42ab      	cmp	r3, r5
1a00bd80:	d1fb      	bne.n	1a00bd7a <_svfprintf_r+0x14ca>
1a00bd82:	1bab      	subs	r3, r5, r6
1a00bd84:	4640      	mov	r0, r8
1a00bd86:	9310      	str	r3, [sp, #64]	; 0x40
1a00bd88:	f8dd 8038 	ldr.w	r8, [sp, #56]	; 0x38
1a00bd8c:	e498      	b.n	1a00b6c0 <_svfprintf_r+0xe10>
1a00bd8e:	46b2      	mov	sl, r6
1a00bd90:	9b10      	ldr	r3, [sp, #64]	; 0x40
1a00bd92:	9e0c      	ldr	r6, [sp, #48]	; 0x30
1a00bd94:	f8cd 8068 	str.w	r8, [sp, #104]	; 0x68
1a00bd98:	18f3      	adds	r3, r6, r3
1a00bd9a:	459a      	cmp	sl, r3
1a00bd9c:	4691      	mov	r9, r2
1a00bd9e:	f8dd b02c 	ldr.w	fp, [sp, #44]	; 0x2c
1a00bda2:	f8dd 8038 	ldr.w	r8, [sp, #56]	; 0x38
1a00bda6:	460c      	mov	r4, r1
1a00bda8:	bf28      	it	cs
1a00bdaa:	469a      	movcs	sl, r3
1a00bdac:	e55f      	b.n	1a00b86e <_svfprintf_r+0xfbe>
1a00bdae:	9b11      	ldr	r3, [sp, #68]	; 0x44
1a00bdb0:	1cda      	adds	r2, r3, #3
1a00bdb2:	db01      	blt.n	1a00bdb8 <_svfprintf_r+0x1508>
1a00bdb4:	4553      	cmp	r3, sl
1a00bdb6:	dd14      	ble.n	1a00bde2 <_svfprintf_r+0x1532>
1a00bdb8:	3f02      	subs	r7, #2
1a00bdba:	f027 0320 	bic.w	r3, r7, #32
1a00bdbe:	9304      	str	r3, [sp, #16]
1a00bdc0:	e488      	b.n	1a00b6d4 <_svfprintf_r+0xe24>
1a00bdc2:	bf00      	nop
1a00bdc4:	1a00d968 	.word	0x1a00d968
1a00bdc8:	1a00d764 	.word	0x1a00d764
1a00bdcc:	40300000 	.word	0x40300000
1a00bdd0:	3fe00000 	.word	0x3fe00000
1a00bdd4:	222d      	movs	r2, #45	; 0x2d
1a00bdd6:	f88d 208b 	strb.w	r2, [sp, #139]	; 0x8b
1a00bdda:	f04f 0a00 	mov.w	sl, #0
1a00bdde:	f7fe be8b 	b.w	1a00aaf8 <_svfprintf_r+0x248>
1a00bde2:	9b11      	ldr	r3, [sp, #68]	; 0x44
1a00bde4:	9910      	ldr	r1, [sp, #64]	; 0x40
1a00bde6:	428b      	cmp	r3, r1
1a00bde8:	f2c0 8090 	blt.w	1a00bf0c <_svfprintf_r+0x165c>
1a00bdec:	07c2      	lsls	r2, r0, #31
1a00bdee:	f140 81a6 	bpl.w	1a00c13e <_svfprintf_r+0x188e>
1a00bdf2:	9a16      	ldr	r2, [sp, #88]	; 0x58
1a00bdf4:	4413      	add	r3, r2
1a00bdf6:	9308      	str	r3, [sp, #32]
1a00bdf8:	0547      	lsls	r7, r0, #21
1a00bdfa:	d503      	bpl.n	1a00be04 <_svfprintf_r+0x1554>
1a00bdfc:	9b11      	ldr	r3, [sp, #68]	; 0x44
1a00bdfe:	2b00      	cmp	r3, #0
1a00be00:	f300 80ef 	bgt.w	1a00bfe2 <_svfprintf_r+0x1732>
1a00be04:	9b08      	ldr	r3, [sp, #32]
1a00be06:	ea23 73e3 	bic.w	r3, r3, r3, asr #31
1a00be0a:	9304      	str	r3, [sp, #16]
1a00be0c:	2767      	movs	r7, #103	; 0x67
1a00be0e:	2300      	movs	r3, #0
1a00be10:	930f      	str	r3, [sp, #60]	; 0x3c
1a00be12:	9314      	str	r3, [sp, #80]	; 0x50
1a00be14:	e49e      	b.n	1a00b754 <_svfprintf_r+0xea4>
1a00be16:	222d      	movs	r2, #45	; 0x2d
1a00be18:	f88d 208b 	strb.w	r2, [sp, #139]	; 0x8b
1a00be1c:	f7ff b91a 	b.w	1a00b054 <_svfprintf_r+0x7a4>
1a00be20:	aa2a      	add	r2, sp, #168	; 0xa8
1a00be22:	9906      	ldr	r1, [sp, #24]
1a00be24:	9803      	ldr	r0, [sp, #12]
1a00be26:	f001 f88b 	bl	1a00cf40 <__ssprint_r>
1a00be2a:	2800      	cmp	r0, #0
1a00be2c:	f47e ae13 	bne.w	1a00aa56 <_svfprintf_r+0x1a6>
1a00be30:	9c2c      	ldr	r4, [sp, #176]	; 0xb0
1a00be32:	f10d 09b4 	add.w	r9, sp, #180	; 0xb4
1a00be36:	f7ff bb37 	b.w	1a00b4a8 <_svfprintf_r+0xbf8>
1a00be3a:	900a      	str	r0, [sp, #40]	; 0x28
1a00be3c:	e9dd 1212 	ldrd	r1, r2, [sp, #72]	; 0x48
1a00be40:	f102 4300 	add.w	r3, r2, #2147483648	; 0x80000000
1a00be44:	931f      	str	r3, [sp, #124]	; 0x7c
1a00be46:	232d      	movs	r3, #45	; 0x2d
1a00be48:	911e      	str	r1, [sp, #120]	; 0x78
1a00be4a:	930b      	str	r3, [sp, #44]	; 0x2c
1a00be4c:	e714      	b.n	1a00bc78 <_svfprintf_r+0x13c8>
1a00be4e:	2330      	movs	r3, #48	; 0x30
1a00be50:	f88d 308c 	strb.w	r3, [sp, #140]	; 0x8c
1a00be54:	2378      	movs	r3, #120	; 0x78
1a00be56:	e6f3      	b.n	1a00bc40 <_svfprintf_r+0x1390>
1a00be58:	f8cd a010 	str.w	sl, [sp, #16]
1a00be5c:	f8cd a020 	str.w	sl, [sp, #32]
1a00be60:	9409      	str	r4, [sp, #36]	; 0x24
1a00be62:	4682      	mov	sl, r0
1a00be64:	900f      	str	r0, [sp, #60]	; 0x3c
1a00be66:	9014      	str	r0, [sp, #80]	; 0x50
1a00be68:	9011      	str	r0, [sp, #68]	; 0x44
1a00be6a:	f89d 208b 	ldrb.w	r2, [sp, #139]	; 0x8b
1a00be6e:	f7fe be40 	b.w	1a00aaf2 <_svfprintf_r+0x242>
1a00be72:	aa2a      	add	r2, sp, #168	; 0xa8
1a00be74:	9906      	ldr	r1, [sp, #24]
1a00be76:	9803      	ldr	r0, [sp, #12]
1a00be78:	f001 f862 	bl	1a00cf40 <__ssprint_r>
1a00be7c:	2800      	cmp	r0, #0
1a00be7e:	f47e adea 	bne.w	1a00aa56 <_svfprintf_r+0x1a6>
1a00be82:	9b24      	ldr	r3, [sp, #144]	; 0x90
1a00be84:	e9dd 242b 	ldrd	r2, r4, [sp, #172]	; 0xac
1a00be88:	f10d 09b4 	add.w	r9, sp, #180	; 0xb4
1a00be8c:	f7ff ba4c 	b.w	1a00b328 <_svfprintf_r+0xa78>
1a00be90:	aa2a      	add	r2, sp, #168	; 0xa8
1a00be92:	9906      	ldr	r1, [sp, #24]
1a00be94:	9803      	ldr	r0, [sp, #12]
1a00be96:	f001 f853 	bl	1a00cf40 <__ssprint_r>
1a00be9a:	2800      	cmp	r0, #0
1a00be9c:	f47e addb 	bne.w	1a00aa56 <_svfprintf_r+0x1a6>
1a00bea0:	9b24      	ldr	r3, [sp, #144]	; 0x90
1a00bea2:	9c2c      	ldr	r4, [sp, #176]	; 0xb0
1a00bea4:	f10d 09b4 	add.w	r9, sp, #180	; 0xb4
1a00bea8:	e4e8      	b.n	1a00b87c <_svfprintf_r+0xfcc>
1a00beaa:	9b11      	ldr	r3, [sp, #68]	; 0x44
1a00beac:	9328      	str	r3, [sp, #160]	; 0xa0
1a00beae:	9b08      	ldr	r3, [sp, #32]
1a00beb0:	f815 2c01 	ldrb.w	r2, [r5, #-1]
1a00beb4:	7bd9      	ldrb	r1, [r3, #15]
1a00beb6:	4291      	cmp	r1, r2
1a00beb8:	462b      	mov	r3, r5
1a00beba:	d109      	bne.n	1a00bed0 <_svfprintf_r+0x1620>
1a00bebc:	2030      	movs	r0, #48	; 0x30
1a00bebe:	f803 0c01 	strb.w	r0, [r3, #-1]
1a00bec2:	9b28      	ldr	r3, [sp, #160]	; 0xa0
1a00bec4:	1e5a      	subs	r2, r3, #1
1a00bec6:	9228      	str	r2, [sp, #160]	; 0xa0
1a00bec8:	f813 2c01 	ldrb.w	r2, [r3, #-1]
1a00becc:	4291      	cmp	r1, r2
1a00bece:	d0f6      	beq.n	1a00bebe <_svfprintf_r+0x160e>
1a00bed0:	2a39      	cmp	r2, #57	; 0x39
1a00bed2:	bf0b      	itete	eq
1a00bed4:	9a08      	ldreq	r2, [sp, #32]
1a00bed6:	3201      	addne	r2, #1
1a00bed8:	7a92      	ldrbeq	r2, [r2, #10]
1a00beda:	b2d2      	uxtbne	r2, r2
1a00bedc:	f803 2c01 	strb.w	r2, [r3, #-1]
1a00bee0:	e74f      	b.n	1a00bd82 <_svfprintf_r+0x14d2>
1a00bee2:	9b11      	ldr	r3, [sp, #68]	; 0x44
1a00bee4:	2b00      	cmp	r3, #0
1a00bee6:	f340 8152 	ble.w	1a00c18e <_svfprintf_r+0x18de>
1a00beea:	9b11      	ldr	r3, [sp, #68]	; 0x44
1a00beec:	f1ba 0f00 	cmp.w	sl, #0
1a00bef0:	f040 80eb 	bne.w	1a00c0ca <_svfprintf_r+0x181a>
1a00bef4:	07c4      	lsls	r4, r0, #31
1a00bef6:	f100 80e8 	bmi.w	1a00c0ca <_svfprintf_r+0x181a>
1a00befa:	9308      	str	r3, [sp, #32]
1a00befc:	2766      	movs	r7, #102	; 0x66
1a00befe:	0543      	lsls	r3, r0, #21
1a00bf00:	d470      	bmi.n	1a00bfe4 <_svfprintf_r+0x1734>
1a00bf02:	9b08      	ldr	r3, [sp, #32]
1a00bf04:	ea23 73e3 	bic.w	r3, r3, r3, asr #31
1a00bf08:	9304      	str	r3, [sp, #16]
1a00bf0a:	e780      	b.n	1a00be0e <_svfprintf_r+0x155e>
1a00bf0c:	9b10      	ldr	r3, [sp, #64]	; 0x40
1a00bf0e:	9a16      	ldr	r2, [sp, #88]	; 0x58
1a00bf10:	4413      	add	r3, r2
1a00bf12:	9308      	str	r3, [sp, #32]
1a00bf14:	9b11      	ldr	r3, [sp, #68]	; 0x44
1a00bf16:	2b00      	cmp	r3, #0
1a00bf18:	f340 8148 	ble.w	1a00c1ac <_svfprintf_r+0x18fc>
1a00bf1c:	2767      	movs	r7, #103	; 0x67
1a00bf1e:	e7ee      	b.n	1a00befe <_svfprintf_r+0x164e>
1a00bf20:	aa2a      	add	r2, sp, #168	; 0xa8
1a00bf22:	9906      	ldr	r1, [sp, #24]
1a00bf24:	9803      	ldr	r0, [sp, #12]
1a00bf26:	f001 f80b 	bl	1a00cf40 <__ssprint_r>
1a00bf2a:	2800      	cmp	r0, #0
1a00bf2c:	f47e ad93 	bne.w	1a00aa56 <_svfprintf_r+0x1a6>
1a00bf30:	9b24      	ldr	r3, [sp, #144]	; 0x90
1a00bf32:	9a10      	ldr	r2, [sp, #64]	; 0x40
1a00bf34:	9c2c      	ldr	r4, [sp, #176]	; 0xb0
1a00bf36:	1ad3      	subs	r3, r2, r3
1a00bf38:	f10d 09b4 	add.w	r9, sp, #180	; 0xb4
1a00bf3c:	e4b6      	b.n	1a00b8ac <_svfprintf_r+0xffc>
1a00bf3e:	a824      	add	r0, sp, #144	; 0x90
1a00bf40:	ed9d 0b1e 	vldr	d0, [sp, #120]	; 0x78
1a00bf44:	f7fd f95e 	bl	1a009204 <frexp>
1a00bf48:	2200      	movs	r2, #0
1a00bf4a:	f04f 537f 	mov.w	r3, #1069547520	; 0x3fc00000
1a00bf4e:	ec51 0b10 	vmov	r0, r1, d0
1a00bf52:	f7f6 f94b 	bl	1a0021ec <__aeabi_dmul>
1a00bf56:	2200      	movs	r2, #0
1a00bf58:	2300      	movs	r3, #0
1a00bf5a:	e9cd 010c 	strd	r0, r1, [sp, #48]	; 0x30
1a00bf5e:	f7f6 fbad 	bl	1a0026bc <__aeabi_dcmpeq>
1a00bf62:	b108      	cbz	r0, 1a00bf68 <_svfprintf_r+0x16b8>
1a00bf64:	2301      	movs	r3, #1
1a00bf66:	9324      	str	r3, [sp, #144]	; 0x90
1a00bf68:	4bba      	ldr	r3, [pc, #744]	; (1a00c254 <_svfprintf_r+0x19a4>)
1a00bf6a:	9308      	str	r3, [sp, #32]
1a00bf6c:	e6a1      	b.n	1a00bcb2 <_svfprintf_r+0x1402>
1a00bf6e:	425d      	negs	r5, r3
1a00bf70:	3310      	adds	r3, #16
1a00bf72:	4bb9      	ldr	r3, [pc, #740]	; (1a00c258 <_svfprintf_r+0x19a8>)
1a00bf74:	f280 809a 	bge.w	1a00c0ac <_svfprintf_r+0x17fc>
1a00bf78:	4619      	mov	r1, r3
1a00bf7a:	2710      	movs	r7, #16
1a00bf7c:	4623      	mov	r3, r4
1a00bf7e:	f8dd a00c 	ldr.w	sl, [sp, #12]
1a00bf82:	460c      	mov	r4, r1
1a00bf84:	e005      	b.n	1a00bf92 <_svfprintf_r+0x16e2>
1a00bf86:	f109 0908 	add.w	r9, r9, #8
1a00bf8a:	3d10      	subs	r5, #16
1a00bf8c:	2d10      	cmp	r5, #16
1a00bf8e:	f340 808a 	ble.w	1a00c0a6 <_svfprintf_r+0x17f6>
1a00bf92:	3201      	adds	r2, #1
1a00bf94:	3310      	adds	r3, #16
1a00bf96:	2a07      	cmp	r2, #7
1a00bf98:	e9cd 232b 	strd	r2, r3, [sp, #172]	; 0xac
1a00bf9c:	e9c9 4700 	strd	r4, r7, [r9]
1a00bfa0:	ddf1      	ble.n	1a00bf86 <_svfprintf_r+0x16d6>
1a00bfa2:	aa2a      	add	r2, sp, #168	; 0xa8
1a00bfa4:	9906      	ldr	r1, [sp, #24]
1a00bfa6:	4650      	mov	r0, sl
1a00bfa8:	f000 ffca 	bl	1a00cf40 <__ssprint_r>
1a00bfac:	2800      	cmp	r0, #0
1a00bfae:	f47e ad52 	bne.w	1a00aa56 <_svfprintf_r+0x1a6>
1a00bfb2:	e9dd 232b 	ldrd	r2, r3, [sp, #172]	; 0xac
1a00bfb6:	f10d 09b4 	add.w	r9, sp, #180	; 0xb4
1a00bfba:	e7e6      	b.n	1a00bf8a <_svfprintf_r+0x16da>
1a00bfbc:	f10a 0101 	add.w	r1, sl, #1
1a00bfc0:	9803      	ldr	r0, [sp, #12]
1a00bfc2:	f7fb fecb 	bl	1a007d5c <_malloc_r>
1a00bfc6:	4606      	mov	r6, r0
1a00bfc8:	2800      	cmp	r0, #0
1a00bfca:	f000 814f 	beq.w	1a00c26c <_svfprintf_r+0x19bc>
1a00bfce:	f448 7381 	orr.w	r3, r8, #258	; 0x102
1a00bfd2:	930e      	str	r3, [sp, #56]	; 0x38
1a00bfd4:	f027 0320 	bic.w	r3, r7, #32
1a00bfd8:	9304      	str	r3, [sp, #16]
1a00bfda:	46a0      	mov	r8, r4
1a00bfdc:	9b13      	ldr	r3, [sp, #76]	; 0x4c
1a00bfde:	900a      	str	r0, [sp, #40]	; 0x28
1a00bfe0:	e641      	b.n	1a00bc66 <_svfprintf_r+0x13b6>
1a00bfe2:	2767      	movs	r7, #103	; 0x67
1a00bfe4:	981a      	ldr	r0, [sp, #104]	; 0x68
1a00bfe6:	2200      	movs	r2, #0
1a00bfe8:	920f      	str	r2, [sp, #60]	; 0x3c
1a00bfea:	9214      	str	r2, [sp, #80]	; 0x50
1a00bfec:	7803      	ldrb	r3, [r0, #0]
1a00bfee:	9a11      	ldr	r2, [sp, #68]	; 0x44
1a00bff0:	2bff      	cmp	r3, #255	; 0xff
1a00bff2:	d00c      	beq.n	1a00c00e <_svfprintf_r+0x175e>
1a00bff4:	4293      	cmp	r3, r2
1a00bff6:	da0a      	bge.n	1a00c00e <_svfprintf_r+0x175e>
1a00bff8:	7841      	ldrb	r1, [r0, #1]
1a00bffa:	1ad2      	subs	r2, r2, r3
1a00bffc:	b1b1      	cbz	r1, 1a00c02c <_svfprintf_r+0x177c>
1a00bffe:	9b14      	ldr	r3, [sp, #80]	; 0x50
1a00c000:	3301      	adds	r3, #1
1a00c002:	9314      	str	r3, [sp, #80]	; 0x50
1a00c004:	460b      	mov	r3, r1
1a00c006:	2bff      	cmp	r3, #255	; 0xff
1a00c008:	f100 0001 	add.w	r0, r0, #1
1a00c00c:	d1f2      	bne.n	1a00bff4 <_svfprintf_r+0x1744>
1a00c00e:	9211      	str	r2, [sp, #68]	; 0x44
1a00c010:	9b14      	ldr	r3, [sp, #80]	; 0x50
1a00c012:	9a0f      	ldr	r2, [sp, #60]	; 0x3c
1a00c014:	9908      	ldr	r1, [sp, #32]
1a00c016:	901a      	str	r0, [sp, #104]	; 0x68
1a00c018:	4413      	add	r3, r2
1a00c01a:	9a1b      	ldr	r2, [sp, #108]	; 0x6c
1a00c01c:	fb02 1303 	mla	r3, r2, r3, r1
1a00c020:	9308      	str	r3, [sp, #32]
1a00c022:	ea23 73e3 	bic.w	r3, r3, r3, asr #31
1a00c026:	9304      	str	r3, [sp, #16]
1a00c028:	f7ff bb94 	b.w	1a00b754 <_svfprintf_r+0xea4>
1a00c02c:	990f      	ldr	r1, [sp, #60]	; 0x3c
1a00c02e:	3101      	adds	r1, #1
1a00c030:	910f      	str	r1, [sp, #60]	; 0x3c
1a00c032:	e7dd      	b.n	1a00bff0 <_svfprintf_r+0x1740>
1a00c034:	aa28      	add	r2, sp, #160	; 0xa0
1a00c036:	ab25      	add	r3, sp, #148	; 0x94
1a00c038:	e9cd 3200 	strd	r3, r2, [sp]
1a00c03c:	2103      	movs	r1, #3
1a00c03e:	ab24      	add	r3, sp, #144	; 0x90
1a00c040:	4652      	mov	r2, sl
1a00c042:	ed9d 0b1e 	vldr	d0, [sp, #120]	; 0x78
1a00c046:	9803      	ldr	r0, [sp, #12]
1a00c048:	f7fa f96e 	bl	1a006328 <_dtoa_r>
1a00c04c:	4655      	mov	r5, sl
1a00c04e:	4606      	mov	r6, r0
1a00c050:	eb00 040a 	add.w	r4, r0, sl
1a00c054:	7833      	ldrb	r3, [r6, #0]
1a00c056:	2b30      	cmp	r3, #48	; 0x30
1a00c058:	f000 80c9 	beq.w	1a00c1ee <_svfprintf_r+0x193e>
1a00c05c:	9d24      	ldr	r5, [sp, #144]	; 0x90
1a00c05e:	442c      	add	r4, r5
1a00c060:	2200      	movs	r2, #0
1a00c062:	2300      	movs	r3, #0
1a00c064:	e9dd 011e 	ldrd	r0, r1, [sp, #120]	; 0x78
1a00c068:	f7f6 fb28 	bl	1a0026bc <__aeabi_dcmpeq>
1a00c06c:	b110      	cbz	r0, 1a00c074 <_svfprintf_r+0x17c4>
1a00c06e:	4623      	mov	r3, r4
1a00c070:	f7ff bb21 	b.w	1a00b6b6 <_svfprintf_r+0xe06>
1a00c074:	9b28      	ldr	r3, [sp, #160]	; 0xa0
1a00c076:	42a3      	cmp	r3, r4
1a00c078:	f4bf ab1d 	bcs.w	1a00b6b6 <_svfprintf_r+0xe06>
1a00c07c:	2130      	movs	r1, #48	; 0x30
1a00c07e:	1c5a      	adds	r2, r3, #1
1a00c080:	9228      	str	r2, [sp, #160]	; 0xa0
1a00c082:	7019      	strb	r1, [r3, #0]
1a00c084:	9b28      	ldr	r3, [sp, #160]	; 0xa0
1a00c086:	429c      	cmp	r4, r3
1a00c088:	d8f9      	bhi.n	1a00c07e <_svfprintf_r+0x17ce>
1a00c08a:	f7ff bb14 	b.w	1a00b6b6 <_svfprintf_r+0xe06>
1a00c08e:	f1ba 0f00 	cmp.w	sl, #0
1a00c092:	f000 8086 	beq.w	1a00c1a2 <_svfprintf_r+0x18f2>
1a00c096:	900a      	str	r0, [sp, #40]	; 0x28
1a00c098:	e5e5      	b.n	1a00bc66 <_svfprintf_r+0x13b6>
1a00c09a:	900a      	str	r0, [sp, #40]	; 0x28
1a00c09c:	f04f 0a06 	mov.w	sl, #6
1a00c0a0:	e5e1      	b.n	1a00bc66 <_svfprintf_r+0x13b6>
1a00c0a2:	1974      	adds	r4, r6, r5
1a00c0a4:	e7dc      	b.n	1a00c060 <_svfprintf_r+0x17b0>
1a00c0a6:	4621      	mov	r1, r4
1a00c0a8:	461c      	mov	r4, r3
1a00c0aa:	460b      	mov	r3, r1
1a00c0ac:	3201      	adds	r2, #1
1a00c0ae:	442c      	add	r4, r5
1a00c0b0:	2a07      	cmp	r2, #7
1a00c0b2:	e9cd 242b 	strd	r2, r4, [sp, #172]	; 0xac
1a00c0b6:	e9c9 3500 	strd	r3, r5, [r9]
1a00c0ba:	f300 80b0 	bgt.w	1a00c21e <_svfprintf_r+0x196e>
1a00c0be:	f109 0908 	add.w	r9, r9, #8
1a00c0c2:	f7ff b934 	b.w	1a00b32e <_svfprintf_r+0xa7e>
1a00c0c6:	4699      	mov	r9, r3
1a00c0c8:	e444      	b.n	1a00b954 <_svfprintf_r+0x10a4>
1a00c0ca:	9a16      	ldr	r2, [sp, #88]	; 0x58
1a00c0cc:	4413      	add	r3, r2
1a00c0ce:	4453      	add	r3, sl
1a00c0d0:	9308      	str	r3, [sp, #32]
1a00c0d2:	2766      	movs	r7, #102	; 0x66
1a00c0d4:	e713      	b.n	1a00befe <_svfprintf_r+0x164e>
1a00c0d6:	f10d 0ca7 	add.w	ip, sp, #167	; 0xa7
1a00c0da:	4664      	mov	r4, ip
1a00c0dc:	4d5f      	ldr	r5, [pc, #380]	; (1a00c25c <_svfprintf_r+0x19ac>)
1a00c0de:	e000      	b.n	1a00c0e2 <_svfprintf_r+0x1832>
1a00c0e0:	4614      	mov	r4, r2
1a00c0e2:	fba5 1203 	umull	r1, r2, r5, r3
1a00c0e6:	08d2      	lsrs	r2, r2, #3
1a00c0e8:	eb02 0182 	add.w	r1, r2, r2, lsl #2
1a00c0ec:	eba3 0341 	sub.w	r3, r3, r1, lsl #1
1a00c0f0:	f103 0130 	add.w	r1, r3, #48	; 0x30
1a00c0f4:	4613      	mov	r3, r2
1a00c0f6:	2b09      	cmp	r3, #9
1a00c0f8:	f804 1c01 	strb.w	r1, [r4, #-1]
1a00c0fc:	f104 32ff 	add.w	r2, r4, #4294967295	; 0xffffffff
1a00c100:	dcee      	bgt.n	1a00c0e0 <_svfprintf_r+0x1830>
1a00c102:	3330      	adds	r3, #48	; 0x30
1a00c104:	3c02      	subs	r4, #2
1a00c106:	b2db      	uxtb	r3, r3
1a00c108:	45a4      	cmp	ip, r4
1a00c10a:	f802 3c01 	strb.w	r3, [r2, #-1]
1a00c10e:	f240 8094 	bls.w	1a00c23a <_svfprintf_r+0x198a>
1a00c112:	f10d 049a 	add.w	r4, sp, #154	; 0x9a
1a00c116:	4611      	mov	r1, r2
1a00c118:	e001      	b.n	1a00c11e <_svfprintf_r+0x186e>
1a00c11a:	f811 3b01 	ldrb.w	r3, [r1], #1
1a00c11e:	f804 3b01 	strb.w	r3, [r4], #1
1a00c122:	458c      	cmp	ip, r1
1a00c124:	d1f9      	bne.n	1a00c11a <_svfprintf_r+0x186a>
1a00c126:	ab2a      	add	r3, sp, #168	; 0xa8
1a00c128:	1a9b      	subs	r3, r3, r2
1a00c12a:	f10d 029a 	add.w	r2, sp, #154	; 0x9a
1a00c12e:	4413      	add	r3, r2
1a00c130:	f7ff baf7 	b.w	1a00b722 <_svfprintf_r+0xe72>
1a00c134:	2301      	movs	r3, #1
1a00c136:	9324      	str	r3, [sp, #144]	; 0x90
1a00c138:	4b49      	ldr	r3, [pc, #292]	; (1a00c260 <_svfprintf_r+0x19b0>)
1a00c13a:	9308      	str	r3, [sp, #32]
1a00c13c:	e5b9      	b.n	1a00bcb2 <_svfprintf_r+0x1402>
1a00c13e:	9b11      	ldr	r3, [sp, #68]	; 0x44
1a00c140:	9308      	str	r3, [sp, #32]
1a00c142:	e659      	b.n	1a00bdf8 <_svfprintf_r+0x1548>
1a00c144:	aa28      	add	r2, sp, #160	; 0xa0
1a00c146:	ab25      	add	r3, sp, #148	; 0x94
1a00c148:	e9cd 3200 	strd	r3, r2, [sp]
1a00c14c:	2103      	movs	r1, #3
1a00c14e:	ab24      	add	r3, sp, #144	; 0x90
1a00c150:	4652      	mov	r2, sl
1a00c152:	ed9d 0b1e 	vldr	d0, [sp, #120]	; 0x78
1a00c156:	9803      	ldr	r0, [sp, #12]
1a00c158:	f7fa f8e6 	bl	1a006328 <_dtoa_r>
1a00c15c:	4655      	mov	r5, sl
1a00c15e:	4606      	mov	r6, r0
1a00c160:	2f46      	cmp	r7, #70	; 0x46
1a00c162:	eb06 0405 	add.w	r4, r6, r5
1a00c166:	f43f af75 	beq.w	1a00c054 <_svfprintf_r+0x17a4>
1a00c16a:	e779      	b.n	1a00c060 <_svfprintf_r+0x17b0>
1a00c16c:	9b13      	ldr	r3, [sp, #76]	; 0x4c
1a00c16e:	4e3d      	ldr	r6, [pc, #244]	; (1a00c264 <_svfprintf_r+0x19b4>)
1a00c170:	2b00      	cmp	r3, #0
1a00c172:	bfb6      	itet	lt
1a00c174:	222d      	movlt	r2, #45	; 0x2d
1a00c176:	f89d 208b 	ldrbge.w	r2, [sp, #139]	; 0x8b
1a00c17a:	f88d 208b 	strblt.w	r2, [sp, #139]	; 0x8b
1a00c17e:	4b3a      	ldr	r3, [pc, #232]	; (1a00c268 <_svfprintf_r+0x19b8>)
1a00c180:	f7fe bf6a 	b.w	1a00b058 <_svfprintf_r+0x7a8>
1a00c184:	07c5      	lsls	r5, r0, #31
1a00c186:	f57f aad9 	bpl.w	1a00b73c <_svfprintf_r+0xe8c>
1a00c18a:	f7ff bad3 	b.w	1a00b734 <_svfprintf_r+0xe84>
1a00c18e:	f1ba 0f00 	cmp.w	sl, #0
1a00c192:	d117      	bne.n	1a00c1c4 <_svfprintf_r+0x1914>
1a00c194:	07c1      	lsls	r1, r0, #31
1a00c196:	d415      	bmi.n	1a00c1c4 <_svfprintf_r+0x1914>
1a00c198:	2301      	movs	r3, #1
1a00c19a:	9304      	str	r3, [sp, #16]
1a00c19c:	9308      	str	r3, [sp, #32]
1a00c19e:	2766      	movs	r7, #102	; 0x66
1a00c1a0:	e635      	b.n	1a00be0e <_svfprintf_r+0x155e>
1a00c1a2:	f8cd a028 	str.w	sl, [sp, #40]	; 0x28
1a00c1a6:	f04f 0a01 	mov.w	sl, #1
1a00c1aa:	e55c      	b.n	1a00bc66 <_svfprintf_r+0x13b6>
1a00c1ac:	9a08      	ldr	r2, [sp, #32]
1a00c1ae:	f1c3 0301 	rsb	r3, r3, #1
1a00c1b2:	441a      	add	r2, r3
1a00c1b4:	ea22 73e2 	bic.w	r3, r2, r2, asr #31
1a00c1b8:	9208      	str	r2, [sp, #32]
1a00c1ba:	9304      	str	r3, [sp, #16]
1a00c1bc:	2767      	movs	r7, #103	; 0x67
1a00c1be:	e626      	b.n	1a00be0e <_svfprintf_r+0x155e>
1a00c1c0:	464a      	mov	r2, r9
1a00c1c2:	e456      	b.n	1a00ba72 <_svfprintf_r+0x11c2>
1a00c1c4:	9b16      	ldr	r3, [sp, #88]	; 0x58
1a00c1c6:	3301      	adds	r3, #1
1a00c1c8:	4453      	add	r3, sl
1a00c1ca:	9308      	str	r3, [sp, #32]
1a00c1cc:	ea23 73e3 	bic.w	r3, r3, r3, asr #31
1a00c1d0:	9304      	str	r3, [sp, #16]
1a00c1d2:	2766      	movs	r7, #102	; 0x66
1a00c1d4:	e61b      	b.n	1a00be0e <_svfprintf_r+0x155e>
1a00c1d6:	2f47      	cmp	r7, #71	; 0x47
1a00c1d8:	f47f af63 	bne.w	1a00c0a2 <_svfprintf_r+0x17f2>
1a00c1dc:	f018 0f01 	tst.w	r8, #1
1a00c1e0:	f43f aa68 	beq.w	1a00b6b4 <_svfprintf_r+0xe04>
1a00c1e4:	e7bc      	b.n	1a00c160 <_svfprintf_r+0x18b0>
1a00c1e6:	f10d 029a 	add.w	r2, sp, #154	; 0x9a
1a00c1ea:	f7ff ba97 	b.w	1a00b71c <_svfprintf_r+0xe6c>
1a00c1ee:	2200      	movs	r2, #0
1a00c1f0:	2300      	movs	r3, #0
1a00c1f2:	e9dd 011e 	ldrd	r0, r1, [sp, #120]	; 0x78
1a00c1f6:	f7f6 fa61 	bl	1a0026bc <__aeabi_dcmpeq>
1a00c1fa:	2800      	cmp	r0, #0
1a00c1fc:	f47f af2e 	bne.w	1a00c05c <_svfprintf_r+0x17ac>
1a00c200:	f1c5 0501 	rsb	r5, r5, #1
1a00c204:	9524      	str	r5, [sp, #144]	; 0x90
1a00c206:	e72a      	b.n	1a00c05e <_svfprintf_r+0x17ae>
1a00c208:	9909      	ldr	r1, [sp, #36]	; 0x24
1a00c20a:	f89b 7001 	ldrb.w	r7, [fp, #1]
1a00c20e:	680b      	ldr	r3, [r1, #0]
1a00c210:	ea43 7ae3 	orr.w	sl, r3, r3, asr #31
1a00c214:	1d0b      	adds	r3, r1, #4
1a00c216:	4693      	mov	fp, r2
1a00c218:	9309      	str	r3, [sp, #36]	; 0x24
1a00c21a:	f7fe bba2 	b.w	1a00a962 <_svfprintf_r+0xb2>
1a00c21e:	aa2a      	add	r2, sp, #168	; 0xa8
1a00c220:	9906      	ldr	r1, [sp, #24]
1a00c222:	9803      	ldr	r0, [sp, #12]
1a00c224:	f000 fe8c 	bl	1a00cf40 <__ssprint_r>
1a00c228:	2800      	cmp	r0, #0
1a00c22a:	f47e ac14 	bne.w	1a00aa56 <_svfprintf_r+0x1a6>
1a00c22e:	e9dd 242b 	ldrd	r2, r4, [sp, #172]	; 0xac
1a00c232:	f10d 09b4 	add.w	r9, sp, #180	; 0xb4
1a00c236:	f7ff b87a 	b.w	1a00b32e <_svfprintf_r+0xa7e>
1a00c23a:	f10d 039a 	add.w	r3, sp, #154	; 0x9a
1a00c23e:	f7ff ba70 	b.w	1a00b722 <_svfprintf_r+0xe72>
1a00c242:	9a03      	ldr	r2, [sp, #12]
1a00c244:	230c      	movs	r3, #12
1a00c246:	6013      	str	r3, [r2, #0]
1a00c248:	f04f 33ff 	mov.w	r3, #4294967295	; 0xffffffff
1a00c24c:	9305      	str	r3, [sp, #20]
1a00c24e:	f7fe bc11 	b.w	1a00aa74 <_svfprintf_r+0x1c4>
1a00c252:	bf00      	nop
1a00c254:	1a00d750 	.word	0x1a00d750
1a00c258:	1a00d968 	.word	0x1a00d968
1a00c25c:	cccccccd 	.word	0xcccccccd
1a00c260:	1a00d764 	.word	0x1a00d764
1a00c264:	1a00d74c 	.word	0x1a00d74c
1a00c268:	1a00d748 	.word	0x1a00d748
1a00c26c:	9a06      	ldr	r2, [sp, #24]
1a00c26e:	8993      	ldrh	r3, [r2, #12]
1a00c270:	f043 0340 	orr.w	r3, r3, #64	; 0x40
1a00c274:	8193      	strh	r3, [r2, #12]
1a00c276:	f7fe bbf6 	b.w	1a00aa66 <_svfprintf_r+0x1b6>
1a00c27a:	bf00      	nop

1a00c27c <__submore>:
1a00c27c:	f101 0340 	add.w	r3, r1, #64	; 0x40
1a00c280:	e92d 41f0 	stmdb	sp!, {r4, r5, r6, r7, r8, lr}
1a00c284:	460c      	mov	r4, r1
1a00c286:	6b09      	ldr	r1, [r1, #48]	; 0x30
1a00c288:	4299      	cmp	r1, r3
1a00c28a:	d014      	beq.n	1a00c2b6 <__submore+0x3a>
1a00c28c:	6b66      	ldr	r6, [r4, #52]	; 0x34
1a00c28e:	0077      	lsls	r7, r6, #1
1a00c290:	463a      	mov	r2, r7
1a00c292:	f7fc fd73 	bl	1a008d7c <_realloc_r>
1a00c296:	4605      	mov	r5, r0
1a00c298:	b340      	cbz	r0, 1a00c2ec <__submore+0x70>
1a00c29a:	eb00 0806 	add.w	r8, r0, r6
1a00c29e:	4632      	mov	r2, r6
1a00c2a0:	4640      	mov	r0, r8
1a00c2a2:	4629      	mov	r1, r5
1a00c2a4:	f7f6 fc30 	bl	1a002b08 <memcpy>
1a00c2a8:	e9c4 570c 	strd	r5, r7, [r4, #48]	; 0x30
1a00c2ac:	f8c4 8000 	str.w	r8, [r4]
1a00c2b0:	2000      	movs	r0, #0
1a00c2b2:	e8bd 81f0 	ldmia.w	sp!, {r4, r5, r6, r7, r8, pc}
1a00c2b6:	f44f 6180 	mov.w	r1, #1024	; 0x400
1a00c2ba:	f7fb fd4f 	bl	1a007d5c <_malloc_r>
1a00c2be:	b1a8      	cbz	r0, 1a00c2ec <__submore+0x70>
1a00c2c0:	f894 3042 	ldrb.w	r3, [r4, #66]	; 0x42
1a00c2c4:	f44f 6280 	mov.w	r2, #1024	; 0x400
1a00c2c8:	e9c4 020c 	strd	r0, r2, [r4, #48]	; 0x30
1a00c2cc:	f880 33ff 	strb.w	r3, [r0, #1023]	; 0x3ff
1a00c2d0:	f894 3041 	ldrb.w	r3, [r4, #65]	; 0x41
1a00c2d4:	f880 33fe 	strb.w	r3, [r0, #1022]	; 0x3fe
1a00c2d8:	f894 3040 	ldrb.w	r3, [r4, #64]	; 0x40
1a00c2dc:	f880 33fd 	strb.w	r3, [r0, #1021]	; 0x3fd
1a00c2e0:	f200 30fd 	addw	r0, r0, #1021	; 0x3fd
1a00c2e4:	6020      	str	r0, [r4, #0]
1a00c2e6:	2000      	movs	r0, #0
1a00c2e8:	e8bd 81f0 	ldmia.w	sp!, {r4, r5, r6, r7, r8, pc}
1a00c2ec:	f04f 30ff 	mov.w	r0, #4294967295	; 0xffffffff
1a00c2f0:	e7df      	b.n	1a00c2b2 <__submore+0x36>
1a00c2f2:	bf00      	nop

1a00c2f4 <_ungetc_r>:
1a00c2f4:	b570      	push	{r4, r5, r6, lr}
1a00c2f6:	1c4c      	adds	r4, r1, #1
1a00c2f8:	d023      	beq.n	1a00c342 <_ungetc_r+0x4e>
1a00c2fa:	4606      	mov	r6, r0
1a00c2fc:	4614      	mov	r4, r2
1a00c2fe:	460d      	mov	r5, r1
1a00c300:	b110      	cbz	r0, 1a00c308 <_ungetc_r+0x14>
1a00c302:	6b83      	ldr	r3, [r0, #56]	; 0x38
1a00c304:	2b00      	cmp	r3, #0
1a00c306:	d04b      	beq.n	1a00c3a0 <_ungetc_r+0xac>
1a00c308:	6e61      	ldr	r1, [r4, #100]	; 0x64
1a00c30a:	f9b4 300c 	ldrsh.w	r3, [r4, #12]
1a00c30e:	07c8      	lsls	r0, r1, #31
1a00c310:	b29a      	uxth	r2, r3
1a00c312:	d401      	bmi.n	1a00c318 <_ungetc_r+0x24>
1a00c314:	0591      	lsls	r1, r2, #22
1a00c316:	d562      	bpl.n	1a00c3de <_ungetc_r+0xea>
1a00c318:	0492      	lsls	r2, r2, #18
1a00c31a:	d405      	bmi.n	1a00c328 <_ungetc_r+0x34>
1a00c31c:	6e62      	ldr	r2, [r4, #100]	; 0x64
1a00c31e:	f422 5200 	bic.w	r2, r2, #8192	; 0x2000
1a00c322:	f443 5300 	orr.w	r3, r3, #8192	; 0x2000
1a00c326:	6662      	str	r2, [r4, #100]	; 0x64
1a00c328:	f023 0320 	bic.w	r3, r3, #32
1a00c32c:	b29a      	uxth	r2, r3
1a00c32e:	0750      	lsls	r0, r2, #29
1a00c330:	81a3      	strh	r3, [r4, #12]
1a00c332:	d41b      	bmi.n	1a00c36c <_ungetc_r+0x78>
1a00c334:	06d1      	lsls	r1, r2, #27
1a00c336:	d408      	bmi.n	1a00c34a <_ungetc_r+0x56>
1a00c338:	6e63      	ldr	r3, [r4, #100]	; 0x64
1a00c33a:	07d8      	lsls	r0, r3, #31
1a00c33c:	d401      	bmi.n	1a00c342 <_ungetc_r+0x4e>
1a00c33e:	0591      	lsls	r1, r2, #22
1a00c340:	d562      	bpl.n	1a00c408 <_ungetc_r+0x114>
1a00c342:	f04f 35ff 	mov.w	r5, #4294967295	; 0xffffffff
1a00c346:	4628      	mov	r0, r5
1a00c348:	bd70      	pop	{r4, r5, r6, pc}
1a00c34a:	0712      	lsls	r2, r2, #28
1a00c34c:	d50b      	bpl.n	1a00c366 <_ungetc_r+0x72>
1a00c34e:	4621      	mov	r1, r4
1a00c350:	4630      	mov	r0, r6
1a00c352:	f7fa ffa3 	bl	1a00729c <_fflush_r>
1a00c356:	2800      	cmp	r0, #0
1a00c358:	d150      	bne.n	1a00c3fc <_ungetc_r+0x108>
1a00c35a:	f9b4 300c 	ldrsh.w	r3, [r4, #12]
1a00c35e:	60a0      	str	r0, [r4, #8]
1a00c360:	61a0      	str	r0, [r4, #24]
1a00c362:	f023 0308 	bic.w	r3, r3, #8
1a00c366:	f043 0304 	orr.w	r3, r3, #4
1a00c36a:	81a3      	strh	r3, [r4, #12]
1a00c36c:	6b22      	ldr	r2, [r4, #48]	; 0x30
1a00c36e:	6863      	ldr	r3, [r4, #4]
1a00c370:	b2ed      	uxtb	r5, r5
1a00c372:	b1c2      	cbz	r2, 1a00c3a6 <_ungetc_r+0xb2>
1a00c374:	6b62      	ldr	r2, [r4, #52]	; 0x34
1a00c376:	429a      	cmp	r2, r3
1a00c378:	dd3a      	ble.n	1a00c3f0 <_ungetc_r+0xfc>
1a00c37a:	6823      	ldr	r3, [r4, #0]
1a00c37c:	1e5a      	subs	r2, r3, #1
1a00c37e:	6022      	str	r2, [r4, #0]
1a00c380:	f803 5c01 	strb.w	r5, [r3, #-1]
1a00c384:	6863      	ldr	r3, [r4, #4]
1a00c386:	6e62      	ldr	r2, [r4, #100]	; 0x64
1a00c388:	3301      	adds	r3, #1
1a00c38a:	07d2      	lsls	r2, r2, #31
1a00c38c:	6063      	str	r3, [r4, #4]
1a00c38e:	d405      	bmi.n	1a00c39c <_ungetc_r+0xa8>
1a00c390:	89a3      	ldrh	r3, [r4, #12]
1a00c392:	059b      	lsls	r3, r3, #22
1a00c394:	d402      	bmi.n	1a00c39c <_ungetc_r+0xa8>
1a00c396:	6da0      	ldr	r0, [r4, #88]	; 0x58
1a00c398:	f7fb fc56 	bl	1a007c48 <__retarget_lock_release_recursive>
1a00c39c:	4628      	mov	r0, r5
1a00c39e:	bd70      	pop	{r4, r5, r6, pc}
1a00c3a0:	f7fa ffea 	bl	1a007378 <__sinit>
1a00c3a4:	e7b0      	b.n	1a00c308 <_ungetc_r+0x14>
1a00c3a6:	6e62      	ldr	r2, [r4, #100]	; 0x64
1a00c3a8:	6921      	ldr	r1, [r4, #16]
1a00c3aa:	6820      	ldr	r0, [r4, #0]
1a00c3ac:	f002 0201 	and.w	r2, r2, #1
1a00c3b0:	b129      	cbz	r1, 1a00c3be <_ungetc_r+0xca>
1a00c3b2:	4281      	cmp	r1, r0
1a00c3b4:	d203      	bcs.n	1a00c3be <_ungetc_r+0xca>
1a00c3b6:	f810 1c01 	ldrb.w	r1, [r0, #-1]
1a00c3ba:	428d      	cmp	r5, r1
1a00c3bc:	d02a      	beq.n	1a00c414 <_ungetc_r+0x120>
1a00c3be:	4621      	mov	r1, r4
1a00c3c0:	63e3      	str	r3, [r4, #60]	; 0x3c
1a00c3c2:	f104 0640 	add.w	r6, r4, #64	; 0x40
1a00c3c6:	2303      	movs	r3, #3
1a00c3c8:	e9c4 630c 	strd	r6, r3, [r4, #48]	; 0x30
1a00c3cc:	63a0      	str	r0, [r4, #56]	; 0x38
1a00c3ce:	f801 5f42 	strb.w	r5, [r1, #66]!
1a00c3d2:	2301      	movs	r3, #1
1a00c3d4:	e9c4 1300 	strd	r1, r3, [r4]
1a00c3d8:	2a00      	cmp	r2, #0
1a00c3da:	d0d9      	beq.n	1a00c390 <_ungetc_r+0x9c>
1a00c3dc:	e7de      	b.n	1a00c39c <_ungetc_r+0xa8>
1a00c3de:	6da0      	ldr	r0, [r4, #88]	; 0x58
1a00c3e0:	f7fb fc30 	bl	1a007c44 <__retarget_lock_acquire_recursive>
1a00c3e4:	f9b4 300c 	ldrsh.w	r3, [r4, #12]
1a00c3e8:	b29a      	uxth	r2, r3
1a00c3ea:	0492      	lsls	r2, r2, #18
1a00c3ec:	d49c      	bmi.n	1a00c328 <_ungetc_r+0x34>
1a00c3ee:	e795      	b.n	1a00c31c <_ungetc_r+0x28>
1a00c3f0:	4630      	mov	r0, r6
1a00c3f2:	4621      	mov	r1, r4
1a00c3f4:	f7ff ff42 	bl	1a00c27c <__submore>
1a00c3f8:	2800      	cmp	r0, #0
1a00c3fa:	d0be      	beq.n	1a00c37a <_ungetc_r+0x86>
1a00c3fc:	6e63      	ldr	r3, [r4, #100]	; 0x64
1a00c3fe:	07d8      	lsls	r0, r3, #31
1a00c400:	d49f      	bmi.n	1a00c342 <_ungetc_r+0x4e>
1a00c402:	89a3      	ldrh	r3, [r4, #12]
1a00c404:	0599      	lsls	r1, r3, #22
1a00c406:	d49c      	bmi.n	1a00c342 <_ungetc_r+0x4e>
1a00c408:	6da0      	ldr	r0, [r4, #88]	; 0x58
1a00c40a:	f7fb fc1d 	bl	1a007c48 <__retarget_lock_release_recursive>
1a00c40e:	f04f 35ff 	mov.w	r5, #4294967295	; 0xffffffff
1a00c412:	e798      	b.n	1a00c346 <_ungetc_r+0x52>
1a00c414:	3801      	subs	r0, #1
1a00c416:	3301      	adds	r3, #1
1a00c418:	e9c4 0300 	strd	r0, r3, [r4]
1a00c41c:	2a00      	cmp	r2, #0
1a00c41e:	d0b7      	beq.n	1a00c390 <_ungetc_r+0x9c>
1a00c420:	e7bc      	b.n	1a00c39c <_ungetc_r+0xa8>
1a00c422:	bf00      	nop

1a00c424 <__sprint_r.part.0>:
1a00c424:	e92d 4ff8 	stmdb	sp!, {r3, r4, r5, r6, r7, r8, r9, sl, fp, lr}
1a00c428:	6e4b      	ldr	r3, [r1, #100]	; 0x64
1a00c42a:	049c      	lsls	r4, r3, #18
1a00c42c:	4692      	mov	sl, r2
1a00c42e:	d52d      	bpl.n	1a00c48c <__sprint_r.part.0+0x68>
1a00c430:	6893      	ldr	r3, [r2, #8]
1a00c432:	6812      	ldr	r2, [r2, #0]
1a00c434:	b343      	cbz	r3, 1a00c488 <__sprint_r.part.0+0x64>
1a00c436:	460e      	mov	r6, r1
1a00c438:	4607      	mov	r7, r0
1a00c43a:	f102 0908 	add.w	r9, r2, #8
1a00c43e:	e959 5b02 	ldrd	r5, fp, [r9, #-8]
1a00c442:	ea5f 089b 	movs.w	r8, fp, lsr #2
1a00c446:	d015      	beq.n	1a00c474 <__sprint_r.part.0+0x50>
1a00c448:	3d04      	subs	r5, #4
1a00c44a:	2400      	movs	r4, #0
1a00c44c:	e001      	b.n	1a00c452 <__sprint_r.part.0+0x2e>
1a00c44e:	45a0      	cmp	r8, r4
1a00c450:	d00e      	beq.n	1a00c470 <__sprint_r.part.0+0x4c>
1a00c452:	4632      	mov	r2, r6
1a00c454:	f855 1f04 	ldr.w	r1, [r5, #4]!
1a00c458:	4638      	mov	r0, r7
1a00c45a:	f000 f923 	bl	1a00c6a4 <_fputwc_r>
1a00c45e:	1c43      	adds	r3, r0, #1
1a00c460:	f104 0401 	add.w	r4, r4, #1
1a00c464:	d1f3      	bne.n	1a00c44e <__sprint_r.part.0+0x2a>
1a00c466:	2300      	movs	r3, #0
1a00c468:	e9ca 3301 	strd	r3, r3, [sl, #4]
1a00c46c:	e8bd 8ff8 	ldmia.w	sp!, {r3, r4, r5, r6, r7, r8, r9, sl, fp, pc}
1a00c470:	f8da 3008 	ldr.w	r3, [sl, #8]
1a00c474:	f02b 0b03 	bic.w	fp, fp, #3
1a00c478:	eba3 030b 	sub.w	r3, r3, fp
1a00c47c:	f8ca 3008 	str.w	r3, [sl, #8]
1a00c480:	f109 0908 	add.w	r9, r9, #8
1a00c484:	2b00      	cmp	r3, #0
1a00c486:	d1da      	bne.n	1a00c43e <__sprint_r.part.0+0x1a>
1a00c488:	2000      	movs	r0, #0
1a00c48a:	e7ec      	b.n	1a00c466 <__sprint_r.part.0+0x42>
1a00c48c:	f7fb f9ca 	bl	1a007824 <__sfvwrite_r>
1a00c490:	2300      	movs	r3, #0
1a00c492:	e9ca 3301 	strd	r3, r3, [sl, #4]
1a00c496:	e8bd 8ff8 	ldmia.w	sp!, {r3, r4, r5, r6, r7, r8, r9, sl, fp, pc}
1a00c49a:	bf00      	nop

1a00c49c <__sprint_r>:
1a00c49c:	6893      	ldr	r3, [r2, #8]
1a00c49e:	b10b      	cbz	r3, 1a00c4a4 <__sprint_r+0x8>
1a00c4a0:	f7ff bfc0 	b.w	1a00c424 <__sprint_r.part.0>
1a00c4a4:	b410      	push	{r4}
1a00c4a6:	4618      	mov	r0, r3
1a00c4a8:	6053      	str	r3, [r2, #4]
1a00c4aa:	f85d 4b04 	ldr.w	r4, [sp], #4
1a00c4ae:	4770      	bx	lr

1a00c4b0 <__ascii_wctomb>:
1a00c4b0:	b121      	cbz	r1, 1a00c4bc <__ascii_wctomb+0xc>
1a00c4b2:	2aff      	cmp	r2, #255	; 0xff
1a00c4b4:	d804      	bhi.n	1a00c4c0 <__ascii_wctomb+0x10>
1a00c4b6:	700a      	strb	r2, [r1, #0]
1a00c4b8:	2001      	movs	r0, #1
1a00c4ba:	4770      	bx	lr
1a00c4bc:	4608      	mov	r0, r1
1a00c4be:	4770      	bx	lr
1a00c4c0:	238a      	movs	r3, #138	; 0x8a
1a00c4c2:	6003      	str	r3, [r0, #0]
1a00c4c4:	f04f 30ff 	mov.w	r0, #4294967295	; 0xffffffff
1a00c4c8:	4770      	bx	lr
1a00c4ca:	bf00      	nop

1a00c4cc <_calloc_r>:
1a00c4cc:	b510      	push	{r4, lr}
1a00c4ce:	fb02 f101 	mul.w	r1, r2, r1
1a00c4d2:	f7fb fc43 	bl	1a007d5c <_malloc_r>
1a00c4d6:	4604      	mov	r4, r0
1a00c4d8:	b1d8      	cbz	r0, 1a00c512 <_calloc_r+0x46>
1a00c4da:	f850 2c04 	ldr.w	r2, [r0, #-4]
1a00c4de:	f022 0203 	bic.w	r2, r2, #3
1a00c4e2:	3a04      	subs	r2, #4
1a00c4e4:	2a24      	cmp	r2, #36	; 0x24
1a00c4e6:	d81d      	bhi.n	1a00c524 <_calloc_r+0x58>
1a00c4e8:	2a13      	cmp	r2, #19
1a00c4ea:	d914      	bls.n	1a00c516 <_calloc_r+0x4a>
1a00c4ec:	2300      	movs	r3, #0
1a00c4ee:	2a1b      	cmp	r2, #27
1a00c4f0:	e9c0 3300 	strd	r3, r3, [r0]
1a00c4f4:	d91b      	bls.n	1a00c52e <_calloc_r+0x62>
1a00c4f6:	2a24      	cmp	r2, #36	; 0x24
1a00c4f8:	e9c0 3302 	strd	r3, r3, [r0, #8]
1a00c4fc:	bf0a      	itet	eq
1a00c4fe:	e9c0 3304 	strdeq	r3, r3, [r0, #16]
1a00c502:	f100 0210 	addne.w	r2, r0, #16
1a00c506:	f100 0218 	addeq.w	r2, r0, #24
1a00c50a:	2300      	movs	r3, #0
1a00c50c:	e9c2 3300 	strd	r3, r3, [r2]
1a00c510:	6093      	str	r3, [r2, #8]
1a00c512:	4620      	mov	r0, r4
1a00c514:	bd10      	pop	{r4, pc}
1a00c516:	4602      	mov	r2, r0
1a00c518:	2300      	movs	r3, #0
1a00c51a:	e9c2 3300 	strd	r3, r3, [r2]
1a00c51e:	6093      	str	r3, [r2, #8]
1a00c520:	4620      	mov	r0, r4
1a00c522:	bd10      	pop	{r4, pc}
1a00c524:	2100      	movs	r1, #0
1a00c526:	f7f6 fb89 	bl	1a002c3c <memset>
1a00c52a:	4620      	mov	r0, r4
1a00c52c:	bd10      	pop	{r4, pc}
1a00c52e:	f100 0208 	add.w	r2, r0, #8
1a00c532:	e7f1      	b.n	1a00c518 <_calloc_r+0x4c>

1a00c534 <_fclose_r>:
1a00c534:	b570      	push	{r4, r5, r6, lr}
1a00c536:	2900      	cmp	r1, #0
1a00c538:	d048      	beq.n	1a00c5cc <_fclose_r+0x98>
1a00c53a:	4605      	mov	r5, r0
1a00c53c:	460c      	mov	r4, r1
1a00c53e:	b110      	cbz	r0, 1a00c546 <_fclose_r+0x12>
1a00c540:	6b83      	ldr	r3, [r0, #56]	; 0x38
1a00c542:	2b00      	cmp	r3, #0
1a00c544:	d048      	beq.n	1a00c5d8 <_fclose_r+0xa4>
1a00c546:	6e62      	ldr	r2, [r4, #100]	; 0x64
1a00c548:	f9b4 300c 	ldrsh.w	r3, [r4, #12]
1a00c54c:	07d0      	lsls	r0, r2, #31
1a00c54e:	d440      	bmi.n	1a00c5d2 <_fclose_r+0x9e>
1a00c550:	0599      	lsls	r1, r3, #22
1a00c552:	d530      	bpl.n	1a00c5b6 <_fclose_r+0x82>
1a00c554:	4621      	mov	r1, r4
1a00c556:	4628      	mov	r0, r5
1a00c558:	f7fa fdf6 	bl	1a007148 <__sflush_r>
1a00c55c:	6ae3      	ldr	r3, [r4, #44]	; 0x2c
1a00c55e:	4606      	mov	r6, r0
1a00c560:	b133      	cbz	r3, 1a00c570 <_fclose_r+0x3c>
1a00c562:	69e1      	ldr	r1, [r4, #28]
1a00c564:	4628      	mov	r0, r5
1a00c566:	4798      	blx	r3
1a00c568:	2800      	cmp	r0, #0
1a00c56a:	bfb8      	it	lt
1a00c56c:	f04f 36ff 	movlt.w	r6, #4294967295	; 0xffffffff
1a00c570:	89a3      	ldrh	r3, [r4, #12]
1a00c572:	061a      	lsls	r2, r3, #24
1a00c574:	d43c      	bmi.n	1a00c5f0 <_fclose_r+0xbc>
1a00c576:	6b21      	ldr	r1, [r4, #48]	; 0x30
1a00c578:	b141      	cbz	r1, 1a00c58c <_fclose_r+0x58>
1a00c57a:	f104 0340 	add.w	r3, r4, #64	; 0x40
1a00c57e:	4299      	cmp	r1, r3
1a00c580:	d002      	beq.n	1a00c588 <_fclose_r+0x54>
1a00c582:	4628      	mov	r0, r5
1a00c584:	f7fb f85a 	bl	1a00763c <_free_r>
1a00c588:	2300      	movs	r3, #0
1a00c58a:	6323      	str	r3, [r4, #48]	; 0x30
1a00c58c:	6c61      	ldr	r1, [r4, #68]	; 0x44
1a00c58e:	b121      	cbz	r1, 1a00c59a <_fclose_r+0x66>
1a00c590:	4628      	mov	r0, r5
1a00c592:	f7fb f853 	bl	1a00763c <_free_r>
1a00c596:	2300      	movs	r3, #0
1a00c598:	6463      	str	r3, [r4, #68]	; 0x44
1a00c59a:	f7fa ff19 	bl	1a0073d0 <__sfp_lock_acquire>
1a00c59e:	6e63      	ldr	r3, [r4, #100]	; 0x64
1a00c5a0:	2200      	movs	r2, #0
1a00c5a2:	07db      	lsls	r3, r3, #31
1a00c5a4:	81a2      	strh	r2, [r4, #12]
1a00c5a6:	d51f      	bpl.n	1a00c5e8 <_fclose_r+0xb4>
1a00c5a8:	6da0      	ldr	r0, [r4, #88]	; 0x58
1a00c5aa:	f7fb fb49 	bl	1a007c40 <__retarget_lock_close_recursive>
1a00c5ae:	f7fa ff15 	bl	1a0073dc <__sfp_lock_release>
1a00c5b2:	4630      	mov	r0, r6
1a00c5b4:	bd70      	pop	{r4, r5, r6, pc}
1a00c5b6:	6da0      	ldr	r0, [r4, #88]	; 0x58
1a00c5b8:	f7fb fb44 	bl	1a007c44 <__retarget_lock_acquire_recursive>
1a00c5bc:	f9b4 300c 	ldrsh.w	r3, [r4, #12]
1a00c5c0:	2b00      	cmp	r3, #0
1a00c5c2:	d1c7      	bne.n	1a00c554 <_fclose_r+0x20>
1a00c5c4:	6e66      	ldr	r6, [r4, #100]	; 0x64
1a00c5c6:	f016 0601 	ands.w	r6, r6, #1
1a00c5ca:	d016      	beq.n	1a00c5fa <_fclose_r+0xc6>
1a00c5cc:	2600      	movs	r6, #0
1a00c5ce:	4630      	mov	r0, r6
1a00c5d0:	bd70      	pop	{r4, r5, r6, pc}
1a00c5d2:	2b00      	cmp	r3, #0
1a00c5d4:	d0fa      	beq.n	1a00c5cc <_fclose_r+0x98>
1a00c5d6:	e7bd      	b.n	1a00c554 <_fclose_r+0x20>
1a00c5d8:	f7fa fece 	bl	1a007378 <__sinit>
1a00c5dc:	6e62      	ldr	r2, [r4, #100]	; 0x64
1a00c5de:	f9b4 300c 	ldrsh.w	r3, [r4, #12]
1a00c5e2:	07d0      	lsls	r0, r2, #31
1a00c5e4:	d4f5      	bmi.n	1a00c5d2 <_fclose_r+0x9e>
1a00c5e6:	e7b3      	b.n	1a00c550 <_fclose_r+0x1c>
1a00c5e8:	6da0      	ldr	r0, [r4, #88]	; 0x58
1a00c5ea:	f7fb fb2d 	bl	1a007c48 <__retarget_lock_release_recursive>
1a00c5ee:	e7db      	b.n	1a00c5a8 <_fclose_r+0x74>
1a00c5f0:	6921      	ldr	r1, [r4, #16]
1a00c5f2:	4628      	mov	r0, r5
1a00c5f4:	f7fb f822 	bl	1a00763c <_free_r>
1a00c5f8:	e7bd      	b.n	1a00c576 <_fclose_r+0x42>
1a00c5fa:	6da0      	ldr	r0, [r4, #88]	; 0x58
1a00c5fc:	f7fb fb24 	bl	1a007c48 <__retarget_lock_release_recursive>
1a00c600:	4630      	mov	r0, r6
1a00c602:	bd70      	pop	{r4, r5, r6, pc}

1a00c604 <__fputwc>:
1a00c604:	e92d 47f0 	stmdb	sp!, {r4, r5, r6, r7, r8, r9, sl, lr}
1a00c608:	b082      	sub	sp, #8
1a00c60a:	4681      	mov	r9, r0
1a00c60c:	4688      	mov	r8, r1
1a00c60e:	4614      	mov	r4, r2
1a00c610:	f7fb fae4 	bl	1a007bdc <__locale_mb_cur_max>
1a00c614:	2801      	cmp	r0, #1
1a00c616:	d103      	bne.n	1a00c620 <__fputwc+0x1c>
1a00c618:	f108 33ff 	add.w	r3, r8, #4294967295	; 0xffffffff
1a00c61c:	2bfe      	cmp	r3, #254	; 0xfe
1a00c61e:	d933      	bls.n	1a00c688 <__fputwc+0x84>
1a00c620:	4642      	mov	r2, r8
1a00c622:	f104 035c 	add.w	r3, r4, #92	; 0x5c
1a00c626:	a901      	add	r1, sp, #4
1a00c628:	4648      	mov	r0, r9
1a00c62a:	f000 fd5b 	bl	1a00d0e4 <_wcrtomb_r>
1a00c62e:	1c42      	adds	r2, r0, #1
1a00c630:	4606      	mov	r6, r0
1a00c632:	d02f      	beq.n	1a00c694 <__fputwc+0x90>
1a00c634:	b320      	cbz	r0, 1a00c680 <__fputwc+0x7c>
1a00c636:	f89d c004 	ldrb.w	ip, [sp, #4]
1a00c63a:	2500      	movs	r5, #0
1a00c63c:	f10d 0a04 	add.w	sl, sp, #4
1a00c640:	e009      	b.n	1a00c656 <__fputwc+0x52>
1a00c642:	6823      	ldr	r3, [r4, #0]
1a00c644:	1c5a      	adds	r2, r3, #1
1a00c646:	6022      	str	r2, [r4, #0]
1a00c648:	f883 c000 	strb.w	ip, [r3]
1a00c64c:	3501      	adds	r5, #1
1a00c64e:	42b5      	cmp	r5, r6
1a00c650:	d216      	bcs.n	1a00c680 <__fputwc+0x7c>
1a00c652:	f815 c00a 	ldrb.w	ip, [r5, sl]
1a00c656:	68a3      	ldr	r3, [r4, #8]
1a00c658:	3b01      	subs	r3, #1
1a00c65a:	2b00      	cmp	r3, #0
1a00c65c:	60a3      	str	r3, [r4, #8]
1a00c65e:	daf0      	bge.n	1a00c642 <__fputwc+0x3e>
1a00c660:	69a7      	ldr	r7, [r4, #24]
1a00c662:	42bb      	cmp	r3, r7
1a00c664:	4661      	mov	r1, ip
1a00c666:	4622      	mov	r2, r4
1a00c668:	4648      	mov	r0, r9
1a00c66a:	db02      	blt.n	1a00c672 <__fputwc+0x6e>
1a00c66c:	f1bc 0f0a 	cmp.w	ip, #10
1a00c670:	d1e7      	bne.n	1a00c642 <__fputwc+0x3e>
1a00c672:	f000 fcdf 	bl	1a00d034 <__swbuf_r>
1a00c676:	1c43      	adds	r3, r0, #1
1a00c678:	d1e8      	bne.n	1a00c64c <__fputwc+0x48>
1a00c67a:	b002      	add	sp, #8
1a00c67c:	e8bd 87f0 	ldmia.w	sp!, {r4, r5, r6, r7, r8, r9, sl, pc}
1a00c680:	4640      	mov	r0, r8
1a00c682:	b002      	add	sp, #8
1a00c684:	e8bd 87f0 	ldmia.w	sp!, {r4, r5, r6, r7, r8, r9, sl, pc}
1a00c688:	fa5f fc88 	uxtb.w	ip, r8
1a00c68c:	4606      	mov	r6, r0
1a00c68e:	f88d c004 	strb.w	ip, [sp, #4]
1a00c692:	e7d2      	b.n	1a00c63a <__fputwc+0x36>
1a00c694:	89a3      	ldrh	r3, [r4, #12]
1a00c696:	f043 0340 	orr.w	r3, r3, #64	; 0x40
1a00c69a:	81a3      	strh	r3, [r4, #12]
1a00c69c:	b002      	add	sp, #8
1a00c69e:	e8bd 87f0 	ldmia.w	sp!, {r4, r5, r6, r7, r8, r9, sl, pc}
1a00c6a2:	bf00      	nop

1a00c6a4 <_fputwc_r>:
1a00c6a4:	b530      	push	{r4, r5, lr}
1a00c6a6:	4605      	mov	r5, r0
1a00c6a8:	6e50      	ldr	r0, [r2, #100]	; 0x64
1a00c6aa:	f9b2 300c 	ldrsh.w	r3, [r2, #12]
1a00c6ae:	07c0      	lsls	r0, r0, #31
1a00c6b0:	4614      	mov	r4, r2
1a00c6b2:	b083      	sub	sp, #12
1a00c6b4:	b29a      	uxth	r2, r3
1a00c6b6:	d401      	bmi.n	1a00c6bc <_fputwc_r+0x18>
1a00c6b8:	0590      	lsls	r0, r2, #22
1a00c6ba:	d51c      	bpl.n	1a00c6f6 <_fputwc_r+0x52>
1a00c6bc:	0490      	lsls	r0, r2, #18
1a00c6be:	d406      	bmi.n	1a00c6ce <_fputwc_r+0x2a>
1a00c6c0:	6e62      	ldr	r2, [r4, #100]	; 0x64
1a00c6c2:	f443 5300 	orr.w	r3, r3, #8192	; 0x2000
1a00c6c6:	f442 5200 	orr.w	r2, r2, #8192	; 0x2000
1a00c6ca:	81a3      	strh	r3, [r4, #12]
1a00c6cc:	6662      	str	r2, [r4, #100]	; 0x64
1a00c6ce:	4628      	mov	r0, r5
1a00c6d0:	4622      	mov	r2, r4
1a00c6d2:	f7ff ff97 	bl	1a00c604 <__fputwc>
1a00c6d6:	6e63      	ldr	r3, [r4, #100]	; 0x64
1a00c6d8:	07da      	lsls	r2, r3, #31
1a00c6da:	4605      	mov	r5, r0
1a00c6dc:	d402      	bmi.n	1a00c6e4 <_fputwc_r+0x40>
1a00c6de:	89a3      	ldrh	r3, [r4, #12]
1a00c6e0:	059b      	lsls	r3, r3, #22
1a00c6e2:	d502      	bpl.n	1a00c6ea <_fputwc_r+0x46>
1a00c6e4:	4628      	mov	r0, r5
1a00c6e6:	b003      	add	sp, #12
1a00c6e8:	bd30      	pop	{r4, r5, pc}
1a00c6ea:	6da0      	ldr	r0, [r4, #88]	; 0x58
1a00c6ec:	f7fb faac 	bl	1a007c48 <__retarget_lock_release_recursive>
1a00c6f0:	4628      	mov	r0, r5
1a00c6f2:	b003      	add	sp, #12
1a00c6f4:	bd30      	pop	{r4, r5, pc}
1a00c6f6:	6da0      	ldr	r0, [r4, #88]	; 0x58
1a00c6f8:	9101      	str	r1, [sp, #4]
1a00c6fa:	f7fb faa3 	bl	1a007c44 <__retarget_lock_acquire_recursive>
1a00c6fe:	f9b4 300c 	ldrsh.w	r3, [r4, #12]
1a00c702:	9901      	ldr	r1, [sp, #4]
1a00c704:	b29a      	uxth	r2, r3
1a00c706:	e7d9      	b.n	1a00c6bc <_fputwc_r+0x18>

1a00c708 <rshift>:
1a00c708:	e92d 41f0 	stmdb	sp!, {r4, r5, r6, r7, r8, lr}
1a00c70c:	6904      	ldr	r4, [r0, #16]
1a00c70e:	114b      	asrs	r3, r1, #5
1a00c710:	429c      	cmp	r4, r3
1a00c712:	dd2e      	ble.n	1a00c772 <rshift+0x6a>
1a00c714:	f100 0c14 	add.w	ip, r0, #20
1a00c718:	f011 011f 	ands.w	r1, r1, #31
1a00c71c:	4667      	mov	r7, ip
1a00c71e:	eb0c 0484 	add.w	r4, ip, r4, lsl #2
1a00c722:	eb0c 0583 	add.w	r5, ip, r3, lsl #2
1a00c726:	d02a      	beq.n	1a00c77e <rshift+0x76>
1a00c728:	f85c 2023 	ldr.w	r2, [ip, r3, lsl #2]
1a00c72c:	1d2e      	adds	r6, r5, #4
1a00c72e:	42b4      	cmp	r4, r6
1a00c730:	fa22 f201 	lsr.w	r2, r2, r1
1a00c734:	f1c1 0820 	rsb	r8, r1, #32
1a00c738:	d913      	bls.n	1a00c762 <rshift+0x5a>
1a00c73a:	f100 0e10 	add.w	lr, r0, #16
1a00c73e:	6833      	ldr	r3, [r6, #0]
1a00c740:	fa03 f308 	lsl.w	r3, r3, r8
1a00c744:	4313      	orrs	r3, r2
1a00c746:	f84e 3f04 	str.w	r3, [lr, #4]!
1a00c74a:	f856 2b04 	ldr.w	r2, [r6], #4
1a00c74e:	42a6      	cmp	r6, r4
1a00c750:	fa22 f201 	lsr.w	r2, r2, r1
1a00c754:	d3f3      	bcc.n	1a00c73e <rshift+0x36>
1a00c756:	1b63      	subs	r3, r4, r5
1a00c758:	3b05      	subs	r3, #5
1a00c75a:	f023 0303 	bic.w	r3, r3, #3
1a00c75e:	3304      	adds	r3, #4
1a00c760:	449c      	add	ip, r3
1a00c762:	f8cc 2000 	str.w	r2, [ip]
1a00c766:	b312      	cbz	r2, 1a00c7ae <rshift+0xa6>
1a00c768:	f10c 0304 	add.w	r3, ip, #4
1a00c76c:	1bda      	subs	r2, r3, r7
1a00c76e:	1092      	asrs	r2, r2, #2
1a00c770:	e018      	b.n	1a00c7a4 <rshift+0x9c>
1a00c772:	2300      	movs	r3, #0
1a00c774:	6103      	str	r3, [r0, #16]
1a00c776:	2300      	movs	r3, #0
1a00c778:	6143      	str	r3, [r0, #20]
1a00c77a:	e8bd 81f0 	ldmia.w	sp!, {r4, r5, r6, r7, r8, pc}
1a00c77e:	42ac      	cmp	r4, r5
1a00c780:	d9f7      	bls.n	1a00c772 <rshift+0x6a>
1a00c782:	f100 0210 	add.w	r2, r0, #16
1a00c786:	462b      	mov	r3, r5
1a00c788:	f853 1b04 	ldr.w	r1, [r3], #4
1a00c78c:	f842 1f04 	str.w	r1, [r2, #4]!
1a00c790:	429c      	cmp	r4, r3
1a00c792:	d8f9      	bhi.n	1a00c788 <rshift+0x80>
1a00c794:	43ea      	mvns	r2, r5
1a00c796:	4422      	add	r2, r4
1a00c798:	f022 0203 	bic.w	r2, r2, #3
1a00c79c:	3204      	adds	r2, #4
1a00c79e:	eb0c 0302 	add.w	r3, ip, r2
1a00c7a2:	1092      	asrs	r2, r2, #2
1a00c7a4:	42bb      	cmp	r3, r7
1a00c7a6:	6102      	str	r2, [r0, #16]
1a00c7a8:	d0e5      	beq.n	1a00c776 <rshift+0x6e>
1a00c7aa:	e8bd 81f0 	ldmia.w	sp!, {r4, r5, r6, r7, r8, pc}
1a00c7ae:	4663      	mov	r3, ip
1a00c7b0:	1bda      	subs	r2, r3, r7
1a00c7b2:	1092      	asrs	r2, r2, #2
1a00c7b4:	e7f6      	b.n	1a00c7a4 <rshift+0x9c>
1a00c7b6:	bf00      	nop

1a00c7b8 <__gethex>:
1a00c7b8:	e92d 4ff0 	stmdb	sp!, {r4, r5, r6, r7, r8, r9, sl, fp, lr}
1a00c7bc:	b08d      	sub	sp, #52	; 0x34
1a00c7be:	4689      	mov	r9, r1
1a00c7c0:	9007      	str	r0, [sp, #28]
1a00c7c2:	9818      	ldr	r0, [sp, #96]	; 0x60
1a00c7c4:	9204      	str	r2, [sp, #16]
1a00c7c6:	930a      	str	r3, [sp, #40]	; 0x28
1a00c7c8:	f7fb fa28 	bl	1a007c1c <__localeconv_l>
1a00c7cc:	6803      	ldr	r3, [r0, #0]
1a00c7ce:	9305      	str	r3, [sp, #20]
1a00c7d0:	4618      	mov	r0, r3
1a00c7d2:	461c      	mov	r4, r3
1a00c7d4:	f7f6 fb14 	bl	1a002e00 <strlen>
1a00c7d8:	f8d9 3000 	ldr.w	r3, [r9]
1a00c7dc:	9003      	str	r0, [sp, #12]
1a00c7de:	1821      	adds	r1, r4, r0
1a00c7e0:	789a      	ldrb	r2, [r3, #2]
1a00c7e2:	f811 1c01 	ldrb.w	r1, [r1, #-1]
1a00c7e6:	9101      	str	r1, [sp, #4]
1a00c7e8:	2a30      	cmp	r2, #48	; 0x30
1a00c7ea:	f040 8187 	bne.w	1a00cafc <__gethex+0x344>
1a00c7ee:	3303      	adds	r3, #3
1a00c7f0:	f04f 0800 	mov.w	r8, #0
1a00c7f4:	461c      	mov	r4, r3
1a00c7f6:	f813 2b01 	ldrb.w	r2, [r3], #1
1a00c7fa:	2a30      	cmp	r2, #48	; 0x30
1a00c7fc:	f108 0801 	add.w	r8, r8, #1
1a00c800:	d0f8      	beq.n	1a00c7f4 <__gethex+0x3c>
1a00c802:	4ebd      	ldr	r6, [pc, #756]	; (1a00caf8 <__gethex+0x340>)
1a00c804:	5cb3      	ldrb	r3, [r6, r2]
1a00c806:	2b00      	cmp	r3, #0
1a00c808:	f000 80f0 	beq.w	1a00c9ec <__gethex+0x234>
1a00c80c:	7823      	ldrb	r3, [r4, #0]
1a00c80e:	f04f 0a00 	mov.w	sl, #0
1a00c812:	5cf3      	ldrb	r3, [r6, r3]
1a00c814:	4655      	mov	r5, sl
1a00c816:	4627      	mov	r7, r4
1a00c818:	b123      	cbz	r3, 1a00c824 <__gethex+0x6c>
1a00c81a:	f817 3f01 	ldrb.w	r3, [r7, #1]!
1a00c81e:	5cf3      	ldrb	r3, [r6, r3]
1a00c820:	2b00      	cmp	r3, #0
1a00c822:	d1fa      	bne.n	1a00c81a <__gethex+0x62>
1a00c824:	9a03      	ldr	r2, [sp, #12]
1a00c826:	9905      	ldr	r1, [sp, #20]
1a00c828:	4638      	mov	r0, r7
1a00c82a:	f000 fb3d 	bl	1a00cea8 <strncmp>
1a00c82e:	2800      	cmp	r0, #0
1a00c830:	f000 8090 	beq.w	1a00c954 <__gethex+0x19c>
1a00c834:	783b      	ldrb	r3, [r7, #0]
1a00c836:	2d00      	cmp	r5, #0
1a00c838:	f040 8090 	bne.w	1a00c95c <__gethex+0x1a4>
1a00c83c:	2b50      	cmp	r3, #80	; 0x50
1a00c83e:	9502      	str	r5, [sp, #8]
1a00c840:	f000 8092 	beq.w	1a00c968 <__gethex+0x1b0>
1a00c844:	2b70      	cmp	r3, #112	; 0x70
1a00c846:	f000 808f 	beq.w	1a00c968 <__gethex+0x1b0>
1a00c84a:	463d      	mov	r5, r7
1a00c84c:	f8c9 7000 	str.w	r7, [r9]
1a00c850:	f1ba 0f00 	cmp.w	sl, #0
1a00c854:	f040 80b7 	bne.w	1a00c9c6 <__gethex+0x20e>
1a00c858:	1b2b      	subs	r3, r5, r4
1a00c85a:	3b01      	subs	r3, #1
1a00c85c:	2b07      	cmp	r3, #7
1a00c85e:	4651      	mov	r1, sl
1a00c860:	dd04      	ble.n	1a00c86c <__gethex+0xb4>
1a00c862:	105b      	asrs	r3, r3, #1
1a00c864:	2b07      	cmp	r3, #7
1a00c866:	f101 0101 	add.w	r1, r1, #1
1a00c86a:	dcfa      	bgt.n	1a00c862 <__gethex+0xaa>
1a00c86c:	9807      	ldr	r0, [sp, #28]
1a00c86e:	f7fb fe1f 	bl	1a0084b0 <_Balloc>
1a00c872:	4603      	mov	r3, r0
1a00c874:	3314      	adds	r3, #20
1a00c876:	42ac      	cmp	r4, r5
1a00c878:	9006      	str	r0, [sp, #24]
1a00c87a:	9308      	str	r3, [sp, #32]
1a00c87c:	f080 81af 	bcs.w	1a00cbde <__gethex+0x426>
1a00c880:	469b      	mov	fp, r3
1a00c882:	9b03      	ldr	r3, [sp, #12]
1a00c884:	f04f 0800 	mov.w	r8, #0
1a00c888:	f1c3 0301 	rsb	r3, r3, #1
1a00c88c:	46c1      	mov	r9, r8
1a00c88e:	9309      	str	r3, [sp, #36]	; 0x24
1a00c890:	e011      	b.n	1a00c8b6 <__gethex+0xfe>
1a00c892:	f1b8 0f20 	cmp.w	r8, #32
1a00c896:	f000 809f 	beq.w	1a00c9d8 <__gethex+0x220>
1a00c89a:	4642      	mov	r2, r8
1a00c89c:	f108 0804 	add.w	r8, r8, #4
1a00c8a0:	f815 3c01 	ldrb.w	r3, [r5, #-1]
1a00c8a4:	5cf3      	ldrb	r3, [r6, r3]
1a00c8a6:	4655      	mov	r5, sl
1a00c8a8:	f003 030f 	and.w	r3, r3, #15
1a00c8ac:	4093      	lsls	r3, r2
1a00c8ae:	42a5      	cmp	r5, r4
1a00c8b0:	ea49 0903 	orr.w	r9, r9, r3
1a00c8b4:	d918      	bls.n	1a00c8e8 <__gethex+0x130>
1a00c8b6:	f815 3c01 	ldrb.w	r3, [r5, #-1]
1a00c8ba:	9a01      	ldr	r2, [sp, #4]
1a00c8bc:	4293      	cmp	r3, r2
1a00c8be:	f105 3aff 	add.w	sl, r5, #4294967295	; 0xffffffff
1a00c8c2:	f10b 0704 	add.w	r7, fp, #4
1a00c8c6:	d1e4      	bne.n	1a00c892 <__gethex+0xda>
1a00c8c8:	9b09      	ldr	r3, [sp, #36]	; 0x24
1a00c8ca:	4453      	add	r3, sl
1a00c8cc:	42a3      	cmp	r3, r4
1a00c8ce:	d3e0      	bcc.n	1a00c892 <__gethex+0xda>
1a00c8d0:	4618      	mov	r0, r3
1a00c8d2:	9a03      	ldr	r2, [sp, #12]
1a00c8d4:	9905      	ldr	r1, [sp, #20]
1a00c8d6:	930b      	str	r3, [sp, #44]	; 0x2c
1a00c8d8:	f000 fae6 	bl	1a00cea8 <strncmp>
1a00c8dc:	9b0b      	ldr	r3, [sp, #44]	; 0x2c
1a00c8de:	2800      	cmp	r0, #0
1a00c8e0:	d1d7      	bne.n	1a00c892 <__gethex+0xda>
1a00c8e2:	461d      	mov	r5, r3
1a00c8e4:	42a5      	cmp	r5, r4
1a00c8e6:	d8e6      	bhi.n	1a00c8b6 <__gethex+0xfe>
1a00c8e8:	9b08      	ldr	r3, [sp, #32]
1a00c8ea:	f8cb 9000 	str.w	r9, [fp]
1a00c8ee:	1aff      	subs	r7, r7, r3
1a00c8f0:	9b06      	ldr	r3, [sp, #24]
1a00c8f2:	10bf      	asrs	r7, r7, #2
1a00c8f4:	611f      	str	r7, [r3, #16]
1a00c8f6:	4648      	mov	r0, r9
1a00c8f8:	f7fb fe96 	bl	1a008628 <__hi0bits>
1a00c8fc:	9b04      	ldr	r3, [sp, #16]
1a00c8fe:	017f      	lsls	r7, r7, #5
1a00c900:	681e      	ldr	r6, [r3, #0]
1a00c902:	1a3f      	subs	r7, r7, r0
1a00c904:	42b7      	cmp	r7, r6
1a00c906:	f300 80d8 	bgt.w	1a00caba <__gethex+0x302>
1a00c90a:	f2c0 810e 	blt.w	1a00cb2a <__gethex+0x372>
1a00c90e:	2500      	movs	r5, #0
1a00c910:	9b04      	ldr	r3, [sp, #16]
1a00c912:	9a02      	ldr	r2, [sp, #8]
1a00c914:	689b      	ldr	r3, [r3, #8]
1a00c916:	4293      	cmp	r3, r2
1a00c918:	f2c0 8132 	blt.w	1a00cb80 <__gethex+0x3c8>
1a00c91c:	9804      	ldr	r0, [sp, #16]
1a00c91e:	9a02      	ldr	r2, [sp, #8]
1a00c920:	6843      	ldr	r3, [r0, #4]
1a00c922:	4293      	cmp	r3, r2
1a00c924:	dd73      	ble.n	1a00ca0e <__gethex+0x256>
1a00c926:	1a9c      	subs	r4, r3, r2
1a00c928:	42a6      	cmp	r6, r4
1a00c92a:	f300 80a4 	bgt.w	1a00ca76 <__gethex+0x2be>
1a00c92e:	68c2      	ldr	r2, [r0, #12]
1a00c930:	2a02      	cmp	r2, #2
1a00c932:	f000 818b 	beq.w	1a00cc4c <__gethex+0x494>
1a00c936:	2a03      	cmp	r2, #3
1a00c938:	f000 8183 	beq.w	1a00cc42 <__gethex+0x48a>
1a00c93c:	2a01      	cmp	r2, #1
1a00c93e:	f000 815e 	beq.w	1a00cbfe <__gethex+0x446>
1a00c942:	e9dd 1006 	ldrd	r1, r0, [sp, #24]
1a00c946:	f7fb fdd9 	bl	1a0084fc <_Bfree>
1a00c94a:	9a16      	ldr	r2, [sp, #88]	; 0x58
1a00c94c:	2300      	movs	r3, #0
1a00c94e:	6013      	str	r3, [r2, #0]
1a00c950:	2450      	movs	r4, #80	; 0x50
1a00c952:	e03d      	b.n	1a00c9d0 <__gethex+0x218>
1a00c954:	2d00      	cmp	r5, #0
1a00c956:	f000 80da 	beq.w	1a00cb0e <__gethex+0x356>
1a00c95a:	783b      	ldrb	r3, [r7, #0]
1a00c95c:	1bed      	subs	r5, r5, r7
1a00c95e:	00aa      	lsls	r2, r5, #2
1a00c960:	2b50      	cmp	r3, #80	; 0x50
1a00c962:	9202      	str	r2, [sp, #8]
1a00c964:	f47f af6e 	bne.w	1a00c844 <__gethex+0x8c>
1a00c968:	787b      	ldrb	r3, [r7, #1]
1a00c96a:	2b2b      	cmp	r3, #43	; 0x2b
1a00c96c:	f000 80a3 	beq.w	1a00cab6 <__gethex+0x2fe>
1a00c970:	2b2d      	cmp	r3, #45	; 0x2d
1a00c972:	d067      	beq.n	1a00ca44 <__gethex+0x28c>
1a00c974:	1c7a      	adds	r2, r7, #1
1a00c976:	2500      	movs	r5, #0
1a00c978:	5cf3      	ldrb	r3, [r6, r3]
1a00c97a:	1e59      	subs	r1, r3, #1
1a00c97c:	2918      	cmp	r1, #24
1a00c97e:	f63f af64 	bhi.w	1a00c84a <__gethex+0x92>
1a00c982:	7851      	ldrb	r1, [r2, #1]
1a00c984:	5c71      	ldrb	r1, [r6, r1]
1a00c986:	1e48      	subs	r0, r1, #1
1a00c988:	2818      	cmp	r0, #24
1a00c98a:	f1a3 0310 	sub.w	r3, r3, #16
1a00c98e:	f102 0201 	add.w	r2, r2, #1
1a00c992:	d80b      	bhi.n	1a00c9ac <__gethex+0x1f4>
1a00c994:	f812 0f01 	ldrb.w	r0, [r2, #1]!
1a00c998:	eb03 0383 	add.w	r3, r3, r3, lsl #2
1a00c99c:	eb01 0343 	add.w	r3, r1, r3, lsl #1
1a00c9a0:	5c31      	ldrb	r1, [r6, r0]
1a00c9a2:	1e48      	subs	r0, r1, #1
1a00c9a4:	2818      	cmp	r0, #24
1a00c9a6:	f1a3 0310 	sub.w	r3, r3, #16
1a00c9aa:	d9f3      	bls.n	1a00c994 <__gethex+0x1dc>
1a00c9ac:	b105      	cbz	r5, 1a00c9b0 <__gethex+0x1f8>
1a00c9ae:	425b      	negs	r3, r3
1a00c9b0:	9902      	ldr	r1, [sp, #8]
1a00c9b2:	463d      	mov	r5, r7
1a00c9b4:	4419      	add	r1, r3
1a00c9b6:	4617      	mov	r7, r2
1a00c9b8:	9102      	str	r1, [sp, #8]
1a00c9ba:	f8c9 7000 	str.w	r7, [r9]
1a00c9be:	f1ba 0f00 	cmp.w	sl, #0
1a00c9c2:	f43f af49 	beq.w	1a00c858 <__gethex+0xa0>
1a00c9c6:	f1b8 0f00 	cmp.w	r8, #0
1a00c9ca:	bf0c      	ite	eq
1a00c9cc:	2406      	moveq	r4, #6
1a00c9ce:	2400      	movne	r4, #0
1a00c9d0:	4620      	mov	r0, r4
1a00c9d2:	b00d      	add	sp, #52	; 0x34
1a00c9d4:	e8bd 8ff0 	ldmia.w	sp!, {r4, r5, r6, r7, r8, r9, sl, fp, pc}
1a00c9d8:	465b      	mov	r3, fp
1a00c9da:	2200      	movs	r2, #0
1a00c9dc:	f843 9b08 	str.w	r9, [r3], #8
1a00c9e0:	46bb      	mov	fp, r7
1a00c9e2:	4691      	mov	r9, r2
1a00c9e4:	461f      	mov	r7, r3
1a00c9e6:	f04f 0804 	mov.w	r8, #4
1a00c9ea:	e759      	b.n	1a00c8a0 <__gethex+0xe8>
1a00c9ec:	9d03      	ldr	r5, [sp, #12]
1a00c9ee:	9905      	ldr	r1, [sp, #20]
1a00c9f0:	462a      	mov	r2, r5
1a00c9f2:	4620      	mov	r0, r4
1a00c9f4:	f000 fa58 	bl	1a00cea8 <strncmp>
1a00c9f8:	b340      	cbz	r0, 1a00ca4c <__gethex+0x294>
1a00c9fa:	7822      	ldrb	r2, [r4, #0]
1a00c9fc:	4627      	mov	r7, r4
1a00c9fe:	2a50      	cmp	r2, #80	; 0x50
1a00ca00:	f000 8080 	beq.w	1a00cb04 <__gethex+0x34c>
1a00ca04:	2a70      	cmp	r2, #112	; 0x70
1a00ca06:	d07d      	beq.n	1a00cb04 <__gethex+0x34c>
1a00ca08:	f8c9 7000 	str.w	r7, [r9]
1a00ca0c:	e7db      	b.n	1a00c9c6 <__gethex+0x20e>
1a00ca0e:	2401      	movs	r4, #1
1a00ca10:	b165      	cbz	r5, 1a00ca2c <__gethex+0x274>
1a00ca12:	9b04      	ldr	r3, [sp, #16]
1a00ca14:	68db      	ldr	r3, [r3, #12]
1a00ca16:	2b02      	cmp	r3, #2
1a00ca18:	f000 80bb 	beq.w	1a00cb92 <__gethex+0x3da>
1a00ca1c:	2b03      	cmp	r3, #3
1a00ca1e:	f000 80bc 	beq.w	1a00cb9a <__gethex+0x3e2>
1a00ca22:	2b01      	cmp	r3, #1
1a00ca24:	f000 8104 	beq.w	1a00cc30 <__gethex+0x478>
1a00ca28:	f044 0410 	orr.w	r4, r4, #16
1a00ca2c:	9b16      	ldr	r3, [sp, #88]	; 0x58
1a00ca2e:	461a      	mov	r2, r3
1a00ca30:	9b06      	ldr	r3, [sp, #24]
1a00ca32:	6013      	str	r3, [r2, #0]
1a00ca34:	9b0a      	ldr	r3, [sp, #40]	; 0x28
1a00ca36:	461a      	mov	r2, r3
1a00ca38:	9b02      	ldr	r3, [sp, #8]
1a00ca3a:	6013      	str	r3, [r2, #0]
1a00ca3c:	4620      	mov	r0, r4
1a00ca3e:	b00d      	add	sp, #52	; 0x34
1a00ca40:	e8bd 8ff0 	ldmia.w	sp!, {r4, r5, r6, r7, r8, r9, sl, fp, pc}
1a00ca44:	2501      	movs	r5, #1
1a00ca46:	78bb      	ldrb	r3, [r7, #2]
1a00ca48:	1cba      	adds	r2, r7, #2
1a00ca4a:	e795      	b.n	1a00c978 <__gethex+0x1c0>
1a00ca4c:	5d62      	ldrb	r2, [r4, r5]
1a00ca4e:	5cb3      	ldrb	r3, [r6, r2]
1a00ca50:	1967      	adds	r7, r4, r5
1a00ca52:	2b00      	cmp	r3, #0
1a00ca54:	d0d3      	beq.n	1a00c9fe <__gethex+0x246>
1a00ca56:	2a30      	cmp	r2, #48	; 0x30
1a00ca58:	463c      	mov	r4, r7
1a00ca5a:	d104      	bne.n	1a00ca66 <__gethex+0x2ae>
1a00ca5c:	f814 3f01 	ldrb.w	r3, [r4, #1]!
1a00ca60:	2b30      	cmp	r3, #48	; 0x30
1a00ca62:	d0fb      	beq.n	1a00ca5c <__gethex+0x2a4>
1a00ca64:	5cf3      	ldrb	r3, [r6, r3]
1a00ca66:	fab3 fa83 	clz	sl, r3
1a00ca6a:	463d      	mov	r5, r7
1a00ca6c:	ea4f 1a5a 	mov.w	sl, sl, lsr #5
1a00ca70:	f04f 0801 	mov.w	r8, #1
1a00ca74:	e6cf      	b.n	1a00c816 <__gethex+0x5e>
1a00ca76:	1e67      	subs	r7, r4, #1
1a00ca78:	2d00      	cmp	r5, #0
1a00ca7a:	f040 80b8 	bne.w	1a00cbee <__gethex+0x436>
1a00ca7e:	2f00      	cmp	r7, #0
1a00ca80:	f040 80b7 	bne.w	1a00cbf2 <__gethex+0x43a>
1a00ca84:	117b      	asrs	r3, r7, #5
1a00ca86:	9a08      	ldr	r2, [sp, #32]
1a00ca88:	9806      	ldr	r0, [sp, #24]
1a00ca8a:	f852 2023 	ldr.w	r2, [r2, r3, lsl #2]
1a00ca8e:	f007 071f 	and.w	r7, r7, #31
1a00ca92:	2301      	movs	r3, #1
1a00ca94:	fa03 f707 	lsl.w	r7, r3, r7
1a00ca98:	4217      	tst	r7, r2
1a00ca9a:	4621      	mov	r1, r4
1a00ca9c:	bf18      	it	ne
1a00ca9e:	f045 0502 	orrne.w	r5, r5, #2
1a00caa2:	f7ff fe31 	bl	1a00c708 <rshift>
1a00caa6:	9b04      	ldr	r3, [sp, #16]
1a00caa8:	685b      	ldr	r3, [r3, #4]
1a00caaa:	9302      	str	r3, [sp, #8]
1a00caac:	1b36      	subs	r6, r6, r4
1a00caae:	2402      	movs	r4, #2
1a00cab0:	2d00      	cmp	r5, #0
1a00cab2:	d0bb      	beq.n	1a00ca2c <__gethex+0x274>
1a00cab4:	e7ad      	b.n	1a00ca12 <__gethex+0x25a>
1a00cab6:	2500      	movs	r5, #0
1a00cab8:	e7c5      	b.n	1a00ca46 <__gethex+0x28e>
1a00caba:	1bbf      	subs	r7, r7, r6
1a00cabc:	4639      	mov	r1, r7
1a00cabe:	9806      	ldr	r0, [sp, #24]
1a00cac0:	f7fc f928 	bl	1a008d14 <__any_on>
1a00cac4:	4605      	mov	r5, r0
1a00cac6:	b178      	cbz	r0, 1a00cae8 <__gethex+0x330>
1a00cac8:	1e7a      	subs	r2, r7, #1
1a00caca:	1151      	asrs	r1, r2, #5
1a00cacc:	9808      	ldr	r0, [sp, #32]
1a00cace:	f002 031f 	and.w	r3, r2, #31
1a00cad2:	f850 1021 	ldr.w	r1, [r0, r1, lsl #2]
1a00cad6:	2501      	movs	r5, #1
1a00cad8:	fa05 f303 	lsl.w	r3, r5, r3
1a00cadc:	420b      	tst	r3, r1
1a00cade:	d003      	beq.n	1a00cae8 <__gethex+0x330>
1a00cae0:	42aa      	cmp	r2, r5
1a00cae2:	f300 80b7 	bgt.w	1a00cc54 <__gethex+0x49c>
1a00cae6:	2502      	movs	r5, #2
1a00cae8:	9b02      	ldr	r3, [sp, #8]
1a00caea:	9806      	ldr	r0, [sp, #24]
1a00caec:	443b      	add	r3, r7
1a00caee:	4639      	mov	r1, r7
1a00caf0:	9302      	str	r3, [sp, #8]
1a00caf2:	f7ff fe09 	bl	1a00c708 <rshift>
1a00caf6:	e70b      	b.n	1a00c910 <__gethex+0x158>
1a00caf8:	1a00da7c 	.word	0x1a00da7c
1a00cafc:	1c9c      	adds	r4, r3, #2
1a00cafe:	f04f 0800 	mov.w	r8, #0
1a00cb02:	e67e      	b.n	1a00c802 <__gethex+0x4a>
1a00cb04:	2300      	movs	r3, #0
1a00cb06:	9302      	str	r3, [sp, #8]
1a00cb08:	f04f 0a01 	mov.w	sl, #1
1a00cb0c:	e72c      	b.n	1a00c968 <__gethex+0x1b0>
1a00cb0e:	9903      	ldr	r1, [sp, #12]
1a00cb10:	5c7b      	ldrb	r3, [r7, r1]
1a00cb12:	5cf2      	ldrb	r2, [r6, r3]
1a00cb14:	187d      	adds	r5, r7, r1
1a00cb16:	462f      	mov	r7, r5
1a00cb18:	2a00      	cmp	r2, #0
1a00cb1a:	f43f af1f 	beq.w	1a00c95c <__gethex+0x1a4>
1a00cb1e:	f817 3f01 	ldrb.w	r3, [r7, #1]!
1a00cb22:	5cf2      	ldrb	r2, [r6, r3]
1a00cb24:	2a00      	cmp	r2, #0
1a00cb26:	d1fa      	bne.n	1a00cb1e <__gethex+0x366>
1a00cb28:	e718      	b.n	1a00c95c <__gethex+0x1a4>
1a00cb2a:	1bf7      	subs	r7, r6, r7
1a00cb2c:	9906      	ldr	r1, [sp, #24]
1a00cb2e:	9807      	ldr	r0, [sp, #28]
1a00cb30:	463a      	mov	r2, r7
1a00cb32:	f7fb fec9 	bl	1a0088c8 <__lshift>
1a00cb36:	9b02      	ldr	r3, [sp, #8]
1a00cb38:	9006      	str	r0, [sp, #24]
1a00cb3a:	1bdb      	subs	r3, r3, r7
1a00cb3c:	9302      	str	r3, [sp, #8]
1a00cb3e:	4603      	mov	r3, r0
1a00cb40:	3314      	adds	r3, #20
1a00cb42:	9308      	str	r3, [sp, #32]
1a00cb44:	2500      	movs	r5, #0
1a00cb46:	e6e3      	b.n	1a00c910 <__gethex+0x158>
1a00cb48:	9b06      	ldr	r3, [sp, #24]
1a00cb4a:	689b      	ldr	r3, [r3, #8]
1a00cb4c:	429d      	cmp	r5, r3
1a00cb4e:	f280 8091 	bge.w	1a00cc74 <__gethex+0x4bc>
1a00cb52:	462b      	mov	r3, r5
1a00cb54:	9806      	ldr	r0, [sp, #24]
1a00cb56:	eb00 0283 	add.w	r2, r0, r3, lsl #2
1a00cb5a:	2101      	movs	r1, #1
1a00cb5c:	3301      	adds	r3, #1
1a00cb5e:	2c02      	cmp	r4, #2
1a00cb60:	6103      	str	r3, [r0, #16]
1a00cb62:	6151      	str	r1, [r2, #20]
1a00cb64:	d07f      	beq.n	1a00cc66 <__gethex+0x4ae>
1a00cb66:	429d      	cmp	r5, r3
1a00cb68:	da34      	bge.n	1a00cbd4 <__gethex+0x41c>
1a00cb6a:	2101      	movs	r1, #1
1a00cb6c:	9806      	ldr	r0, [sp, #24]
1a00cb6e:	f7ff fdcb 	bl	1a00c708 <rshift>
1a00cb72:	9b04      	ldr	r3, [sp, #16]
1a00cb74:	9a02      	ldr	r2, [sp, #8]
1a00cb76:	689b      	ldr	r3, [r3, #8]
1a00cb78:	3201      	adds	r2, #1
1a00cb7a:	4293      	cmp	r3, r2
1a00cb7c:	9202      	str	r2, [sp, #8]
1a00cb7e:	da2c      	bge.n	1a00cbda <__gethex+0x422>
1a00cb80:	e9dd 1006 	ldrd	r1, r0, [sp, #24]
1a00cb84:	f7fb fcba 	bl	1a0084fc <_Bfree>
1a00cb88:	9a16      	ldr	r2, [sp, #88]	; 0x58
1a00cb8a:	2300      	movs	r3, #0
1a00cb8c:	6013      	str	r3, [r2, #0]
1a00cb8e:	24a3      	movs	r4, #163	; 0xa3
1a00cb90:	e71e      	b.n	1a00c9d0 <__gethex+0x218>
1a00cb92:	9b17      	ldr	r3, [sp, #92]	; 0x5c
1a00cb94:	f1c3 0301 	rsb	r3, r3, #1
1a00cb98:	9317      	str	r3, [sp, #92]	; 0x5c
1a00cb9a:	9b17      	ldr	r3, [sp, #92]	; 0x5c
1a00cb9c:	2b00      	cmp	r3, #0
1a00cb9e:	f43f af43 	beq.w	1a00ca28 <__gethex+0x270>
1a00cba2:	9b06      	ldr	r3, [sp, #24]
1a00cba4:	f8dd c020 	ldr.w	ip, [sp, #32]
1a00cba8:	691d      	ldr	r5, [r3, #16]
1a00cbaa:	00af      	lsls	r7, r5, #2
1a00cbac:	eb0c 0007 	add.w	r0, ip, r7
1a00cbb0:	4663      	mov	r3, ip
1a00cbb2:	2100      	movs	r1, #0
1a00cbb4:	e003      	b.n	1a00cbbe <__gethex+0x406>
1a00cbb6:	4298      	cmp	r0, r3
1a00cbb8:	f843 1c04 	str.w	r1, [r3, #-4]
1a00cbbc:	d9c4      	bls.n	1a00cb48 <__gethex+0x390>
1a00cbbe:	469e      	mov	lr, r3
1a00cbc0:	f853 2b04 	ldr.w	r2, [r3], #4
1a00cbc4:	f1b2 3fff 	cmp.w	r2, #4294967295	; 0xffffffff
1a00cbc8:	d0f5      	beq.n	1a00cbb6 <__gethex+0x3fe>
1a00cbca:	3201      	adds	r2, #1
1a00cbcc:	2c02      	cmp	r4, #2
1a00cbce:	f8ce 2000 	str.w	r2, [lr]
1a00cbd2:	d048      	beq.n	1a00cc66 <__gethex+0x4ae>
1a00cbd4:	f016 061f 	ands.w	r6, r6, #31
1a00cbd8:	d168      	bne.n	1a00ccac <__gethex+0x4f4>
1a00cbda:	2421      	movs	r4, #33	; 0x21
1a00cbdc:	e726      	b.n	1a00ca2c <__gethex+0x274>
1a00cbde:	9b06      	ldr	r3, [sp, #24]
1a00cbe0:	f8dd b020 	ldr.w	fp, [sp, #32]
1a00cbe4:	f103 0718 	add.w	r7, r3, #24
1a00cbe8:	f04f 0900 	mov.w	r9, #0
1a00cbec:	e67c      	b.n	1a00c8e8 <__gethex+0x130>
1a00cbee:	2501      	movs	r5, #1
1a00cbf0:	e748      	b.n	1a00ca84 <__gethex+0x2cc>
1a00cbf2:	4639      	mov	r1, r7
1a00cbf4:	9806      	ldr	r0, [sp, #24]
1a00cbf6:	f7fc f88d 	bl	1a008d14 <__any_on>
1a00cbfa:	4605      	mov	r5, r0
1a00cbfc:	e742      	b.n	1a00ca84 <__gethex+0x2cc>
1a00cbfe:	42a6      	cmp	r6, r4
1a00cc00:	f47f ae9f 	bne.w	1a00c942 <__gethex+0x18a>
1a00cc04:	2e01      	cmp	r6, #1
1a00cc06:	dd08      	ble.n	1a00cc1a <__gethex+0x462>
1a00cc08:	1e71      	subs	r1, r6, #1
1a00cc0a:	9806      	ldr	r0, [sp, #24]
1a00cc0c:	f7fc f882 	bl	1a008d14 <__any_on>
1a00cc10:	2800      	cmp	r0, #0
1a00cc12:	f43f ae96 	beq.w	1a00c942 <__gethex+0x18a>
1a00cc16:	9b04      	ldr	r3, [sp, #16]
1a00cc18:	685b      	ldr	r3, [r3, #4]
1a00cc1a:	990a      	ldr	r1, [sp, #40]	; 0x28
1a00cc1c:	600b      	str	r3, [r1, #0]
1a00cc1e:	9b06      	ldr	r3, [sp, #24]
1a00cc20:	9908      	ldr	r1, [sp, #32]
1a00cc22:	2201      	movs	r2, #1
1a00cc24:	611a      	str	r2, [r3, #16]
1a00cc26:	600a      	str	r2, [r1, #0]
1a00cc28:	9a16      	ldr	r2, [sp, #88]	; 0x58
1a00cc2a:	2462      	movs	r4, #98	; 0x62
1a00cc2c:	6013      	str	r3, [r2, #0]
1a00cc2e:	e6cf      	b.n	1a00c9d0 <__gethex+0x218>
1a00cc30:	07aa      	lsls	r2, r5, #30
1a00cc32:	f57f aef9 	bpl.w	1a00ca28 <__gethex+0x270>
1a00cc36:	9b08      	ldr	r3, [sp, #32]
1a00cc38:	681b      	ldr	r3, [r3, #0]
1a00cc3a:	431d      	orrs	r5, r3
1a00cc3c:	07eb      	lsls	r3, r5, #31
1a00cc3e:	d4b0      	bmi.n	1a00cba2 <__gethex+0x3ea>
1a00cc40:	e6f2      	b.n	1a00ca28 <__gethex+0x270>
1a00cc42:	9a17      	ldr	r2, [sp, #92]	; 0x5c
1a00cc44:	2a00      	cmp	r2, #0
1a00cc46:	f43f ae7c 	beq.w	1a00c942 <__gethex+0x18a>
1a00cc4a:	e7e6      	b.n	1a00cc1a <__gethex+0x462>
1a00cc4c:	9a17      	ldr	r2, [sp, #92]	; 0x5c
1a00cc4e:	2a00      	cmp	r2, #0
1a00cc50:	d0e3      	beq.n	1a00cc1a <__gethex+0x462>
1a00cc52:	e676      	b.n	1a00c942 <__gethex+0x18a>
1a00cc54:	1eb9      	subs	r1, r7, #2
1a00cc56:	9806      	ldr	r0, [sp, #24]
1a00cc58:	f7fc f85c 	bl	1a008d14 <__any_on>
1a00cc5c:	2800      	cmp	r0, #0
1a00cc5e:	f43f af42 	beq.w	1a00cae6 <__gethex+0x32e>
1a00cc62:	2503      	movs	r5, #3
1a00cc64:	e740      	b.n	1a00cae8 <__gethex+0x330>
1a00cc66:	9b04      	ldr	r3, [sp, #16]
1a00cc68:	681b      	ldr	r3, [r3, #0]
1a00cc6a:	3b01      	subs	r3, #1
1a00cc6c:	42b3      	cmp	r3, r6
1a00cc6e:	d027      	beq.n	1a00ccc0 <__gethex+0x508>
1a00cc70:	2422      	movs	r4, #34	; 0x22
1a00cc72:	e6db      	b.n	1a00ca2c <__gethex+0x274>
1a00cc74:	9b06      	ldr	r3, [sp, #24]
1a00cc76:	f8dd 901c 	ldr.w	r9, [sp, #28]
1a00cc7a:	6859      	ldr	r1, [r3, #4]
1a00cc7c:	4648      	mov	r0, r9
1a00cc7e:	3101      	adds	r1, #1
1a00cc80:	f7fb fc16 	bl	1a0084b0 <_Balloc>
1a00cc84:	9906      	ldr	r1, [sp, #24]
1a00cc86:	690b      	ldr	r3, [r1, #16]
1a00cc88:	3302      	adds	r3, #2
1a00cc8a:	4680      	mov	r8, r0
1a00cc8c:	009a      	lsls	r2, r3, #2
1a00cc8e:	310c      	adds	r1, #12
1a00cc90:	300c      	adds	r0, #12
1a00cc92:	f7f5 ff39 	bl	1a002b08 <memcpy>
1a00cc96:	9906      	ldr	r1, [sp, #24]
1a00cc98:	4648      	mov	r0, r9
1a00cc9a:	f7fb fc2f 	bl	1a0084fc <_Bfree>
1a00cc9e:	f8cd 8018 	str.w	r8, [sp, #24]
1a00cca2:	f108 0c14 	add.w	ip, r8, #20
1a00cca6:	f8d8 3010 	ldr.w	r3, [r8, #16]
1a00ccaa:	e753      	b.n	1a00cb54 <__gethex+0x39c>
1a00ccac:	4467      	add	r7, ip
1a00ccae:	f1c6 0620 	rsb	r6, r6, #32
1a00ccb2:	f857 0c04 	ldr.w	r0, [r7, #-4]
1a00ccb6:	f7fb fcb7 	bl	1a008628 <__hi0bits>
1a00ccba:	42b0      	cmp	r0, r6
1a00ccbc:	da8d      	bge.n	1a00cbda <__gethex+0x422>
1a00ccbe:	e754      	b.n	1a00cb6a <__gethex+0x3b2>
1a00ccc0:	1173      	asrs	r3, r6, #5
1a00ccc2:	f006 061f 	and.w	r6, r6, #31
1a00ccc6:	f85c 2023 	ldr.w	r2, [ip, r3, lsl #2]
1a00ccca:	2301      	movs	r3, #1
1a00cccc:	40b3      	lsls	r3, r6
1a00ccce:	4213      	tst	r3, r2
1a00ccd0:	bf14      	ite	ne
1a00ccd2:	2421      	movne	r4, #33	; 0x21
1a00ccd4:	2422      	moveq	r4, #34	; 0x22
1a00ccd6:	e6a9      	b.n	1a00ca2c <__gethex+0x274>

1a00ccd8 <__match>:
1a00ccd8:	b430      	push	{r4, r5}
1a00ccda:	6804      	ldr	r4, [r0, #0]
1a00ccdc:	3401      	adds	r4, #1
1a00ccde:	e008      	b.n	1a00ccf2 <__match+0x1a>
1a00cce0:	f814 3b01 	ldrb.w	r3, [r4], #1
1a00cce4:	f1a3 0541 	sub.w	r5, r3, #65	; 0x41
1a00cce8:	2d19      	cmp	r5, #25
1a00ccea:	bf98      	it	ls
1a00ccec:	3320      	addls	r3, #32
1a00ccee:	4293      	cmp	r3, r2
1a00ccf0:	d107      	bne.n	1a00cd02 <__match+0x2a>
1a00ccf2:	f811 2b01 	ldrb.w	r2, [r1], #1
1a00ccf6:	2a00      	cmp	r2, #0
1a00ccf8:	d1f2      	bne.n	1a00cce0 <__match+0x8>
1a00ccfa:	6004      	str	r4, [r0, #0]
1a00ccfc:	2001      	movs	r0, #1
1a00ccfe:	bc30      	pop	{r4, r5}
1a00cd00:	4770      	bx	lr
1a00cd02:	2000      	movs	r0, #0
1a00cd04:	bc30      	pop	{r4, r5}
1a00cd06:	4770      	bx	lr

1a00cd08 <__hexnan>:
1a00cd08:	e92d 4ff0 	stmdb	sp!, {r4, r5, r6, r7, r8, r9, sl, fp, lr}
1a00cd0c:	680b      	ldr	r3, [r1, #0]
1a00cd0e:	f8df e194 	ldr.w	lr, [pc, #404]	; 1a00cea4 <__hexnan+0x19c>
1a00cd12:	1159      	asrs	r1, r3, #5
1a00cd14:	eb02 0981 	add.w	r9, r2, r1, lsl #2
1a00cd18:	b085      	sub	sp, #20
1a00cd1a:	f013 031f 	ands.w	r3, r3, #31
1a00cd1e:	bf18      	it	ne
1a00cd20:	f109 0904 	addne.w	r9, r9, #4
1a00cd24:	9001      	str	r0, [sp, #4]
1a00cd26:	9303      	str	r3, [sp, #12]
1a00cd28:	2300      	movs	r3, #0
1a00cd2a:	f849 3c04 	str.w	r3, [r9, #-4]
1a00cd2e:	4698      	mov	r8, r3
1a00cd30:	469a      	mov	sl, r3
1a00cd32:	461c      	mov	r4, r3
1a00cd34:	9b01      	ldr	r3, [sp, #4]
1a00cd36:	f8cd 9008 	str.w	r9, [sp, #8]
1a00cd3a:	681b      	ldr	r3, [r3, #0]
1a00cd3c:	785f      	ldrb	r7, [r3, #1]
1a00cd3e:	f1a9 0604 	sub.w	r6, r9, #4
1a00cd42:	46b4      	mov	ip, r6
1a00cd44:	4631      	mov	r1, r6
1a00cd46:	46b3      	mov	fp, r6
1a00cd48:	4691      	mov	r9, r2
1a00cd4a:	1c58      	adds	r0, r3, #1
1a00cd4c:	b1df      	cbz	r7, 1a00cd86 <__hexnan+0x7e>
1a00cd4e:	f81e 5007 	ldrb.w	r5, [lr, r7]
1a00cd52:	2d00      	cmp	r5, #0
1a00cd54:	d140      	bne.n	1a00cdd8 <__hexnan+0xd0>
1a00cd56:	2f20      	cmp	r7, #32
1a00cd58:	d85b      	bhi.n	1a00ce12 <__hexnan+0x10a>
1a00cd5a:	4554      	cmp	r4, sl
1a00cd5c:	dd0e      	ble.n	1a00cd7c <__hexnan+0x74>
1a00cd5e:	4561      	cmp	r1, ip
1a00cd60:	d202      	bcs.n	1a00cd68 <__hexnan+0x60>
1a00cd62:	f1b8 0f07 	cmp.w	r8, #7
1a00cd66:	dd5e      	ble.n	1a00ce26 <__hexnan+0x11e>
1a00cd68:	4549      	cmp	r1, r9
1a00cd6a:	d94e      	bls.n	1a00ce0a <__hexnan+0x102>
1a00cd6c:	2300      	movs	r3, #0
1a00cd6e:	f1a1 0c04 	sub.w	ip, r1, #4
1a00cd72:	f841 3c04 	str.w	r3, [r1, #-4]
1a00cd76:	46a2      	mov	sl, r4
1a00cd78:	4661      	mov	r1, ip
1a00cd7a:	4698      	mov	r8, r3
1a00cd7c:	4603      	mov	r3, r0
1a00cd7e:	785f      	ldrb	r7, [r3, #1]
1a00cd80:	1c58      	adds	r0, r3, #1
1a00cd82:	2f00      	cmp	r7, #0
1a00cd84:	d1e3      	bne.n	1a00cd4e <__hexnan+0x46>
1a00cd86:	464a      	mov	r2, r9
1a00cd88:	465e      	mov	r6, fp
1a00cd8a:	f8dd 9008 	ldr.w	r9, [sp, #8]
1a00cd8e:	2c00      	cmp	r4, #0
1a00cd90:	d045      	beq.n	1a00ce1e <__hexnan+0x116>
1a00cd92:	4561      	cmp	r1, ip
1a00cd94:	d202      	bcs.n	1a00cd9c <__hexnan+0x94>
1a00cd96:	f1b8 0f07 	cmp.w	r8, #7
1a00cd9a:	dd70      	ble.n	1a00ce7e <__hexnan+0x176>
1a00cd9c:	4291      	cmp	r1, r2
1a00cd9e:	d959      	bls.n	1a00ce54 <__hexnan+0x14c>
1a00cda0:	4613      	mov	r3, r2
1a00cda2:	f851 0b04 	ldr.w	r0, [r1], #4
1a00cda6:	f843 0b04 	str.w	r0, [r3], #4
1a00cdaa:	428e      	cmp	r6, r1
1a00cdac:	d2f9      	bcs.n	1a00cda2 <__hexnan+0x9a>
1a00cdae:	2100      	movs	r1, #0
1a00cdb0:	f843 1b04 	str.w	r1, [r3], #4
1a00cdb4:	429e      	cmp	r6, r3
1a00cdb6:	d2fb      	bcs.n	1a00cdb0 <__hexnan+0xa8>
1a00cdb8:	f859 1c04 	ldr.w	r1, [r9, #-4]
1a00cdbc:	b121      	cbz	r1, 1a00cdc8 <__hexnan+0xc0>
1a00cdbe:	e045      	b.n	1a00ce4c <__hexnan+0x144>
1a00cdc0:	f856 3d04 	ldr.w	r3, [r6, #-4]!
1a00cdc4:	2b00      	cmp	r3, #0
1a00cdc6:	d141      	bne.n	1a00ce4c <__hexnan+0x144>
1a00cdc8:	42b2      	cmp	r2, r6
1a00cdca:	d1f9      	bne.n	1a00cdc0 <__hexnan+0xb8>
1a00cdcc:	2301      	movs	r3, #1
1a00cdce:	2005      	movs	r0, #5
1a00cdd0:	6013      	str	r3, [r2, #0]
1a00cdd2:	b005      	add	sp, #20
1a00cdd4:	e8bd 8ff0 	ldmia.w	sp!, {r4, r5, r6, r7, r8, r9, sl, fp, pc}
1a00cdd8:	f108 0801 	add.w	r8, r8, #1
1a00cddc:	f1b8 0f08 	cmp.w	r8, #8
1a00cde0:	f104 0401 	add.w	r4, r4, #1
1a00cde4:	dc07      	bgt.n	1a00cdf6 <__hexnan+0xee>
1a00cde6:	680a      	ldr	r2, [r1, #0]
1a00cde8:	0112      	lsls	r2, r2, #4
1a00cdea:	f005 050f 	and.w	r5, r5, #15
1a00cdee:	4315      	orrs	r5, r2
1a00cdf0:	600d      	str	r5, [r1, #0]
1a00cdf2:	4603      	mov	r3, r0
1a00cdf4:	e7c3      	b.n	1a00cd7e <__hexnan+0x76>
1a00cdf6:	4549      	cmp	r1, r9
1a00cdf8:	d9c0      	bls.n	1a00cd7c <__hexnan+0x74>
1a00cdfa:	2300      	movs	r3, #0
1a00cdfc:	f841 3c04 	str.w	r3, [r1, #-4]
1a00ce00:	461a      	mov	r2, r3
1a00ce02:	3904      	subs	r1, #4
1a00ce04:	f04f 0801 	mov.w	r8, #1
1a00ce08:	e7ef      	b.n	1a00cdea <__hexnan+0xe2>
1a00ce0a:	f04f 0808 	mov.w	r8, #8
1a00ce0e:	4603      	mov	r3, r0
1a00ce10:	e7b5      	b.n	1a00cd7e <__hexnan+0x76>
1a00ce12:	2f29      	cmp	r7, #41	; 0x29
1a00ce14:	464a      	mov	r2, r9
1a00ce16:	465e      	mov	r6, fp
1a00ce18:	f8dd 9008 	ldr.w	r9, [sp, #8]
1a00ce1c:	d029      	beq.n	1a00ce72 <__hexnan+0x16a>
1a00ce1e:	2004      	movs	r0, #4
1a00ce20:	b005      	add	sp, #20
1a00ce22:	e8bd 8ff0 	ldmia.w	sp!, {r4, r5, r6, r7, r8, r9, sl, fp, pc}
1a00ce26:	f1c8 0308 	rsb	r3, r8, #8
1a00ce2a:	009b      	lsls	r3, r3, #2
1a00ce2c:	680a      	ldr	r2, [r1, #0]
1a00ce2e:	f1c3 0820 	rsb	r8, r3, #32
1a00ce32:	460d      	mov	r5, r1
1a00ce34:	686f      	ldr	r7, [r5, #4]
1a00ce36:	fa07 f608 	lsl.w	r6, r7, r8
1a00ce3a:	4316      	orrs	r6, r2
1a00ce3c:	fa27 f203 	lsr.w	r2, r7, r3
1a00ce40:	602e      	str	r6, [r5, #0]
1a00ce42:	f845 2f04 	str.w	r2, [r5, #4]!
1a00ce46:	45ac      	cmp	ip, r5
1a00ce48:	d8f4      	bhi.n	1a00ce34 <__hexnan+0x12c>
1a00ce4a:	e78d      	b.n	1a00cd68 <__hexnan+0x60>
1a00ce4c:	2005      	movs	r0, #5
1a00ce4e:	b005      	add	sp, #20
1a00ce50:	e8bd 8ff0 	ldmia.w	sp!, {r4, r5, r6, r7, r8, r9, sl, fp, pc}
1a00ce54:	9b03      	ldr	r3, [sp, #12]
1a00ce56:	f859 1c04 	ldr.w	r1, [r9, #-4]
1a00ce5a:	2b00      	cmp	r3, #0
1a00ce5c:	d0ae      	beq.n	1a00cdbc <__hexnan+0xb4>
1a00ce5e:	f1c3 0320 	rsb	r3, r3, #32
1a00ce62:	f04f 30ff 	mov.w	r0, #4294967295	; 0xffffffff
1a00ce66:	fa20 f303 	lsr.w	r3, r0, r3
1a00ce6a:	4019      	ands	r1, r3
1a00ce6c:	f849 1c04 	str.w	r1, [r9, #-4]
1a00ce70:	e7a4      	b.n	1a00cdbc <__hexnan+0xb4>
1a00ce72:	9801      	ldr	r0, [sp, #4]
1a00ce74:	3302      	adds	r3, #2
1a00ce76:	6003      	str	r3, [r0, #0]
1a00ce78:	2c00      	cmp	r4, #0
1a00ce7a:	d18a      	bne.n	1a00cd92 <__hexnan+0x8a>
1a00ce7c:	e7cf      	b.n	1a00ce1e <__hexnan+0x116>
1a00ce7e:	f1c8 0308 	rsb	r3, r8, #8
1a00ce82:	009b      	lsls	r3, r3, #2
1a00ce84:	680d      	ldr	r5, [r1, #0]
1a00ce86:	f1c3 0e20 	rsb	lr, r3, #32
1a00ce8a:	4608      	mov	r0, r1
1a00ce8c:	6847      	ldr	r7, [r0, #4]
1a00ce8e:	fa07 f40e 	lsl.w	r4, r7, lr
1a00ce92:	432c      	orrs	r4, r5
1a00ce94:	fa27 f503 	lsr.w	r5, r7, r3
1a00ce98:	6004      	str	r4, [r0, #0]
1a00ce9a:	f840 5f04 	str.w	r5, [r0, #4]!
1a00ce9e:	4584      	cmp	ip, r0
1a00cea0:	d8f4      	bhi.n	1a00ce8c <__hexnan+0x184>
1a00cea2:	e77b      	b.n	1a00cd9c <__hexnan+0x94>
1a00cea4:	1a00da7c 	.word	0x1a00da7c

1a00cea8 <strncmp>:
1a00cea8:	2a00      	cmp	r2, #0
1a00ceaa:	d041      	beq.n	1a00cf30 <strncmp+0x88>
1a00ceac:	ea40 0301 	orr.w	r3, r0, r1
1a00ceb0:	f013 0303 	ands.w	r3, r3, #3
1a00ceb4:	b4f0      	push	{r4, r5, r6, r7}
1a00ceb6:	d125      	bne.n	1a00cf04 <strncmp+0x5c>
1a00ceb8:	2a03      	cmp	r2, #3
1a00ceba:	d923      	bls.n	1a00cf04 <strncmp+0x5c>
1a00cebc:	6804      	ldr	r4, [r0, #0]
1a00cebe:	680d      	ldr	r5, [r1, #0]
1a00cec0:	42ac      	cmp	r4, r5
1a00cec2:	d11f      	bne.n	1a00cf04 <strncmp+0x5c>
1a00cec4:	3a04      	subs	r2, #4
1a00cec6:	d035      	beq.n	1a00cf34 <strncmp+0x8c>
1a00cec8:	f1a4 3501 	sub.w	r5, r4, #16843009	; 0x1010101
1a00cecc:	ea25 0404 	bic.w	r4, r5, r4
1a00ced0:	f014 3f80 	tst.w	r4, #2155905152	; 0x80808080
1a00ced4:	d131      	bne.n	1a00cf3a <strncmp+0x92>
1a00ced6:	1d07      	adds	r7, r0, #4
1a00ced8:	1d0d      	adds	r5, r1, #4
1a00ceda:	e00d      	b.n	1a00cef8 <strncmp+0x50>
1a00cedc:	f857 3b04 	ldr.w	r3, [r7], #4
1a00cee0:	680e      	ldr	r6, [r1, #0]
1a00cee2:	f1a3 3401 	sub.w	r4, r3, #16843009	; 0x1010101
1a00cee6:	42b3      	cmp	r3, r6
1a00cee8:	ea24 0403 	bic.w	r4, r4, r3
1a00ceec:	d10a      	bne.n	1a00cf04 <strncmp+0x5c>
1a00ceee:	3a04      	subs	r2, #4
1a00cef0:	d020      	beq.n	1a00cf34 <strncmp+0x8c>
1a00cef2:	f014 3f80 	tst.w	r4, #2155905152	; 0x80808080
1a00cef6:	d11d      	bne.n	1a00cf34 <strncmp+0x8c>
1a00cef8:	2a03      	cmp	r2, #3
1a00cefa:	4629      	mov	r1, r5
1a00cefc:	4638      	mov	r0, r7
1a00cefe:	f105 0504 	add.w	r5, r5, #4
1a00cf02:	d8eb      	bhi.n	1a00cedc <strncmp+0x34>
1a00cf04:	7803      	ldrb	r3, [r0, #0]
1a00cf06:	780c      	ldrb	r4, [r1, #0]
1a00cf08:	429c      	cmp	r4, r3
1a00cf0a:	f102 32ff 	add.w	r2, r2, #4294967295	; 0xffffffff
1a00cf0e:	d10c      	bne.n	1a00cf2a <strncmp+0x82>
1a00cf10:	b182      	cbz	r2, 1a00cf34 <strncmp+0x8c>
1a00cf12:	b914      	cbnz	r4, 1a00cf1a <strncmp+0x72>
1a00cf14:	e00e      	b.n	1a00cf34 <strncmp+0x8c>
1a00cf16:	b16a      	cbz	r2, 1a00cf34 <strncmp+0x8c>
1a00cf18:	b17b      	cbz	r3, 1a00cf3a <strncmp+0x92>
1a00cf1a:	f810 3f01 	ldrb.w	r3, [r0, #1]!
1a00cf1e:	f811 4f01 	ldrb.w	r4, [r1, #1]!
1a00cf22:	42a3      	cmp	r3, r4
1a00cf24:	f102 32ff 	add.w	r2, r2, #4294967295	; 0xffffffff
1a00cf28:	d0f5      	beq.n	1a00cf16 <strncmp+0x6e>
1a00cf2a:	1b18      	subs	r0, r3, r4
1a00cf2c:	bcf0      	pop	{r4, r5, r6, r7}
1a00cf2e:	4770      	bx	lr
1a00cf30:	4610      	mov	r0, r2
1a00cf32:	4770      	bx	lr
1a00cf34:	2000      	movs	r0, #0
1a00cf36:	bcf0      	pop	{r4, r5, r6, r7}
1a00cf38:	4770      	bx	lr
1a00cf3a:	4618      	mov	r0, r3
1a00cf3c:	e7f6      	b.n	1a00cf2c <strncmp+0x84>
1a00cf3e:	bf00      	nop

1a00cf40 <__ssprint_r>:
1a00cf40:	e92d 4ff0 	stmdb	sp!, {r4, r5, r6, r7, r8, r9, sl, fp, lr}
1a00cf44:	6893      	ldr	r3, [r2, #8]
1a00cf46:	b083      	sub	sp, #12
1a00cf48:	4690      	mov	r8, r2
1a00cf4a:	2b00      	cmp	r3, #0
1a00cf4c:	d06c      	beq.n	1a00d028 <__ssprint_r+0xe8>
1a00cf4e:	6817      	ldr	r7, [r2, #0]
1a00cf50:	688d      	ldr	r5, [r1, #8]
1a00cf52:	4682      	mov	sl, r0
1a00cf54:	460c      	mov	r4, r1
1a00cf56:	6808      	ldr	r0, [r1, #0]
1a00cf58:	3708      	adds	r7, #8
1a00cf5a:	e042      	b.n	1a00cfe2 <__ssprint_r+0xa2>
1a00cf5c:	89a3      	ldrh	r3, [r4, #12]
1a00cf5e:	f413 6f90 	tst.w	r3, #1152	; 0x480
1a00cf62:	d02d      	beq.n	1a00cfc0 <__ssprint_r+0x80>
1a00cf64:	e9d4 1504 	ldrd	r1, r5, [r4, #16]
1a00cf68:	eb05 0545 	add.w	r5, r5, r5, lsl #1
1a00cf6c:	eba0 0b01 	sub.w	fp, r0, r1
1a00cf70:	eb05 75d5 	add.w	r5, r5, r5, lsr #31
1a00cf74:	1c70      	adds	r0, r6, #1
1a00cf76:	106d      	asrs	r5, r5, #1
1a00cf78:	4458      	add	r0, fp
1a00cf7a:	42a8      	cmp	r0, r5
1a00cf7c:	462a      	mov	r2, r5
1a00cf7e:	bf84      	itt	hi
1a00cf80:	4605      	movhi	r5, r0
1a00cf82:	462a      	movhi	r2, r5
1a00cf84:	055b      	lsls	r3, r3, #21
1a00cf86:	d536      	bpl.n	1a00cff6 <__ssprint_r+0xb6>
1a00cf88:	4611      	mov	r1, r2
1a00cf8a:	4650      	mov	r0, sl
1a00cf8c:	f7fa fee6 	bl	1a007d5c <_malloc_r>
1a00cf90:	2800      	cmp	r0, #0
1a00cf92:	d03a      	beq.n	1a00d00a <__ssprint_r+0xca>
1a00cf94:	465a      	mov	r2, fp
1a00cf96:	6921      	ldr	r1, [r4, #16]
1a00cf98:	9001      	str	r0, [sp, #4]
1a00cf9a:	f7f5 fdb5 	bl	1a002b08 <memcpy>
1a00cf9e:	89a2      	ldrh	r2, [r4, #12]
1a00cfa0:	9b01      	ldr	r3, [sp, #4]
1a00cfa2:	f422 6290 	bic.w	r2, r2, #1152	; 0x480
1a00cfa6:	f042 0280 	orr.w	r2, r2, #128	; 0x80
1a00cfaa:	81a2      	strh	r2, [r4, #12]
1a00cfac:	eba5 020b 	sub.w	r2, r5, fp
1a00cfb0:	eb03 000b 	add.w	r0, r3, fp
1a00cfb4:	6165      	str	r5, [r4, #20]
1a00cfb6:	6123      	str	r3, [r4, #16]
1a00cfb8:	6020      	str	r0, [r4, #0]
1a00cfba:	60a2      	str	r2, [r4, #8]
1a00cfbc:	4635      	mov	r5, r6
1a00cfbe:	46b3      	mov	fp, r6
1a00cfc0:	465a      	mov	r2, fp
1a00cfc2:	4649      	mov	r1, r9
1a00cfc4:	f7fb fa04 	bl	1a0083d0 <memmove>
1a00cfc8:	f8d8 3008 	ldr.w	r3, [r8, #8]
1a00cfcc:	68a2      	ldr	r2, [r4, #8]
1a00cfce:	6820      	ldr	r0, [r4, #0]
1a00cfd0:	1b55      	subs	r5, r2, r5
1a00cfd2:	4458      	add	r0, fp
1a00cfd4:	1b9e      	subs	r6, r3, r6
1a00cfd6:	60a5      	str	r5, [r4, #8]
1a00cfd8:	6020      	str	r0, [r4, #0]
1a00cfda:	f8c8 6008 	str.w	r6, [r8, #8]
1a00cfde:	b31e      	cbz	r6, 1a00d028 <__ssprint_r+0xe8>
1a00cfe0:	3708      	adds	r7, #8
1a00cfe2:	e957 9602 	ldrd	r9, r6, [r7, #-8]
1a00cfe6:	46ab      	mov	fp, r5
1a00cfe8:	2e00      	cmp	r6, #0
1a00cfea:	d0f9      	beq.n	1a00cfe0 <__ssprint_r+0xa0>
1a00cfec:	42ae      	cmp	r6, r5
1a00cfee:	d2b5      	bcs.n	1a00cf5c <__ssprint_r+0x1c>
1a00cff0:	4635      	mov	r5, r6
1a00cff2:	46b3      	mov	fp, r6
1a00cff4:	e7e4      	b.n	1a00cfc0 <__ssprint_r+0x80>
1a00cff6:	4650      	mov	r0, sl
1a00cff8:	f7fb fec0 	bl	1a008d7c <_realloc_r>
1a00cffc:	4603      	mov	r3, r0
1a00cffe:	2800      	cmp	r0, #0
1a00d000:	d1d4      	bne.n	1a00cfac <__ssprint_r+0x6c>
1a00d002:	6921      	ldr	r1, [r4, #16]
1a00d004:	4650      	mov	r0, sl
1a00d006:	f7fa fb19 	bl	1a00763c <_free_r>
1a00d00a:	230c      	movs	r3, #12
1a00d00c:	f8ca 3000 	str.w	r3, [sl]
1a00d010:	89a3      	ldrh	r3, [r4, #12]
1a00d012:	2200      	movs	r2, #0
1a00d014:	f043 0340 	orr.w	r3, r3, #64	; 0x40
1a00d018:	f04f 30ff 	mov.w	r0, #4294967295	; 0xffffffff
1a00d01c:	81a3      	strh	r3, [r4, #12]
1a00d01e:	e9c8 2201 	strd	r2, r2, [r8, #4]
1a00d022:	b003      	add	sp, #12
1a00d024:	e8bd 8ff0 	ldmia.w	sp!, {r4, r5, r6, r7, r8, r9, sl, fp, pc}
1a00d028:	2000      	movs	r0, #0
1a00d02a:	f8c8 0004 	str.w	r0, [r8, #4]
1a00d02e:	b003      	add	sp, #12
1a00d030:	e8bd 8ff0 	ldmia.w	sp!, {r4, r5, r6, r7, r8, r9, sl, fp, pc}

1a00d034 <__swbuf_r>:
1a00d034:	b5f8      	push	{r3, r4, r5, r6, r7, lr}
1a00d036:	460d      	mov	r5, r1
1a00d038:	4614      	mov	r4, r2
1a00d03a:	4606      	mov	r6, r0
1a00d03c:	b110      	cbz	r0, 1a00d044 <__swbuf_r+0x10>
1a00d03e:	6b83      	ldr	r3, [r0, #56]	; 0x38
1a00d040:	2b00      	cmp	r3, #0
1a00d042:	d043      	beq.n	1a00d0cc <__swbuf_r+0x98>
1a00d044:	f9b4 200c 	ldrsh.w	r2, [r4, #12]
1a00d048:	69a3      	ldr	r3, [r4, #24]
1a00d04a:	60a3      	str	r3, [r4, #8]
1a00d04c:	b291      	uxth	r1, r2
1a00d04e:	0708      	lsls	r0, r1, #28
1a00d050:	d51b      	bpl.n	1a00d08a <__swbuf_r+0x56>
1a00d052:	6923      	ldr	r3, [r4, #16]
1a00d054:	b1cb      	cbz	r3, 1a00d08a <__swbuf_r+0x56>
1a00d056:	b2ed      	uxtb	r5, r5
1a00d058:	0489      	lsls	r1, r1, #18
1a00d05a:	462f      	mov	r7, r5
1a00d05c:	d522      	bpl.n	1a00d0a4 <__swbuf_r+0x70>
1a00d05e:	6822      	ldr	r2, [r4, #0]
1a00d060:	6961      	ldr	r1, [r4, #20]
1a00d062:	1ad3      	subs	r3, r2, r3
1a00d064:	4299      	cmp	r1, r3
1a00d066:	dd29      	ble.n	1a00d0bc <__swbuf_r+0x88>
1a00d068:	3301      	adds	r3, #1
1a00d06a:	68a1      	ldr	r1, [r4, #8]
1a00d06c:	1c50      	adds	r0, r2, #1
1a00d06e:	3901      	subs	r1, #1
1a00d070:	60a1      	str	r1, [r4, #8]
1a00d072:	6020      	str	r0, [r4, #0]
1a00d074:	7015      	strb	r5, [r2, #0]
1a00d076:	6962      	ldr	r2, [r4, #20]
1a00d078:	429a      	cmp	r2, r3
1a00d07a:	d02a      	beq.n	1a00d0d2 <__swbuf_r+0x9e>
1a00d07c:	89a3      	ldrh	r3, [r4, #12]
1a00d07e:	07db      	lsls	r3, r3, #31
1a00d080:	d501      	bpl.n	1a00d086 <__swbuf_r+0x52>
1a00d082:	2d0a      	cmp	r5, #10
1a00d084:	d025      	beq.n	1a00d0d2 <__swbuf_r+0x9e>
1a00d086:	4638      	mov	r0, r7
1a00d088:	bdf8      	pop	{r3, r4, r5, r6, r7, pc}
1a00d08a:	4621      	mov	r1, r4
1a00d08c:	4630      	mov	r0, r6
1a00d08e:	f7f9 f853 	bl	1a006138 <__swsetup_r>
1a00d092:	bb20      	cbnz	r0, 1a00d0de <__swbuf_r+0xaa>
1a00d094:	f9b4 200c 	ldrsh.w	r2, [r4, #12]
1a00d098:	6923      	ldr	r3, [r4, #16]
1a00d09a:	b291      	uxth	r1, r2
1a00d09c:	b2ed      	uxtb	r5, r5
1a00d09e:	0489      	lsls	r1, r1, #18
1a00d0a0:	462f      	mov	r7, r5
1a00d0a2:	d4dc      	bmi.n	1a00d05e <__swbuf_r+0x2a>
1a00d0a4:	6e61      	ldr	r1, [r4, #100]	; 0x64
1a00d0a6:	f442 5200 	orr.w	r2, r2, #8192	; 0x2000
1a00d0aa:	f421 5100 	bic.w	r1, r1, #8192	; 0x2000
1a00d0ae:	81a2      	strh	r2, [r4, #12]
1a00d0b0:	6822      	ldr	r2, [r4, #0]
1a00d0b2:	6661      	str	r1, [r4, #100]	; 0x64
1a00d0b4:	6961      	ldr	r1, [r4, #20]
1a00d0b6:	1ad3      	subs	r3, r2, r3
1a00d0b8:	4299      	cmp	r1, r3
1a00d0ba:	dcd5      	bgt.n	1a00d068 <__swbuf_r+0x34>
1a00d0bc:	4621      	mov	r1, r4
1a00d0be:	4630      	mov	r0, r6
1a00d0c0:	f7fa f8ec 	bl	1a00729c <_fflush_r>
1a00d0c4:	b958      	cbnz	r0, 1a00d0de <__swbuf_r+0xaa>
1a00d0c6:	6822      	ldr	r2, [r4, #0]
1a00d0c8:	2301      	movs	r3, #1
1a00d0ca:	e7ce      	b.n	1a00d06a <__swbuf_r+0x36>
1a00d0cc:	f7fa f954 	bl	1a007378 <__sinit>
1a00d0d0:	e7b8      	b.n	1a00d044 <__swbuf_r+0x10>
1a00d0d2:	4621      	mov	r1, r4
1a00d0d4:	4630      	mov	r0, r6
1a00d0d6:	f7fa f8e1 	bl	1a00729c <_fflush_r>
1a00d0da:	2800      	cmp	r0, #0
1a00d0dc:	d0d3      	beq.n	1a00d086 <__swbuf_r+0x52>
1a00d0de:	f04f 37ff 	mov.w	r7, #4294967295	; 0xffffffff
1a00d0e2:	e7d0      	b.n	1a00d086 <__swbuf_r+0x52>

1a00d0e4 <_wcrtomb_r>:
1a00d0e4:	b5f0      	push	{r4, r5, r6, r7, lr}
1a00d0e6:	4c11      	ldr	r4, [pc, #68]	; (1a00d12c <_wcrtomb_r+0x48>)
1a00d0e8:	6824      	ldr	r4, [r4, #0]
1a00d0ea:	b085      	sub	sp, #20
1a00d0ec:	4606      	mov	r6, r0
1a00d0ee:	6b64      	ldr	r4, [r4, #52]	; 0x34
1a00d0f0:	461f      	mov	r7, r3
1a00d0f2:	b151      	cbz	r1, 1a00d10a <_wcrtomb_r+0x26>
1a00d0f4:	4d0e      	ldr	r5, [pc, #56]	; (1a00d130 <_wcrtomb_r+0x4c>)
1a00d0f6:	2c00      	cmp	r4, #0
1a00d0f8:	bf08      	it	eq
1a00d0fa:	462c      	moveq	r4, r5
1a00d0fc:	f8d4 40e0 	ldr.w	r4, [r4, #224]	; 0xe0
1a00d100:	47a0      	blx	r4
1a00d102:	1c43      	adds	r3, r0, #1
1a00d104:	d00c      	beq.n	1a00d120 <_wcrtomb_r+0x3c>
1a00d106:	b005      	add	sp, #20
1a00d108:	bdf0      	pop	{r4, r5, r6, r7, pc}
1a00d10a:	4a09      	ldr	r2, [pc, #36]	; (1a00d130 <_wcrtomb_r+0x4c>)
1a00d10c:	2c00      	cmp	r4, #0
1a00d10e:	bf08      	it	eq
1a00d110:	4614      	moveq	r4, r2
1a00d112:	460a      	mov	r2, r1
1a00d114:	f8d4 40e0 	ldr.w	r4, [r4, #224]	; 0xe0
1a00d118:	a901      	add	r1, sp, #4
1a00d11a:	47a0      	blx	r4
1a00d11c:	1c43      	adds	r3, r0, #1
1a00d11e:	d1f2      	bne.n	1a00d106 <_wcrtomb_r+0x22>
1a00d120:	2200      	movs	r2, #0
1a00d122:	238a      	movs	r3, #138	; 0x8a
1a00d124:	603a      	str	r2, [r7, #0]
1a00d126:	6033      	str	r3, [r6, #0]
1a00d128:	b005      	add	sp, #20
1a00d12a:	bdf0      	pop	{r4, r5, r6, r7, pc}
1a00d12c:	10000048 	.word	0x10000048
1a00d130:	10000478 	.word	0x10000478

1a00d134 <__aeabi_dcmpun>:
1a00d134:	ea4f 0c41 	mov.w	ip, r1, lsl #1
1a00d138:	ea7f 5c6c 	mvns.w	ip, ip, asr #21
1a00d13c:	d102      	bne.n	1a00d144 <__aeabi_dcmpun+0x10>
1a00d13e:	ea50 3c01 	orrs.w	ip, r0, r1, lsl #12
1a00d142:	d10a      	bne.n	1a00d15a <__aeabi_dcmpun+0x26>
1a00d144:	ea4f 0c43 	mov.w	ip, r3, lsl #1
1a00d148:	ea7f 5c6c 	mvns.w	ip, ip, asr #21
1a00d14c:	d102      	bne.n	1a00d154 <__aeabi_dcmpun+0x20>
1a00d14e:	ea52 3c03 	orrs.w	ip, r2, r3, lsl #12
1a00d152:	d102      	bne.n	1a00d15a <__aeabi_dcmpun+0x26>
1a00d154:	f04f 0000 	mov.w	r0, #0
1a00d158:	4770      	bx	lr
1a00d15a:	f04f 0001 	mov.w	r0, #1
1a00d15e:	4770      	bx	lr

1a00d160 <__aeabi_d2iz>:
1a00d160:	ea4f 0241 	mov.w	r2, r1, lsl #1
1a00d164:	f512 1200 	adds.w	r2, r2, #2097152	; 0x200000
1a00d168:	d215      	bcs.n	1a00d196 <__aeabi_d2iz+0x36>
1a00d16a:	d511      	bpl.n	1a00d190 <__aeabi_d2iz+0x30>
1a00d16c:	f46f 7378 	mvn.w	r3, #992	; 0x3e0
1a00d170:	ebb3 5262 	subs.w	r2, r3, r2, asr #21
1a00d174:	d912      	bls.n	1a00d19c <__aeabi_d2iz+0x3c>
1a00d176:	ea4f 23c1 	mov.w	r3, r1, lsl #11
1a00d17a:	f043 4300 	orr.w	r3, r3, #2147483648	; 0x80000000
1a00d17e:	ea43 5350 	orr.w	r3, r3, r0, lsr #21
1a00d182:	f011 4f00 	tst.w	r1, #2147483648	; 0x80000000
1a00d186:	fa23 f002 	lsr.w	r0, r3, r2
1a00d18a:	bf18      	it	ne
1a00d18c:	4240      	negne	r0, r0
1a00d18e:	4770      	bx	lr
1a00d190:	f04f 0000 	mov.w	r0, #0
1a00d194:	4770      	bx	lr
1a00d196:	ea50 3001 	orrs.w	r0, r0, r1, lsl #12
1a00d19a:	d105      	bne.n	1a00d1a8 <__aeabi_d2iz+0x48>
1a00d19c:	f011 4000 	ands.w	r0, r1, #2147483648	; 0x80000000
1a00d1a0:	bf08      	it	eq
1a00d1a2:	f06f 4000 	mvneq.w	r0, #2147483648	; 0x80000000
1a00d1a6:	4770      	bx	lr
1a00d1a8:	f04f 0000 	mov.w	r0, #0
1a00d1ac:	4770      	bx	lr
1a00d1ae:	bf00      	nop

1a00d1b0 <__aeabi_d2uiz>:
1a00d1b0:	004a      	lsls	r2, r1, #1
1a00d1b2:	d211      	bcs.n	1a00d1d8 <__aeabi_d2uiz+0x28>
1a00d1b4:	f512 1200 	adds.w	r2, r2, #2097152	; 0x200000
1a00d1b8:	d211      	bcs.n	1a00d1de <__aeabi_d2uiz+0x2e>
1a00d1ba:	d50d      	bpl.n	1a00d1d8 <__aeabi_d2uiz+0x28>
1a00d1bc:	f46f 7378 	mvn.w	r3, #992	; 0x3e0
1a00d1c0:	ebb3 5262 	subs.w	r2, r3, r2, asr #21
1a00d1c4:	d40e      	bmi.n	1a00d1e4 <__aeabi_d2uiz+0x34>
1a00d1c6:	ea4f 23c1 	mov.w	r3, r1, lsl #11
1a00d1ca:	f043 4300 	orr.w	r3, r3, #2147483648	; 0x80000000
1a00d1ce:	ea43 5350 	orr.w	r3, r3, r0, lsr #21
1a00d1d2:	fa23 f002 	lsr.w	r0, r3, r2
1a00d1d6:	4770      	bx	lr
1a00d1d8:	f04f 0000 	mov.w	r0, #0
1a00d1dc:	4770      	bx	lr
1a00d1de:	ea50 3001 	orrs.w	r0, r0, r1, lsl #12
1a00d1e2:	d102      	bne.n	1a00d1ea <__aeabi_d2uiz+0x3a>
1a00d1e4:	f04f 30ff 	mov.w	r0, #4294967295	; 0xffffffff
1a00d1e8:	4770      	bx	lr
1a00d1ea:	f04f 0000 	mov.w	r0, #0
1a00d1ee:	4770      	bx	lr
1a00d1f0:	554e454d 	.word	0x554e454d
1a00d1f4:	49525020 	.word	0x49525020
1a00d1f8:	5049434e 	.word	0x5049434e
1a00d1fc:	000d4c41 	.word	0x000d4c41
1a00d200:	20293128 	.word	0x20293128
1a00d204:	6964654d 	.word	0x6964654d
1a00d208:	61432072 	.word	0x61432072
1a00d20c:	0d6f706d 	.word	0x0d6f706d
1a00d210:	00000000 	.word	0x00000000
1a00d214:	20293228 	.word	0x20293228
1a00d218:	0d2d2d2d 	.word	0x0d2d2d2d
1a00d21c:	00000000 	.word	0x00000000
1a00d220:	20293328 	.word	0x20293328
1a00d224:	202d2d2d 	.word	0x202d2d2d
1a00d228:	0000000d 	.word	0x0000000d
1a00d22c:	00007325 	.word	0x00007325
1a00d230:	76206c45 	.word	0x76206c45
1a00d234:	726f6c61 	.word	0x726f6c61
1a00d238:	676e6920 	.word	0x676e6920
1a00d23c:	61736572 	.word	0x61736572
1a00d240:	203a6f64 	.word	0x203a6f64
1a00d244:	0a0d7325 	.word	0x0a0d7325
1a00d248:	00000000 	.word	0x00000000
1a00d24c:	45434e45 	.word	0x45434e45
1a00d250:	5245444e 	.word	0x5245444e
1a00d254:	4e4f5320 	.word	0x4e4f5320
1a00d258:	2e2e4144 	.word	0x2e2e4144
1a00d25c:	000d202e 	.word	0x000d202e
1a00d260:	41545345 	.word	0x41545345
1a00d264:	44204f44 	.word	0x44204f44
1a00d268:	4f532045 	.word	0x4f532045
1a00d26c:	3a41444e 	.word	0x3a41444e
1a00d270:	0d4e4f20 	.word	0x0d4e4f20
1a00d274:	00000000 	.word	0x00000000
1a00d278:	4944454d 	.word	0x4944454d
1a00d27c:	41432052 	.word	0x41432052
1a00d280:	2e4f504d 	.word	0x2e4f504d
1a00d284:	0d202e2e 	.word	0x0d202e2e
1a00d288:	00000000 	.word	0x00000000
1a00d28c:	76206c45 	.word	0x76206c45
1a00d290:	726f6c61 	.word	0x726f6c61
1a00d294:	676e6920 	.word	0x676e6920
1a00d298:	61736572 	.word	0x61736572
1a00d29c:	63206f64 	.word	0x63206f64
1a00d2a0:	206f7361 	.word	0x206f7361
1a00d2a4:	25203a30 	.word	0x25203a30
1a00d2a8:	0d66342e 	.word	0x0d66342e
1a00d2ac:	0000000a 	.word	0x0000000a
1a00d2b0:	76206c45 	.word	0x76206c45
1a00d2b4:	726f6c61 	.word	0x726f6c61
1a00d2b8:	676e6920 	.word	0x676e6920
1a00d2bc:	61736572 	.word	0x61736572
1a00d2c0:	63206f64 	.word	0x63206f64
1a00d2c4:	206f7361 	.word	0x206f7361
1a00d2c8:	25203a31 	.word	0x25203a31
1a00d2cc:	0d66342e 	.word	0x0d66342e
1a00d2d0:	0000000a 	.word	0x0000000a
1a00d2d4:	76206c45 	.word	0x76206c45
1a00d2d8:	726f6c61 	.word	0x726f6c61
1a00d2dc:	676e6920 	.word	0x676e6920
1a00d2e0:	61736572 	.word	0x61736572
1a00d2e4:	63206f64 	.word	0x63206f64
1a00d2e8:	206f7361 	.word	0x206f7361
1a00d2ec:	6c662032 	.word	0x6c662032
1a00d2f0:	3a74616f 	.word	0x3a74616f
1a00d2f4:	342e2520 	.word	0x342e2520
1a00d2f8:	000a0d66 	.word	0x000a0d66
1a00d2fc:	76206c45 	.word	0x76206c45
1a00d300:	726f6c61 	.word	0x726f6c61
1a00d304:	676e6920 	.word	0x676e6920
1a00d308:	61736572 	.word	0x61736572
1a00d30c:	63206f64 	.word	0x63206f64
1a00d310:	206f7361 	.word	0x206f7361
1a00d314:	25203a33 	.word	0x25203a33
1a00d318:	0d66342e 	.word	0x0d66342e
1a00d31c:	0000000a 	.word	0x0000000a
1a00d320:	76206c45 	.word	0x76206c45
1a00d324:	726f6c61 	.word	0x726f6c61
1a00d328:	676e6920 	.word	0x676e6920
1a00d32c:	61736572 	.word	0x61736572
1a00d330:	63206f64 	.word	0x63206f64
1a00d334:	206f7361 	.word	0x206f7361
1a00d338:	25203a34 	.word	0x25203a34
1a00d33c:	0d66342e 	.word	0x0d66342e
1a00d340:	0000000a 	.word	0x0000000a
1a00d344:	6c206c45 	.word	0x6c206c45
1a00d348:	61747369 	.word	0x61747369
1a00d34c:	20656420 	.word	0x20656420
1a00d350:	6f6c6176 	.word	0x6f6c6176
1a00d354:	3a736572 	.word	0x3a736572
1a00d358:	342e2520 	.word	0x342e2520
1a00d35c:	000a0d66 	.word	0x000a0d66
1a00d360:	4f525245 	.word	0x4f525245
1a00d364:	45442052 	.word	0x45442052
1a00d368:	4d4f4320 	.word	0x4d4f4320
1a00d36c:	43494e55 	.word	0x43494e55
1a00d370:	4f494341 	.word	0x4f494341
1a00d374:	3145204e 	.word	0x3145204e
1a00d378:	0000000d 	.word	0x0000000d
1a00d37c:	4f525245 	.word	0x4f525245
1a00d380:	45442052 	.word	0x45442052
1a00d384:	46554220 	.word	0x46554220
1a00d388:	20524546 	.word	0x20524546
1a00d38c:	000d3245 	.word	0x000d3245
1a00d390:	414d4f43 	.word	0x414d4f43
1a00d394:	204f444e 	.word	0x204f444e
1a00d398:	49434552 	.word	0x49434552
1a00d39c:	4f444942 	.word	0x4f444942
1a00d3a0:	204f4e20 	.word	0x204f4e20
1a00d3a4:	494c4156 	.word	0x494c4156
1a00d3a8:	45204f44 	.word	0x45204f44
1a00d3ac:	00000d33 	.word	0x00000d33
1a00d3b0:	41524150 	.word	0x41524150
1a00d3b4:	5254454d 	.word	0x5254454d
1a00d3b8:	4552204f 	.word	0x4552204f
1a00d3bc:	49424943 	.word	0x49424943
1a00d3c0:	4e204f44 	.word	0x4e204f44
1a00d3c4:	4156204f 	.word	0x4156204f
1a00d3c8:	4f44494c 	.word	0x4f44494c
1a00d3cc:	0d344520 	.word	0x0d344520
1a00d3d0:	00000000 	.word	0x00000000
1a00d3d4:	4f525245 	.word	0x4f525245
1a00d3d8:	45442052 	.word	0x45442052
1a00d3dc:	52414820 	.word	0x52414820
1a00d3e0:	52415744 	.word	0x52415744
1a00d3e4:	35452045 	.word	0x35452045
1a00d3e8:	0000000d 	.word	0x0000000d
1a00d3ec:	4f525245 	.word	0x4f525245
1a00d3f0:	45442052 	.word	0x45442052
1a00d3f4:	52415020 	.word	0x52415020
1a00d3f8:	44414449 	.word	0x44414449
1a00d3fc:	0d364520 	.word	0x0d364520
1a00d400:	00000000 	.word	0x00000000
1a00d404:	414d4f43 	.word	0x414d4f43
1a00d408:	204f444e 	.word	0x204f444e
1a00d40c:	49434552 	.word	0x49434552
1a00d410:	4f444942 	.word	0x4f444942
1a00d414:	434e4920 	.word	0x434e4920
1a00d418:	4552524f 	.word	0x4552524f
1a00d41c:	204f5443 	.word	0x204f5443
1a00d420:	000d3745 	.word	0x000d3745
1a00d424:	414d4f43 	.word	0x414d4f43
1a00d428:	204f444e 	.word	0x204f444e
1a00d42c:	44204f4e 	.word	0x44204f4e
1a00d430:	4f505349 	.word	0x4f505349
1a00d434:	4c42494e 	.word	0x4c42494e
1a00d438:	38452045 	.word	0x38452045
1a00d43c:	0000000d 	.word	0x0000000d
1a00d440:	414d4f43 	.word	0x414d4f43
1a00d444:	204f444e 	.word	0x204f444e
1a00d448:	49434552 	.word	0x49434552
1a00d44c:	4f444942 	.word	0x4f444942
1a00d450:	434e4920 	.word	0x434e4920
1a00d454:	4552524f 	.word	0x4552524f
1a00d458:	204f5443 	.word	0x204f5443
1a00d45c:	000d3945 	.word	0x000d3945
1a00d460:	4d454954 	.word	0x4d454954
1a00d464:	4f204f50 	.word	0x4f204f50
1a00d468:	2e2e5455 	.word	0x2e2e5455
1a00d46c:	0000000d 	.word	0x0000000d
1a00d470:	632e6363 	.word	0x632e6363
1a00d474:	00000063 	.word	0x00000063
1a00d478:	63636363 	.word	0x63636363
1a00d47c:	00000000 	.word	0x00000000
1a00d480:	7878443a 	.word	0x7878443a
1a00d484:	7978782e 	.word	0x7978782e
1a00d488:	79792e79 	.word	0x79792e79
1a00d48c:	7a2e7a7a 	.word	0x7a2e7a7a
1a00d490:	2e63637a 	.word	0x2e63637a
1a00d494:	004e6363 	.word	0x004e6363

1a00d498 <ExtRateIn>:
1a00d498:	00000000                                ....

1a00d49c <GpioButtons>:
1a00d49c:	08000400 09010900                       ........

1a00d4a4 <GpioLeds>:
1a00d4a4:	01050005 0e000205 0c010b01              ............

1a00d4b0 <GpioPorts>:
1a00d4b0:	03030003 0f050403 05031005 07030603     ................
1a00d4c0:	ffff0802                                ....

1a00d4c4 <OscRateIn>:
1a00d4c4:	00b71b00                                ....

1a00d4c8 <InitClkStates>:
1a00d4c8:	01010f01                                ....

1a00d4cc <pinmuxing>:
1a00d4cc:	00440002 00440102 00440202 00400a02     ..D...D...D...@.
1a00d4dc:	00400b02 00400c02 00500001 00500101     ..@...@...P...P.
1a00d4ec:	00500201 00500601 00500106 00500406     ..P...P...P...P.
1a00d4fc:	00500506 00540706 00540806 00500906     ..P...T...T...P.
1a00d50c:	00500a06 00500b06 00500c06 00f0040f     ..P...P...P.....
1a00d51c:	00d50301 00d50401 00160107 00560207     ..............V.
1a00d52c:	00520302 00520402 00520509 00570609     ..R...R...R...W.
1a00d53c:	00570206                                ..W.

1a00d540 <UART_BClock>:
1a00d540:	01a201c2 01620182                       ......b.

1a00d548 <UART_PClock>:
1a00d548:	00820081 00a200a1 08040201 0f0f0f03     ................
1a00d558:	ffff00ff                                ....

1a00d55c <periph_to_base>:
1a00d55c:	00050000 0020000a 00090024 00400040     ...... .$...@.@.
1a00d56c:	00600005 000400a6 00c300c0 00e00002     ..`.............
1a00d57c:	000100e0 01000100 01200003 00060120     .......... . ...
1a00d58c:	01400140 0142000c 00190142 01620162     @.@...B.B...b.b.
1a00d59c:	01820013 00120182 01a201a2 01c20011     ................
1a00d5ac:	001001c2 01e201e2 0202000f 000e0202     ................
1a00d5bc:	02220222 0223000d 001c0223              "."...#.#...

1a00d5c8 <InitClkStates>:
1a00d5c8:	00010100 00010909 0001090a 01010701     ................
1a00d5d8:	00010902 00010906 0101090c 0001090d     ................
1a00d5e8:	0001090e 0001090f 00010910 00010911     ................
1a00d5f8:	00010912 00010913 00011114 00011119     ................
1a00d608:	0001111a 0001111b                       ........

1a00d610 <lpcUarts>:
1a00d610:	40081000 06020406 00180205 40081000     ...@...........@
1a00d620:	09070509 00180706 40082000 00000000     ......... .@....
1a00d630:	00190000 400c1000 07060107 001a0602     .......@........
1a00d640:	400c1000 01010f01 001a0110 400c2000     ...@......... .@
1a00d650:	02020302 001b0204                       ........

1a00d658 <gpioPinsInit>:
1a00d658:	02000104 00050701 05010d03 04080100     ................
1a00d668:	02020002 02000304 00000403 04070002     ................
1a00d678:	030c0300 09050402 05040103 04030208     ................
1a00d688:	04020305 06040504 0802000c 03000b06     ................
1a00d698:	00090607 07060503 060f0504 03030004     ................
1a00d6a8:	02000404 00050404 06040502 04060200     ................
1a00d6b8:	0c050408 05040a04 0003010e 14010a00     ................
1a00d6c8:	010f0000 0d000012 00001101 0010010c     ................
1a00d6d8:	07070300 000f0300 01000001 00000000     ................
1a00d6e8:	000a0600 08060603 06100504 04030005     ................
1a00d6f8:	03000106 04090400 04010d05 010b0000     ................
1a00d708:	0200000f 00000001 00010104 02010800     ................
1a00d718:	01090000 09010006 05040002 04010200     ................
1a00d728:	02020105 02020504 0e00000a 01000b02     ................
1a00d738:	000c020b ffff0c01 00464e49 00666e69     ........INF.inf.
1a00d748:	004e414e 006e616e 33323130 37363534     NAN.nan.01234567
1a00d758:	62613938 66656463 00000000 33323130     89abcdef....0123
1a00d768:	37363534 42413938 46454443 00000000     456789ABCDEF....
1a00d778:	6c756e28 0000296c ffff0030              (null)..0...

1a00d784 <blanks.8605>:
1a00d784:	20202020 20202020 20202020 20202020                     

1a00d794 <zeroes.8606>:
1a00d794:	30303030 30303030 30303030 30303030     0000000000000000
1a00d7a4:	646c2565 ffffff00                       e%ld....

1a00d7ac <basefix.8686>:
1a00d7ac:	0001000a 00030002 00050004 00070006     ................
1a00d7bc:	00090008 000b000a 000d000c 000f000e     ................
1a00d7cc:	ffff0010 69666e49 7974696e 00000000     ....Infinity....
1a00d7dc:	004e614e                                NaN.

1a00d7e0 <_global_impure_ptr>:
1a00d7e0:	10000050 00000043 49534f50 ffff0058     P...C...POSIX...
1a00d7f0:	ffff002e ffffffff                       ........

1a00d7f8 <__mprec_bigtens>:
1a00d7f8:	37e08000 4341c379 b5056e17 4693b8b5     ...7y.AC.n.....F
1a00d808:	e93ff9f5 4d384f03 f9301d32 5a827748     ..?..O8M2.0.Hw.Z
1a00d818:	7f73bf3c 75154fdd                       <.s..O.u

1a00d820 <__mprec_tens>:
1a00d820:	00000000 3ff00000 00000000 40240000     .......?......$@
1a00d830:	00000000 40590000 00000000 408f4000     ......Y@.....@.@
1a00d840:	00000000 40c38800 00000000 40f86a00     .......@.....j.@
1a00d850:	00000000 412e8480 00000000 416312d0     .......A......cA
1a00d860:	00000000 4197d784 00000000 41cdcd65     .......A....e..A
1a00d870:	20000000 4202a05f e8000000 42374876     ... _..B....vH7B
1a00d880:	a2000000 426d1a94 e5400000 42a2309c     ......mB..@..0.B
1a00d890:	1e900000 42d6bcc4 26340000 430c6bf5     .......B..4&.k.C
1a00d8a0:	37e08000 4341c379 85d8a000 43763457     ...7y.AC....W4vC
1a00d8b0:	674ec800 43abc16d 60913d00 43e158e4     ..Ngm..C.=.`.X.C
1a00d8c0:	78b58c40 4415af1d d6e2ef50 444b1ae4     @..x...DP.....KD
1a00d8d0:	064dd592 4480f0cf c7e14af6 44b52d02     ..M....D.J...-.D
1a00d8e0:	79d99db4 44ea7843                       ...yCx.D

1a00d8e8 <p05.7367>:
1a00d8e8:	00000005 00000019 0000007d 0000666e     ........}...nf..
1a00d8f8:	74696e69 00000079 00006e61              inity...an..

1a00d904 <fpi.7447>:
1a00d904:	00000035 fffffbce 000003cb 00000001     5...............
1a00d914:	00000000                                ....

1a00d918 <fpinan.7483>:
1a00d918:	00000034 fffffbce 000003cb 00000001     4...............
1a00d928:	00000000 ffffffff                       ........

1a00d930 <tinytens>:
1a00d930:	97d889bc 3c9cd2b2 d5a8a733 3949f623     .......<3...#.I9
1a00d940:	44f4a73d 32a50ffd cf8c979d 255bba08     =..D...2......[%
1a00d950:	64ac6f43 11680628                       Co.d(.h.

1a00d958 <blanks.8590>:
1a00d958:	20202020 20202020 20202020 20202020                     

1a00d968 <zeroes.8591>:
1a00d968:	30303030 30303030 30303030 30303030     0000000000000000

1a00d978 <_ctype_>:
1a00d978:	20202000 20202020 28282020 20282828     .         ((((( 
1a00d988:	20202020 20202020 20202020 20202020                     
1a00d998:	10108820 10101010 10101010 10101010      ...............
1a00d9a8:	04040410 04040404 10040404 10101010     ................
1a00d9b8:	41411010 41414141 01010101 01010101     ..AAAAAA........
1a00d9c8:	01010101 01010101 01010101 10101010     ................
1a00d9d8:	42421010 42424242 02020202 02020202     ..BBBBBB........
1a00d9e8:	02020202 02020202 02020202 10101010     ................
1a00d9f8:	00000020 00000000 00000000 00000000      ...............
	...
1a00da78:	ffffff00                                ....

1a00da7c <__hexdig>:
	...
1a00daac:	13121110 17161514 00001918 00000000     ................
1a00dabc:	1c1b1a00 001f1e1d 00000000 00000000     ................
	...
1a00dadc:	1c1b1a00 001f1e1d 00000000 00000000     ................
	...
